******************************************************************************
               TMS320C6x Linker PC v8.3.12                     
******************************************************************************
>> Linked Sat Apr 30 22:17:24 2022

OUTPUT FILE NAME:   <Board_C674x.out>
ENTRY POINT SYMBOL: "_c_int00"  address: c227cac0


MEMORY CONFIGURATION

         name            origin    length      used     unused   attr    fill
----------------------  --------  ---------  --------  --------  ----  --------
  DSPL2RAM              00800000   00040000  00004000  0003c000  RW  
  SHRAM                 80000000   00020000  00000004  0001fffc  RW X
  DDR2                  c0000000   08000000  022bc158  05d43ea8  RW X


SEGMENT ALLOCATION MAP

run origin  load origin   length   init length attrs members
----------  ----------- ---------- ----------- ----- -------
00800000    00800000    00004000   00000000    rw-
  00800000    00800000    00004000   00000000    rw- .stack
80000000    80000000    00000004   00000000    rw-
  80000000    80000000    00000004   00000000    rw- .LEDNixieVal
c0000000    c0000000    021d743c   00000000    rw-
  c0000000    c0000000    02000000   00000000    rw- SystemHeap
  c2000000    c2000000    001d743c   00000000    rw- .far
c21d7440    c21d7440    000e23c0   000e23c0    r-x
  c21d7440    c21d7440    000ac040   000ac040    r-x .text
  c2283480    c2283480    00036162   00036162    r-- .const
  c22b95e4    c22b95e4    0000021c   0000021c    r-- .switch.1
c22b9800    c22b9800    00001434   00000000    rw-
  c22b9800    c22b9800    00001434   00000000    rw- .fardata
c22bac34    c22bac34    000004c0   000004c0    r--
  c22bac34    c22bac34    000004c0   000004c0    r-- .switch.2
c22bb0f4    c22bb0f4    000001aa   00000000    rw-
  c22bb0f4    c22bb0f4    000000f2   00000000    rw- .bss
  c22bb1e8    c22bb1e8    000000b6   00000000    rw- .neardata
c22bb2a0    c22bb2a0    00000120   00000000    rw-
  c22bb2a0    c22bb2a0    00000120   00000000    rw- .cio
c22bb400    c22bb400    00000da0   00000da0    r-x
  c22bb400    c22bb400    00000200   00000200    r-x .vecs
  c22bb600    c22bb600    00000ba0   00000ba0    r-- .cinit


SECTION ALLOCATION MAP

 output                                  attributes/
section   page    origin      length       input sections
--------  ----  ----------  ----------   ----------------
.LEDNixieVal 
*          0    80000000    00000004     UNINITIALIZED
                  80000000    00000004     LEDNixie.obj (.LEDNixieVal)

.stack     0    00800000    00004000     UNINITIALIZED
                  00800000    00000008     boot.ae674 : boot.oe674 (.stack)
                  00800008    00003ff8     --HOLE--

.bss       0    c22bb0f4    000000f2     UNINITIALIZED
                  c22bb0f4    00000018     hal_timer_bios.ae674 : lltimer.oe674 (.bss)
                  c22bb10c    0000000c     lv_anim.obj (.bss)
                  c22bb118    0000000c     lv_tileview.obj (.bss)
                  c22bb124    00000008     lv_refr.obj (.bss)
                  c22bb12c    00000008     lv_spinner.obj (.bss)
                  c22bb134    00000008     lv_theme_default.obj (.bss)
                  c22bb13c    00000004     chinese_ime.obj (.bss)
                  c22bb140    00000004     lv_event.obj (.bss)
                  c22bb144    00000004     lv_group.obj (.bss)
                  c22bb148    00000004     lv_hal_disp.obj (.bss)
                  c22bb14c    00000004     lv_indev.obj (.bss)
                  c22bb150    00000004     lv_log.obj (.bss)
                  c22bb154    00000004     lv_mem.obj (.bss)
                  c22bb158    00000004     lv_obj_pos.obj (.bss)
                  c22bb15c    00000004     lv_tabview.obj (.bss)
                  c22bb160    00000004     lv_textarea.obj (.bss)
                  c22bb164    00000004     (.common:KEY4SwiHandle)
                  c22bb168    00000004     (.common:KEY6SwiHandle)
                  c22bb16c    00000004     (.common:LV_LAYOUT_FLEX)
                  c22bb170    00000004     (.common:LV_LAYOUT_GRID)
                  c22bb174    00000004     (.common:LV_STYLE_FLEX_CROSS_PLACE)
                  c22bb178    00000004     (.common:LV_STYLE_FLEX_FLOW)
                  c22bb17c    00000004     (.common:LV_STYLE_FLEX_GROW)
                  c22bb180    00000004     (.common:LV_STYLE_FLEX_MAIN_PLACE)
                  c22bb184    00000004     (.common:LV_STYLE_FLEX_TRACK_PLACE)
                  c22bb188    00000004     (.common:LV_STYLE_GRID_CELL_COLUMN_POS)
                  c22bb18c    00000004     (.common:LV_STYLE_GRID_CELL_COLUMN_SPAN)
                  c22bb190    00000004     (.common:LV_STYLE_GRID_CELL_ROW_POS)
                  c22bb194    00000004     (.common:LV_STYLE_GRID_CELL_ROW_SPAN)
                  c22bb198    00000004     (.common:LV_STYLE_GRID_CELL_X_ALIGN)
                  c22bb19c    00000004     (.common:LV_STYLE_GRID_CELL_Y_ALIGN)
                  c22bb1a0    00000004     (.common:LV_STYLE_GRID_COLUMN_ALIGN)
                  c22bb1a4    00000004     (.common:LV_STYLE_GRID_COLUMN_DSC_ARRAY)
                  c22bb1a8    00000004     (.common:LV_STYLE_GRID_ROW_ALIGN)
                  c22bb1ac    00000004     (.common:LV_STYLE_GRID_ROW_DSC_ARRAY)
                  c22bb1b0    00000004     (.common:UARTConsoleSemHandle)
                  c22bb1b4    00000004     (.common:UARTConsoleTaskHandle)
                  c22bb1b8    00000004     (.common:_lv_grad_cache_mem)
                  c22bb1bc    00000004     (.common:_lv_layout_list)
                  c22bb1c0    00000004     (.common:_lv_theme_basic_styles)
                  c22bb1c4    00000004     (.common:_lv_theme_default_styles)
                  c22bb1c8    00000004     (.common:_lv_timer_act)
                  c22bb1cc    00000004     (.common:indev_touchpad)
                  c22bb1d0    00000004     (.common:p_rx)
                  c22bb1d4    00000004     (.common:p_tx)
                  c22bb1d8    00000004     (.common:rx_len)
                  c22bb1dc    00000004     (.common:tx_len)
                  c22bb1e0    00000002     lv_timer.obj (.bss)
                  c22bb1e2    00000002     lv_win.obj (.bss)
                  c22bb1e4    00000001     lv_colorwheel.obj (.bss)
                  c22bb1e5    00000001     lv_hal_tick.obj (.bss)

.neardata 
*          0    c22bb1e8    000000b6     UNINITIALIZED
                  c22bb1e8    00000020     lv_txt.obj (.neardata)
                  c22bb208    00000018     os.ae674 : task.oe674 (.neardata)
                  c22bb220    00000010     lv_timer.obj (.neardata)
                  c22bb230    00000009     lv_draw_sw_gradient.obj (.neardata)
                  c22bb239    00000003     UARTConsole.obj (.neardata)
                  c22bb23c    00000008     SATA.obj (.neardata)
                  c22bb244    00000008     lv_calendar_header_dropdown.obj (.neardata)
                  c22bb24c    00000008     lv_draw_sw_letter.obj (.neardata)
                  c22bb254    00000008     lv_indev.obj (.neardata)
                  c22bb25c    00000008     lv_obj.obj (.neardata)
                  c22bb264    00000005     lv_colorwheel.obj (.neardata)
                  c22bb269    00000003     lv_hal_disp.obj (.neardata)
                  c22bb26c    00000004     Flash.obj (.neardata)
                  c22bb270    00000004     LED.obj (.neardata)
                  c22bb274    00000004     PLL.obj (.neardata)
                  c22bb278    00000004     hal_timer_bios.ae674 : lltimer.oe674 (.neardata)
                  c22bb27c    00000004     lv_event.obj (.neardata)
                  c22bb280    00000004     lv_hal_tick.obj (.neardata)
                  c22bb284    00000004     lv_log.obj (.neardata)
                  c22bb288    00000004     lv_math.obj (.neardata)
                  c22bb28c    00000004     lv_mem.obj (.neardata)
                  c22bb290    00000004     lv_port_indev_c674x.obj (.neardata)
                  c22bb294    00000004     zh_cn_pinyin_dict.obj (.neardata)
                  c22bb298    00000002     lv_style.obj (.neardata)
                  c22bb29a    00000001     Timer.obj (.neardata)
                  c22bb29b    00000001     lv_obj_pos.obj (.neardata)
                  c22bb29c    00000001     lv_obj_style.obj (.neardata)
                  c22bb29d    00000001     lv_theme_default.obj (.neardata)

.rodata    0    c22bb29e    00000000     UNINITIALIZED

.cinit     0    c22bb600    00000ba0     
                  c22bb600    00000ac8     (.cinit..fardata.load) [load image, compression = rle]
                  c22bc0c8    0000006a     (.cinit..neardata.load) [load image, compression = rle]
                  c22bc132    00000016     (.cinit.SystemHeap.load) [load image, compression = rle]
                  c22bc148    0000000d     (.cinit..far.load) [load image, compression = rle]
                  c22bc155    00000009     (.cinit..LEDNixieVal.load) [load image, compression = rle]
                  c22bc15e    00000009     (.cinit..bss.load) [load image, compression = rle]
                  c22bc167    00000001     --HOLE-- [fill = 0]
                  c22bc168    00000008     (__TI_handler_table)
                  c22bc170    00000030     (__TI_cinit_table)

.init_array 
*          0    c0000000    00000000     UNINITIALIZED

SystemHeap 
*          0    c0000000    02000000     UNINITIALIZED
                  c0000000    02000000     Local_pe674.oe674 (SystemHeap)

.vecs      0    c22bb400    00000200     
                  c22bb400    00000200     Local_pe674.oe674 (.vecs)

xdc.meta   0    c0000000    000000f8     COPY SECTION
                  c0000000    000000f8     Local_pe674.oe674 (xdc.meta)

.far       0    c2000000    001d743c     UNINITIALIZED
                  c2000000    00100000     lv_mem.obj (.far:work_mem_int$1)
                  c2100000    000bb824     (.common:g_pucBuffer)
                  c21bb824    00000004     (.common:swCtrlFeatures)
                  c21bb828    00010000     (.common:buff)
                  c21cb828    00003e80     lv_port_disp_c674x.obj (.far:buf_1$2)
                  c21cf6a8    00003e80     lv_port_disp_c674x.obj (.far:buf_2$3)
                  c21d3528    00002800     Local_pe674.oe674 (.far:taskStackSection)
                  c21d5d28    00000800     (.common:CmdHistory)
                  c21d6528    00000400     (.common:xdc_runtime_SysMin_Module_State_0_outbuf__A)
                  c21d6928    00000140     (.common:__TI_tmpnams)
                  c21d6a68    00000104     (.common:rx_data)
                  c21d6b6c    00000002     lv_theme_default.obj (.far:color_card)
                  c21d6b6e    00000002     lv_theme_default.obj (.far:color_grey)
                  c21d6b70    00000104     (.common:tx_data)
                  c21d6c74    00000002     lv_theme_default.obj (.far:color_scr)
                  c21d6c76    00000002     lv_theme_default.obj (.far:color_text)
                  c21d6c78    00000104     (.common:vrf_data)
                  c21d6d7c    00000004     --HOLE--
                  c21d6d80    00000100     lv_draw_sw_letter.obj (.far:opa_table$1)
                  c21d6e80    00000080     (.common:_lv_draw_mask_list)
                  c21d6f00    000000a0     (.common:RcvFis)
                  c21d6fa0    00000080     (.common:lv_mem_buf)
                  c21d7020    00000080     UARTConsole.obj (.far:UARTWriteBuffer)
                  c21d70a0    00000070     (.common:_lv_circle_cache)
                  c21d7110    0000004c     lv_port_disp_c674x.obj (.far:disp_drv$4)
                  c21d715c    00000004     --HOLE--
                  c21d7160    00000040     (.common:g_cCmdBuf)
                  c21d71a0    00000030     (.common:pllcfg)
                  c21d71d0    0000002c     (.common:_lv_img_cache_single)
                  c21d71fc    0000002a     (.common:TouchInfo)
                  c21d7226    00000002     --HOLE--
                  c21d7228    00000024     (.common:RTCTime)
                  c21d724c    00000004     --HOLE--
                  c21d7250    00000024     cmdline.obj (.far:argv$1)
                  c21d7274    00000024     lv_theme_default.obj (.far:theme)
                  c21d7298    00000020     lv_port_indev_c674x.obj (.far:indev_drv$1)
                  c21d72b8    0000001c     lv_port_disp_c674x.obj (.far:draw_buf_dsc$1)
                  c21d72d4    00000004     --HOLE--
                  c21d72d8    0000001a     rts6740_elf.lib : asctime.c.obj (.far:time_buf)
                  c21d72f2    00000002     --HOLE--
                  c21d72f4    00000018     lv_refr.obj (.far:perf_monitor)
                  c21d730c    00000014     lv_theme_default.obj (.far:trans_delayed$2)
                  c21d7320    00000014     lv_theme_default.obj (.far:trans_normal$3)
                  c21d7334    00000004     --HOLE--
                  c21d7338    0000000f     cJSON.obj (.far:version$1)
                  c21d7347    00000001     --HOLE--
                  c21d7348    0000000c     (.common:_lv_anim_ll)
                  c21d7354    0000000c     (.common:_lv_disp_ll)
                  c21d7360    0000000c     (.common:_lv_fsdrv_ll)
                  c21d736c    0000000c     (.common:_lv_group_ll)
                  c21d7378    0000000c     (.common:_lv_img_decoder_ll)
                  c21d7384    0000000c     (.common:_lv_indev_ll)
                  c21d7390    0000000c     (.common:_lv_obj_style_trans_ll)
                  c21d739c    0000000c     (.common:_lv_timer_ll)
                  c21d73a8    0000000c     (.common:ti_sysbios_knl_Task_Instance_State_0_hookEnv__A)
                  c21d73b4    00000004     --HOLE--
                  c21d73b8    0000000c     (.common:ti_sysbios_knl_Task_Instance_State_1_hookEnv__A)
                  c21d73c4    00000004     --HOLE--
                  c21d73c8    0000000a     (.common:I2CData)
                  c21d73d2    00000006     --HOLE--
                  c21d73d8    00000008     (.common:parmbuf)
                  c21d73e0    00000008     lv_font_montserrat_14.obj (.far:cache)
                  c21d73e8    00000008     lv_font_source_han_sans_bold_14.obj (.far:cache)
                  c21d73f0    00000008     lv_theme_default.obj (.far:dark_filter$4)
                  c21d73f8    00000008     lv_theme_default.obj (.far:grey_filter$5)
                  c21d7400    00000008     lv_refr.obj (.far:mem_monitor)
                  c21d7408    00000008     chinese_ime.obj (.far:panel_style$1)
                  c21d7410    00000004     (.common:ti_sysbios_family_c64p_Hwi_Instance_State_0_hookEnv__A)
                  c21d7414    00000004     --HOLE--
                  c21d7418    00000004     (.common:ti_sysbios_family_c64p_Hwi_Instance_State_1_hookEnv__A)
                  c21d741c    00000004     --HOLE--
                  c21d7420    00000004     (.common:ti_sysbios_family_c64p_Hwi_Instance_State_2_hookEnv__A)
                  c21d7424    00000004     --HOLE--
                  c21d7428    00000004     (.common:ti_sysbios_family_c64p_Hwi_Instance_State_3_hookEnv__A)
                  c21d742c    00000004     --HOLE--
                  c21d7430    00000004     (.common:ti_sysbios_family_c64p_Hwi_Instance_State_4_hookEnv__A)
                  c21d7434    00000004     --HOLE--
                  c21d7438    00000004     (.common:ti_sysbios_knl_Swi_Instance_State_0_hookEnv__A)

.text      0    c21d7440    000ac040     
                  c21d7440    00006200     cJSON.obj (.text)
                  c21dd640    00006120     lv_chart.obj (.text)
                  c21e3760    00005380     lv_theme_default.obj (.text)
                  c21e8ae0    000050a0     lv_draw_mask.obj (.text)
                  c21edb80    00004460     lv_draw_sw_rect.obj (.text)
                  c21f1fe0    00003a60     lv_obj_pos.obj (.text)
                  c21f5a40    000036a0     lv_textarea.obj (.text)
                  c21f90e0    00003420     lv_btnmatrix.obj (.text)
                  c21fc500    000030a0     lv_label.obj (.text)
                  c21ff5a0    000030a0     lv_table.obj (.text)
                  c2202640    00003000     lv_obj_scroll.obj (.text)
                  c2205640    00002fa0     lv_tlsf.obj (.text)
                  c22085e0    00002e60     lv_img_buf.obj (.text)
                  c220b440    00002e40     lv_obj_style.obj (.text)
                  c220e280    00002de0     lv_indev.obj (.text)
                  c2211060    00002d00     lv_dropdown.obj (.text)
                  c2213d60    000028e0     lv_refr.obj (.text)
                  c2216640    00002720     lv_obj.obj (.text)
                  c2218d60    000025a0     lv_arc.obj (.text)
                  c221b300    00002420     lv_img.obj (.text)
                  c221d720    00002340     lv_grid.obj (.text)
                  c221fa60    00002300     lv_meter.obj (.text)
                  c2221d60    000022a0     lv_draw_sw_blend.obj (.text)
                  c2224000    000020c0     rts6740_elf.lib : _printfi.c.obj (.text:__TI_printfi)
                  c22260c0    000020a0     lv_flex.obj (.text)
                  c2228160    00002080     rts6740_elf.lib : _scanfi.c.obj (.text:__TI_scanfi)
                  c222a1e0    00001e40     lv_img_decoder.obj (.text)
                  c222c020    00001e20     lv_colorwheel.obj (.text)
                  c222de40    00001e20     lv_draw_sw_arc.obj (.text)
                  c222fc60    00001e00     lv_indev_scroll.obj (.text)
                  c2231a60    00001d60     lv_hal_disp.obj (.text)
                  c22337c0    00001d40     lv_roller.obj (.text)
                  c2235500    00001c80     lv_obj_style_gen.obj (.text)
                  c2237180    00001ba0     lv_style_gen.obj (.text)
                  c2238d20    00001b00     lv_bar.obj (.text)
                  c223a820    00001920     lv_txt.obj (.text)
                  c223c140    000018c0     lv_slider.obj (.text)
                  c223da00    00001840     lv_event.obj (.text)
                  c223f240    000017e0     lv_obj_draw.obj (.text)
                  c2240a20    000017a0     drivers.lib : rtc.obj (.text)
                  c22421c0    000015c0     lv_mem.obj (.text)
                  c2243780    000015a0     lv_menu.obj (.text)
                  c2244d20    00001500     lv_fs.obj (.text)
                  c2246220    000014e0     lv_printf.obj (.text)
                  c2247700    000014a0     lv_area.obj (.text)
                  c2248ba0    000013e0     lv_group.obj (.text)
                  c2249f80    00001320     lv_draw_sw_line.obj (.text)
                  c224b2a0    00001180     lv_spinbox.obj (.text)
                  c224c420    000010c0     lv_anim.obj (.text)
                  c224d4e0    00001040     lv_obj_tree.obj (.text)
                  c224e520    00001020     lv_calendar.obj (.text)
                  c224f540    00001000     lv_draw_label.obj (.text)
                  c2250540    00000fa0     lv_disp.obj (.text)
                  c22514e0    00000e00     drivers.lib : raster.obj (.text)
                  c22522e0    00000dc0                 : ehrpwm.obj (.text)
                  c22530a0    00000d60     lv_draw_sw_gradient.obj (.text)
                  c2253e00    00000cc0     lv_style.obj (.text)
                  c2254ac0    00000c80     lv_draw_sw_img.obj (.text)
                  c2255740    00000c60     lv_color.obj (.text)
                  c22563a0    00000bc0     lv_draw_arc.obj (.text)
                  c2256f60    00000ba0     lv_tabview.obj (.text)
                  c2257b00    00000b00     lv_keyboard.obj (.text)
                  c2258600    00000ac0     lv_font_fmt_txt.obj (.text)
                  c22590c0    00000aa0     lv_checkbox.obj (.text)
                  c2259b60    00000a60     lv_draw_img.obj (.text)
                  c225a5c0    00000a40     lv_switch.obj (.text)
                  c225b000    00000a20     Flash.obj (.text)
                  c225ba20    000009a0     UARTConsole.obj (.text)
                  c225c3c0    000009a0     lv_draw_sw_letter.obj (.text)
                  c225cd60    00000980     Command.obj (.text)
                  c225d6e0    00000920     rts6740_elf.lib : strtod.c.obj (.text:strtod)
                  c225e000    00000900     lv_ll.obj (.text)
                  c225e900    000008a0     ti.targets.rts6000.ae674 : System.oe674 (.text:xdc_runtime_System_doPrint__I)
                  c225f1a0    00000860     lv_draw_sw_polygon.obj (.text)
                  c225fa00    00000820     lv_led.obj (.text)
                  c2260220    00000820     lv_timer.obj (.text)
                  c2260a40    000007a0     lv_math.obj (.text)
                  c22611e0    00000780     sysbios.ae674 : BIOS.obj (.text:ti_sysbios_family_c64p_Exception_handler__I)
                  c2261960    00000740     chinese_ime.obj (.text)
                  c22620a0    00000720     sysbios.ae674 : BIOS.obj (.text:ti_sysbios_heaps_HeapMem_free__E)
                  c22627c0    000006e0     lv_line.obj (.text)
                  c2262ea0    000006a0     SATA.obj (.text)
                  c2263540    000006a0     sysbios.ae674 : BIOS.obj (.text:ti_sysbios_knl_Semaphore_pend__E)
                  c2263be0    000006a0                   : BIOS.obj (.text:ti_sysbios_knl_Task_Instance_finalize__F)
                  c2264280    00000680     I2C.obj (.text)
                  c2264900    00000660     Touch.obj (.text)
                  c2264f60    00000660     rts6740_elf.lib : _printfi.c.obj (.text:_pconv_a)
                  c22655c0    00000620     lv_obj_class.obj (.text)
                  c2265be0    00000620     sysbios.ae674 : BIOS.obj (.text:ti_sysbios_heaps_HeapMem_alloc__E)
                  c2266200    00000600     rts6740_elf.lib : divd.c.obj (.text:__c6xabi_divd)
                  c2266800    00000600     lv_hal_indev.obj (.text)
                  c2266e00    00000600     lv_tileview.obj (.text)
                  c2267400    00000600     sysbios.ae674 : BIOS.obj (.text:ti_sysbios_knl_Task_Instance_init__F)
                  c2267a00    000005c0     DDR2.obj (.text)
                  c2267fc0    000005a0     drivers.lib : spi.obj (.text)
                  c2268560    00000580                 : gpio.obj (.text)
                  c2268ae0    00000580                 : uart.obj (.text)
                  c2269060    00000560     lv_port_disp_c674x.obj (.text)
                  c22695c0    000004e0     LCD.obj (.text)
                  c2269aa0    000004e0     RTC.obj (.text)
                  c2269f80    000004e0     sysbios.ae674 : BIOS.obj (.text:ti_sysbios_timers_timer64_Timer_Module_startup__F)
                  c226a460    000004c0     drivers.lib : i2c.obj (.text)
                  c226a920    000004c0     rts6740_elf.lib : strtoll.c.obj (.text:strtoll)
                  c226ade0    00000440                     : strtoull.c.obj (.text:strtoull)
                  c226b220    00000420     sysbios.ae674 : BIOS.obj (.text:ti_sysbios_knl_Task_sleep__E)
                  c226b640    00000400     EEPROM.obj (.text)
                  c226ba40    00000400     LED.obj (.text)
                  c226be40    00000400     rts6740_elf.lib : _printfi.c.obj (.text:_pconv_g)
                  c226c240    000003e0     KEY.obj (.text)
                  c226c620    000003e0     PLL.obj (.text)
                  c226ca00    000003e0     lv_calendar_header_arrow.obj (.text)
                  c226cde0    000003c0     sysbios.ae674 : BIOS.obj (.text:ti_sysbios_family_c64p_Hwi_dispatchCore__I)
                  c226d1a0    000003c0                   : BIOS.obj (.text:ti_sysbios_heaps_HeapMem_Instance_init__F)
                  c226d560    000003c0                   : BIOS.obj (.text:ti_sysbios_timers_timer64_Timer_Instance_init__F)
                  c226d920    000003a0     rts6740_elf.lib : strtol.c.obj (.text:strtol)
                  c226dcc0    000003a0     sysbios.ae674 : BIOS.obj (.text:ti_sysbios_knl_Swi_run__I)
                  c226e060    00000380     UART1.obj (.text)
                  c226e3e0    00000380     lv_theme.obj (.text)
                  c226e760    00000360     sysbios.ae674 : BIOS.obj (.text:ti_sysbios_knl_Clock_Instance_init__F)
                  c226eac0    00000360                   : BIOS.obj (.text:ti_sysbios_knl_Swi_Instance_init__F)
                  c226ee20    00000360                   : BIOS.obj (.text:ti_sysbios_timers_timer64_Timer_deviceConfig__I)
                  c226f180    00000340     Local_pe674.oe674 (.text:xdc_runtime_System_printfExtend__I)
                  c226f4c0    00000320     sysbios.ae674 : BIOS.obj (.text:ti_sysbios_timers_timer64_Timer_initObj__I)
                  c226f7e0    00000300     EHRPWM.obj (.text)
                  c226fae0    00000300     lv_calendar_header_dropdown.obj (.text)
                  c226fde0    00000300     rts6740_elf.lib : strtoul.c.obj (.text:strtoul)
                  c22700e0    00000300     sysbios.ae674 : BIOS.obj (.text:ti_sysbios_knl_Semaphore_post__E)
                  c22703e0    00000300                   : BIOS.obj (.text:ti_sysbios_utils_Load_logLoads__I)
                  c22706e0    000002e0     rts6740_elf.lib : fputs.c.obj (.text:fputs)
                  c22709c0    000002e0     lv_spinner.obj (.text)
                  c2270ca0    000002c0     TempSensor.obj (.text)
                  c2270f60    000002c0     lv_win.obj (.text)
                  c2271220    000002a0     SATATest.obj (.text)
                  c22714c0    000002a0     rts6740_elf.lib : _printfi.c.obj (.text:_pconv_e)
                  c2271760    000002a0                     : _printfi.c.obj (.text:fcvt)
                  c2271a00    000002a0     sysbios.ae674 : BIOS.obj (.text:ti_sysbios_knl_Clock_workFunc__E)
                  c2271ca0    00000280     lv_font.obj (.text)
                  c2271f20    00000280     sysbios.ae674 : BIOS.obj (.text:ti_sysbios_knl_Task_schedule__I)
                  c22721a0    00000280                   : BIOS.obj (.text:ti_sysbios_knl_Task_startCore__E)
                  c2272420    00000280                   : BIOS.obj (.text:ti_sysbios_utils_Load_updateThreadContexts__E)
                  c22726a0    00000280     ti.targets.rts6000.ae674 : Error.oe674 (.text:xdc_runtime_Error_raiseX__F)
                  c2272920    00000260     rts6740_elf.lib : imath64.c.obj (.text:__c6xabi_divull)
                  c2272b80    00000260     lv_draw_rect.obj (.text)
                  c2272de0    00000260     sysbios.ae674 : BIOS.obj (.text:ti_sysbios_timers_timer64_Timer_start__E)
                  c2273040    00000260     ti.targets.rts6000.ae674 : Startup.oe674 (.text:xdc_runtime_Startup_startMods__I)
                  c22732a0    00000240     Exception.obj (.text)
                  c22734e0    00000240     lv_log.obj (.text)
                  c2273720    00000220     sysbios.ae674 : BIOS.obj (.text:ti_sysbios_timers_timer64_Timer_setPeriodMicroSecs__E)
                  c2273940    00000220                   : BIOS.obj (.text:ti_sysbios_utils_Load_updateLoads__E)
                  c2273b60    00000220     ti.targets.rts6000.ae674 : Core-mem.oe674 (.text:xdc_runtime_Core_createObject__I)
                  c2273d80    00000200     rts6740_elf.lib : _printfi.c.obj (.text:_ltostr)
                  c2273f80    00000200     sysbios.ae674 : c64p_Hwi_disp_always.obj (.text:_ti_sysbios_family_c64p_Hwi_dispatchAlways)
                  c2274180    00000200                   : BIOS.obj (.text:ti_sysbios_knl_Swi_post__E)
                  c2274380    00000200                   : BIOS.obj (.text:ti_sysbios_knl_Task_exit__E)
                  c2274580    00000200     ti.targets.rts6000.ae674 : Log.oe674 (.text:xdc_runtime_Log_doPrint__F)
                  c2274780    000001e0     Loader.lib : PRULoader.obj (.text)
                  c2274960    000001e0     sysbios.ae674 : BIOS.obj (.text:ti_sysbios_knl_Task_postInit__I)
                  c2274b40    000001e0                   : BIOS.obj (.text:ti_sysbios_knl_Task_unblockI__E)
                  c2274d20    000001c0     rts6740_elf.lib : imath40.c.obj (.text:__c6xabi_divul)
                  c2274ee0    000001c0                     : fputc.c.obj (.text:fputc)
                  c22750a0    000001c0                     : frexp.c.obj (.text:frexp)
                  c2275260    000001c0                     : ldexp.c.obj (.text:ldexp)
                  c2275420    000001c0     main.obj (.text)
                  c22755e0    000001c0     rts6740_elf.lib : setvbuf.c.obj (.text:setvbuf)
                  c22757a0    000001c0     sysbios.ae674 : BIOS.obj (.text:ti_sysbios_family_c64p_Hwi_Instance_finalize__F)
                  c2275960    000001c0                   : BIOS.obj (.text:ti_sysbios_family_c64p_Hwi_Module_startup__F)
                  c2275b20    000001c0                   : BIOS.obj (.text:ti_sysbios_family_c64p_Hwi_reconfig__E)
                  c2275ce0    000001c0                   : BIOS.obj (.text:ti_sysbios_knl_Semaphore_Instance_init__F)
                  c2275ea0    000001c0                   : BIOS.obj (.text:ti_sysbios_knl_Swi_Instance_finalize__F)
                  c2276060    000001c0                   : BIOS.obj (.text:ti_sysbios_utils_Load_idleFxn__E)
                  c2276220    000001c0     ti.targets.rts6000.ae674 : Text.oe674 (.text:xdc_runtime_Text_putSite__F)
                  c22763e0    000001a0     rts6740_elf.lib : hostrename.c.obj (.text:HOSTrename)
                  c2276580    000001a0     lv_port_indev_c674x.obj (.text)
                  c2276720    000001a0     sysbios.ae674 : BIOS.obj (.text:ti_sysbios_gates_GateMutex_enter__E)
                  c22768c0    000001a0                   : BIOS.obj (.text:ti_sysbios_timers_timer64_Timer_getFreq__E)
                  c2276a60    000001a0                   : BIOS.obj (.text:ti_sysbios_utils_Load_updateCurrentThreadTime__E)
                  c2276c00    00000180                   : BIOS.obj (.text:Timer_getNextAvailableTimerId)
                  c2276d80    00000180     lv_draw_line.obj (.text)
                  c2276f00    00000180     sysbios.ae674 : c64p_Exception_asm.obj (.text)
                  c2277080    00000180                   : BIOS.obj (.text:ti_sysbios_family_c64p_Exception_internalHandler__I)
                  c2277200    00000180                   : BIOS.obj (.text:ti_sysbios_knl_Task_blockI__E)
                  c2277380    00000180                   : BIOS.obj (.text:ti_sysbios_knl_Task_checkStacks__E)
                  c2277500    00000160     rts6740_elf.lib : sscanf.c.obj (.text:_chkmbc)
                  c2277660    00000160     cmdline.obj (.text)
                  c22777c0    00000160     lv_draw_sw.obj (.text)
                  c2277920    00000160     Exception.obj (.text:retain)
                  c2277a80    00000160     sysbios.ae674 : BIOS.obj (.text:ti_sysbios_knl_Swi_Module_startup__F)
                  c2277be0    00000160                   : BIOS.obj (.text:ti_sysbios_knl_Task_Module_startup__F)
                  c2277d40    00000160                   : BIOS.obj (.text:ti_sysbios_timers_timer64_Timer_initDevice__I)
                  c2277ea0    00000140     BUZZER.obj (.text)
                  c2277fe0    00000140     boot.ae674 : autoinit.oe674 (.text:_auto_init_elf)
                  c2278120    00000140     rts6740_elf.lib : _scanfi.c.obj (.text:_sproc_str)
                  c2278260    00000140                     : _scanfi.c.obj (.text:_sproc_wstr)
                  c22783a0    00000140     drivers.lib : psc.obj (.text)
                  c22784e0    00000140     lv_gc.obj (.text)
                  c2278620    00000140     lv_img_cache.obj (.text)
                  c2278760    00000140     sysbios.ae674 : BIOS.obj (.text:ti_sysbios_family_c64p_Exception_externalHandler__I)
                  c22788a0    00000140                   : BIOS.obj (.text:ti_sysbios_family_c64p_Hwi_Instance_init__F)
                  c22789e0    00000140     Local_pe674.oe674 (.text:ti_sysbios_utils_Load_hwiBeginHook__E)
                  c2278b20    00000140     ti.targets.rts6000.ae674 : Text.oe674 (.text:xdc_runtime_Text_putLab__F)
                  c2278c60    00000120     rts6740_elf.lib : _printfi.c.obj (.text:_pconv_f)
                  c2278d80    00000120                     : getdevice.c.obj (.text:getdevice)
                  c2278ea0    00000120     lv_async.obj (.text)
                  c2278fc0    00000120     sysbios.ae674 : BIOS.obj (.text:ti_sysbios_family_c64p_Cache_block__I)
                  c22790e0    00000120                   : BIOS.obj (.text:ti_sysbios_family_c64p_Exception_decodeMpfsr__I)
                  c2279200    00000120     ti.targets.rts6000.ae674 : Text.oe674 (.text:xdc_runtime_Text_putMod__F)
                  c2279320    00000100     Timer.obj (.text)
                  c2279420    00000100     rts6740_elf.lib : fclose.c.obj (.text:__TI_closefile)
                  c2279520    00000100                     : copy_decompress_rle.c.obj (.text:__TI_decompress_rle_core)
                  c2279620    00000100                     : _printfi.c.obj (.text:_mcpy)
                  c2279720    00000100                     : atoi.c.obj (.text:atoi)
                  c2279820    00000100                     : fseek.c.obj (.text:fseek)
                  c2279920    00000100     lv_hal_tick.obj (.text)
                  c2279a20    00000100     lv_utils.obj (.text)
                  c2279b20    00000100     sysbios.ae674 : BIOS.obj (.text:ti_sysbios_BIOS_rtsUnlock__I)
                  c2279c20    00000100                   : BIOS.obj (.text:ti_sysbios_family_c64p_EventCombiner_dispatch__F)
                  c2279d20    00000100                   : BIOS.obj (.text:ti_sysbios_family_c64p_Exception_Module_startup__F)
                  c2279e20    00000100                   : BIOS.obj (.text:ti_sysbios_knl_Clock_start__E)
                  c2279f20    00000100                   : BIOS.obj (.text:ti_sysbios_knl_Swi_restoreHwi__E)
                  c227a020    00000100     Local_pe674.oe674 (.text:ti_sysbios_timers_timer64_Timer_Object__create__S)
                  c227a120    00000100     sysbios.ae674 : BIOS.obj (.text:ti_sysbios_utils_Load_swiBeginHook__E)
                  c227a220    00000100                   : BIOS.obj (.text:ti_sysbios_utils_Load_taskCreateHook__E)
                  c227a320    00000100                   : BIOS.obj (.text:ti_sysbios_utils_Load_taskSwitchHook__E)
                  c227a420    00000100     ti.targets.rts6000.ae674 : Core-mem.oe674 (.text:xdc_runtime_Core_deleteObject__I)
                  c227a520    00000100                              : Startup.oe674 (.text:xdc_runtime_Startup_exec__F)
                  c227a620    00000100                              : Text.oe674 (.text:xdc_runtime_Text_visitRope2__I)
                  c227a720    000000e0     rts6740_elf.lib : hostlseek.c.obj (.text:HOSTlseek)
                  c227a800    000000e0                     : hostopen.c.obj (.text:HOSTopen)
                  c227a8e0    000000e0                     : hostwrite.c.obj (.text:HOSTwrite)
                  c227a9c0    000000e0                     : _ltoa.c.obj (.text:__TI_ltoa)
                  c227aaa0    000000e0                     : _io_perm.c.obj (.text:__TI_wrt_ok)
                  c227ab80    000000e0                     : divi.asm.obj (.text:__divi)
                  c227ac60    000000e0                     : close.c.obj (.text:close)
                  c227ad40    000000e0                     : exit.c.obj (.text:exit)
                  c227ae20    000000e0                     : memset.c.obj (.text:memset)
                  c227af00    000000e0                     : printf.c.obj (.text:printf)
                  c227afe0    000000e0     sysbios.ae674 : BIOS.obj (.text:ti_sysbios_family_c64p_Cache_Module_startup__F)
                  c227b0c0    000000e0     Local_pe674.oe674 (.text:ti_sysbios_family_c64p_Hwi_Object__create__S)
                  c227b1a0    000000e0     sysbios.ae674 : BIOS.obj (.text:ti_sysbios_family_c64p_Hwi_postInit__I)
                  c227b280    000000e0     Local_pe674.oe674 (.text:ti_sysbios_hal_Hwi_Object__create__S)
                  c227b360    000000e0     sysbios.ae674 : BIOS.obj (.text:ti_sysbios_heaps_HeapMem_getStats__E)
                  c227b440    000000e0                   : BIOS.obj (.text:ti_sysbios_knl_Clock_logTick__E)
                  c227b520    000000e0     Local_pe674.oe674 (.text:ti_sysbios_knl_Swi_Object__create__S)
                  c227b600    000000e0     sysbios.ae674 : BIOS.obj (.text:ti_sysbios_knl_Swi_postInit__I)
                  c227b6e0    000000e0                   : BIOS.obj (.text:ti_sysbios_knl_Swi_runLoop__I)
                  c227b7c0    000000e0                   : BIOS.obj (.text:ti_sysbios_knl_Swi_schedule__I)
                  c227b8a0    000000e0     Local_pe674.oe674 (.text:ti_sysbios_knl_Task_Object__create__S)
                  c227b980    000000e0     sysbios.ae674 : BIOS.obj (.text:ti_sysbios_timers_timer64_Timer_stop__E)
                  c227ba60    000000e0     ti.targets.rts6000.ae674 : Error.oe674 (.text:xdc_runtime_Error_print__F)
                  c227bb40    000000e0                              : LoggerSys.oe674 (.text:xdc_runtime_LoggerSys_write8__F)
                  c227bc20    000000e0                              : Memory.oe674 (.text:xdc_runtime_Memory_alloc__F)
                  c227bd00    000000c0     rts6740_elf.lib : hostread.c.obj (.text:HOSTread)
                  c227bdc0    000000c0                     : hostunlink.c.obj (.text:HOSTunlink)
                  c227be80    000000c0                     : dtor_list.c.obj (.text:_Z23__finalize_destructionsPP20a_needed_destructionPv)
                  c227bf40    000000c0                     : dtor_list.c.obj (.text:_ZN33_INTERNAL_11_dtor_list_c_14e673d611__TI_atexitEPFYvPvES0_S0_)
                  c227c000    000000c0                     : divu.asm.obj (.text:__divu)
                  c227c0c0    000000c0                     : remi.asm.obj (.text:__remi)
                  c227c180    000000c0     sysbios.ae674 : BIOS.obj (.text:getEmifCtrlAddr$6)
                  c227c240    000000c0                   : BIOS.obj (.text:ti_sysbios_family_c64p_Hwi_eventMap__E)
                  c227c300    000000c0                   : BIOS.obj (.text:ti_sysbios_family_c64p_Hwi_getStackInfo__E)
                  c227c3c0    000000c0                   : BIOS.obj (.text:ti_sysbios_knl_Task_allBlockedFunction__I)
                  c227c480    000000c0                   : BIOS.obj (.text:ti_sysbios_timers_timer64_Timer_Instance_finalize__F)
                  c227c540    000000c0                   : BIOS.obj (.text:ti_sysbios_utils_Load_addTask__E)
                  c227c600    000000c0                   : BIOS.obj (.text:ti_sysbios_utils_Load_hwiEndHook__E)
                  c227c6c0    000000c0                   : BIOS.obj (.text:ti_sysbios_utils_Load_logCPULoad__I)
                  c227c780    000000c0     ti.targets.rts6000.ae674 : System.oe674 (.text:xdc_runtime_System_formatNum__I)
                  c227c840    000000a0     rts6740_elf.lib : hostclose.c.obj (.text:HOSTclose)
                  c227c8e0    000000a0                     : fopen.c.obj (.text:__TI_cleanup)
                  c227c980    000000a0                     : fflush.c.obj (.text:__TI_doflush)
                  c227ca20    000000a0                     : remu.asm.obj (.text:__remu)
                  c227cac0    000000a0     boot.ae674 : boot.oe674 (.text:_c_int00)
                  c227cb60    000000a0     rts6740_elf.lib : _printfi.c.obj (.text:_ecpy)
                  c227cc00    000000a0     sysbios.ae674 : c64p_Hwi_asm.obj (.text:_ti_sysbios_family_c64p_Hwi_plug__E)
                  c227cca0    000000a0     rts6740_elf.lib : asctime.c.obj (.text:asctime)
                  c227cd40    000000a0                     : getdevice.c.obj (.text:finddevice)
                  c227cde0    000000a0     hal_timer_bios.ae674 : lltimer.oe674 (.text:llTimerTick)
                  c227ce80    000000a0     lv_btn.obj (.text)
                  c227cf20    000000a0     rts6740_elf.lib : memcpy64.asm.obj (.text:memcpy)
                  c227cfc0    000000a0     Local_pe674.oe674 (.text:realloc)
                  c227d060    000000a0     sysbios.ae674 : BIOS.obj (.text:ti_sysbios_family_c62_TaskSupport_start__E)
                  c227d100    000000a0                   : BIOS.obj (.text:ti_sysbios_family_c64p_Cache_all__I)
                  c227d1a0    000000a0                   : BIOS.obj (.text:ti_sysbios_family_c64p_Cache_marInit__I)
                  c227d240    000000a0                   : BIOS.obj (.text:ti_sysbios_family_c64p_Cache_setMar__E)
                  c227d2e0    000000a0                   : BIOS.obj (.text:ti_sysbios_family_c64p_primus_TimerSupport_enable__E)
                  c227d380    000000a0                   : BIOS.obj (.text:ti_sysbios_heaps_HeapMem_init__I)
                  c227d420    000000a0     Local_pe674.oe674 (.text:ti_sysbios_knl_Clock_Object__create__S)
                  c227d4c0    000000a0     sysbios.ae674 : BIOS.obj (.text:ti_sysbios_knl_Idle_run__E)
                  c227d560    000000a0     Local_pe674.oe674 (.text:ti_sysbios_knl_Semaphore_Object__create__S)
                  c227d600    000000a0     sysbios.ae674 : BIOS.obj (.text:ti_sysbios_timers_timer64_Timer_getPeriod__E)
                  c227d6a0    000000a0                   : BIOS.obj (.text:ti_sysbios_timers_timer64_Timer_startup__E)
                  c227d740    000000a0                   : BIOS.obj (.text:ti_sysbios_utils_Load_swiEndHook__E)
                  c227d7e0    000000a0                   : BIOS.obj (.text:ti_sysbios_utils_Load_taskDeleteHook__E)
                  c227d880    000000a0     ti.targets.rts6000.ae674 : Assert.oe674 (.text:xdc_runtime_Assert_raise__I)
                  c227d920    000000a0                              : SysMin.oe674 (.text:xdc_runtime_SysMin_abort__F)
                  c227d9c0    000000a0                              : SysMin.oe674 (.text:xdc_runtime_SysMin_flush__F)
                  c227da60    000000a0                              : SysMin.oe674 (.text:xdc_runtime_SysMin_putch__F)
                  c227db00    000000a0                              : Text.oe674 (.text:xdc_runtime_Text_xprintf__I)
                  c227dba0    00000080     SysMinProvide.obj (.text)
                  c227dc20    00000080     rts6740_elf.lib : trgmsg.c.obj (.text:__TI_readmsg)
                  c227dca0    00000080                     : llshift.c.obj (.text:__c6xabi_llshl)
                  c227dd20    00000080                     : snprintf.c.obj (.text:_outs)
                  c227dda0    00000080     sysbios.ae674 : c62_TaskSupport_asm.obj (.text:_ti_sysbios_family_c62_TaskSupport_swap__E)
                  c227de20    00000080     rts6740_elf.lib : snprintf.c.obj (.text:snprintf)
                  c227dea0    00000080                     : strcat.c.obj (.text:strcat)
                  c227df20    00000080     sysbios.ae674 : BIOS.obj (.text:ti_sysbios_family_c64p_Cache_setSize__E)
                  c227dfa0    00000080                   : BIOS.obj (.text:ti_sysbios_family_c64p_Cache_wait__E)
                  c227e020    00000080                   : BIOS.obj (.text:ti_sysbios_family_c64p_EventCombiner_Module_startup__F)
                  c227e0a0    00000080                   : BIOS.obj (.text:ti_sysbios_family_c64p_EventCombiner_disableEvent__F)
                  c227e120    00000080                   : BIOS.obj (.text:ti_sysbios_family_c64p_EventCombiner_enableEvent__F)
                  c227e1a0    00000080                   : BIOS.obj (.text:ti_sysbios_family_c64p_Exception_getLastStatus__E)
                  c227e220    00000080                   : BIOS.obj (.text:ti_sysbios_family_c64p_Hwi_getEventId__E)
                  c227e2a0    00000080     Local_pe674.oe674 (.text:ti_sysbios_gates_GateHwi_Object__create__S)
                  c227e320    00000080     Local_pe674.oe674 (.text:ti_sysbios_gates_GateMutex_Object__create__S)
                  c227e3a0    00000080     Local_pe674.oe674 (.text:ti_sysbios_heaps_HeapMem_Object__create__S)
                  c227e420    00000080     Local_pe674.oe674 (.text:ti_sysbios_knl_Queue_Object__create__S)
                  c227e4a0    00000080     sysbios.ae674 : BIOS.obj (.text:ti_sysbios_knl_Semaphore_pendTimeout__I)
                  c227e520    00000080                   : BIOS.obj (.text:ti_sysbios_knl_Swi_restore__E)
                  c227e5a0    00000080                   : BIOS.obj (.text:ti_sysbios_knl_Task_deleteTerminatedTasksFunc__I)
                  c227e620    00000080                   : BIOS.obj (.text:ti_sysbios_utils_Load_getGlobalHwiLoad__E)
                  c227e6a0    00000080                   : BIOS.obj (.text:ti_sysbios_utils_Load_getTaskLoad__E)
                  c227e720    00000080                   : BIOS.obj (.text:ti_sysbios_utils_Load_removeTask__E)
                  c227e7a0    00000080     rts6740_elf.lib : unlink.c.obj (.text:unlink)
                  c227e820    00000080     ti.targets.rts6000.ae674 : Core-label.oe674 (.text:xdc_runtime_Core_assignLabel__I)
                  c227e8a0    00000080                              : Core-params.oe674 (.text:xdc_runtime_Core_assignParams__I)
                  c227e920    00000080     Local_pe674.oe674 (.text:xdc_runtime_LoggerSys_Object__create__S)
                  c227e9a0    00000080     Local_pe674.oe674 (.text:xdc_runtime_LoggerSys_write8__E)
                  c227ea20    00000080     ti.targets.rts6000.ae674 : System.oe674 (.text:xdc_runtime_System_atexit__F)
                  c227eaa0    00000080                              : System.oe674 (.text:xdc_runtime_System_putchar__I)
                  c227eb20    00000080                              : System.oe674 (.text:xdc_runtime_System_rtsExit__I)
                  c227eba0    00000080                              : Text.oe674 (.text:xdc_runtime_Text_printVisFxn__I)
                  c227ec20    00000060     LEDNixie.obj (.text)
                  c227ec80    00000060     os.ae674 : task.oe674 (.text:NDK_hookCreate)
                  c227ece0    00000060     rts6740_elf.lib : trgmsg.c.obj (.text:__TI_writemsg)
                  c227ed40    00000060                     : llshift.c.obj (.text:__c6xabi_llshru)
                  c227eda0    00000060                     : imath64.c.obj (.text:__c6xabi_remull)
                  c227ee00    00000060                     : imath64.c.obj (.text:_subcull)
                  c227ee60    00000060     sysbios.ae674 : c64p_Hwi_asm_switch.obj (.text:_ti_sysbios_family_c64p_Hwi_switchAndDispatch__I)
                  c227eec0    00000060                   : c64p_Hwi_asm_switch.obj (.text:_ti_sysbios_family_xxx_Hwi_switchAndRunFunc)
                  c227ef20    00000060     rts6740_elf.lib : lseek.c.obj (.text:lseek)
                  c227ef80    00000060     Local_pe674.oe674 (.text:malloc)
                  c227efe0    00000060     rts6740_elf.lib : memccpy.c.obj (.text:memccpy)
                  c227f040    00000060                     : sprintf.c.obj (.text:sprintf)
                  c227f0a0    00000060                     : sscanf.c.obj (.text:sscanf)
                  c227f100    00000060                     : strcmp.c.obj (.text:strcmp)
                  c227f160    00000060                     : strcpy.c.obj (.text:strcpy)
                  c227f1c0    00000060                     : strncmp.c.obj (.text:strncmp)
                  c227f220    00000060                     : _scanfi.c.obj (.text:strrchr)
                  c227f280    00000060     Local_pe674.oe674 (.text:ti_ndk_config_Global_stackThread)
                  c227f2e0    00000060     sysbios.ae674 : BIOS.obj (.text:ti_sysbios_BIOS_errorRaiseHook__I)
                  c227f340    00000060     Local_pe674.oe674 (.text:ti_sysbios_BIOS_exitFunc__I)
                  c227f3a0    00000060     sysbios.ae674 : BIOS.obj (.text:ti_sysbios_BIOS_rtsLock__I)
                  c227f400    00000060                   : BIOS.obj (.text:ti_sysbios_family_c64p_EventCombiner_dispatchPlug__F)
                  c227f460    00000060                   : BIOS.obj (.text:ti_sysbios_family_c64p_EventCombiner_unused__F)
                  c227f4c0    00000060                   : BIOS.obj (.text:ti_sysbios_family_c64p_Exception_evtExpMaskEnable__E)
                  c227f520    00000060                   : BIOS.obj (.text:ti_sysbios_family_c64p_Exception_nmiHandler__I)
                  c227f580    00000060                   : BIOS.obj (.text:ti_sysbios_family_c64p_Hwi_disableIER__E)
                  c227f5e0    00000060                   : BIOS.obj (.text:ti_sysbios_family_c64p_Hwi_enableIER__E)
                  c227f640    00000060     Local_pe674.oe674 (.text:ti_sysbios_gates_GateHwi_Handle__label__S)
                  c227f6a0    00000060     Local_pe674.oe674 (.text:ti_sysbios_gates_GateMutex_Handle__label__S)
                  c227f700    00000060     sysbios.ae674 : BIOS.obj (.text:ti_sysbios_hal_Hwi_Instance_init__F)
                  c227f760    00000060                   : BIOS.obj (.text:ti_sysbios_hal_Hwi_checkStack:ti_sysbios_hal_Hwi_checkStack)
                  c227f7c0    00000060                   : BIOS.obj (.text:ti_sysbios_hal_Hwi_initStack:ti_sysbios_hal_Hwi_initStack)
                  c227f820    00000060     Local_pe674.oe674 (.text:ti_sysbios_heaps_HeapMem_Handle__label__S)
                  c227f880    00000060     Local_pe674.oe674 (.text:ti_sysbios_heaps_HeapMem_Object__get__S)
                  c227f8e0    00000060     sysbios.ae674 : BIOS.obj (.text:ti_sysbios_knl_Clock_addI__E)
                  c227f940    00000060     Local_pe674.oe674 (.text:ti_sysbios_knl_Clock_doTick__I)
                  c227f9a0    00000060     sysbios.ae674 : BIOS.obj (.text:ti_sysbios_knl_Queue_put__E)
                  c227fa00    00000060     Local_pe674.oe674 (.text:ti_sysbios_knl_Swi_Object__get__S)
                  c227fa60    00000060     sysbios.ae674 : BIOS.obj (.text:ti_sysbios_knl_Task_getMode__E)
                  c227fac0    00000060                   : BIOS.obj (.text:ti_sysbios_knl_Task_processVitalTaskFlag__I)
                  c227fb20    00000060                   : BIOS.obj (.text:ti_sysbios_knl_Task_restore__E)
                  c227fb80    00000060                   : BIOS.obj (.text:ti_sysbios_knl_Task_sleepTimeout__I)
                  c227fbe0    00000060                   : BIOS.obj (.text:ti_sysbios_utils_Load_getGlobalSwiLoad__E)
                  c227fc40    00000060     rts6740_elf.lib : write.c.obj (.text:write)
                  c227fca0    00000060     Local_pe674.oe674 (.text:xdc_runtime_Error_raiseX__E)
                  c227fd00    00000060     Local_pe674.oe674 (.text:xdc_runtime_LoggerSys_Handle__label__S)
                  c227fd60    00000060     ti.targets.rts6000.ae674 : LoggerSys.oe674 (.text:xdc_runtime_LoggerSys_write0__F)
                  c227fdc0    00000060                              : LoggerSys.oe674 (.text:xdc_runtime_LoggerSys_write1__F)
                  c227fe20    00000060     Local_pe674.oe674 (.text:xdc_runtime_LoggerSys_write4__E)
                  c227fe80    00000060     ti.targets.rts6000.ae674 : Memory.oe674 (.text:xdc_runtime_Memory_calloc__F)
                  c227fee0    00000060                              : SysMin.oe674 (.text:xdc_runtime_SysMin_Module_startup__F)
                  c227ff40    00000060                              : SysMin.oe674 (.text:xdc_runtime_SysMin_exit__F)
                  c227ffa0    00000060                              : System.oe674 (.text:xdc_runtime_System_avprintf__F)
                  c2280000    00000060                              : System.oe674 (.text:xdc_runtime_System_vprintf__F)
                  c2280060    00000060                              : Text.oe674 (.text:xdc_runtime_Text_cordText__F)
                  c22800c0    00000040     main.obj (.text:FunctionHook)
                  c2280100    00000040     os.ae674 : task.oe674 (.text:NDK_hookExit)
                  c2280140    00000040     rts6740_elf.lib : frcmpyd_div.c.obj (.text:__TI_frcmpyd_div)
                  c2280180    00000040                     : isinf.c.obj (.text:__c6xabi_isinf)
                  c22801c0    00000040                     : _printfi.c.obj (.text:__c6xabi_isnan)
                  c2280200    00000040                     : isnan.c.obj (.text:__c6xabi_isnan)
                  c2280240    00000040                     : args_main.c.obj (.text:_args_main)
                  c2280280    00000040                     : snprintf.c.obj (.text:_outc)
                  c22802c0    00000040                     : sprintf.c.obj (.text:_outs)
                  c2280300    00000040                     : vsprintf.c.obj (.text:_outs)
                  c2280340    00000040     sysbios.ae674 : c62_TaskSupport_asm.obj (.text:_ti_sysbios_family_c62_TaskSupport_buildTaskStack)
                  c2280380    00000040                   : c64p_Hwi_asm_switch.obj (.text:_ti_sysbios_family_xxx_Hwi_switchToIsrStack)
                  c22803c0    00000040                   : BIOS.obj (.text:emifRange$6)
                  c2280400    00000040     Local_pe674.oe674 (.text:free)
                  c2280440    00000040     lv_draw.obj (.text)
                  c2280480    00000040     lv_extra.obj (.text)
                  c22804c0    00000040     rts6740_elf.lib : strlen.c.obj (.text:strlen)
                  c2280500    00000040     sysbios.ae674 : BIOS.obj (.text:ti_sysbios_BIOS_exit__E)
                  c2280540    00000040                   : BIOS.obj (.text:ti_sysbios_BIOS_getCpuFreq__E)
                  c2280580    00000040                   : BIOS.obj (.text:ti_sysbios_BIOS_registerRTSLock__I)
                  c22805c0    00000040                   : BIOS.obj (.text:ti_sysbios_BIOS_removeRTSLock__I)
                  c2280600    00000040                   : BIOS.obj (.text:ti_sysbios_BIOS_setThreadType__E)
                  c2280640    00000040     Local_pe674.oe674 (.text:ti_sysbios_BIOS_startFunc__I)
                  c2280680    00000040     sysbios.ae674 : BIOS.obj (.text:ti_sysbios_family_c62_TaskSupport_checkStack__E)
                  c22806c0    00000040                   : BIOS.obj (.text:ti_sysbios_family_c64p_Cache_wbInv__E)
                  c2280700    00000040     Local_pe674.oe674 (.text:ti_sysbios_family_c64p_EventCombiner_dispatchPlug__E)
                  c2280740    00000040     sysbios.ae674 : BIOS.obj (.text:ti_sysbios_family_c64p_Exception_evtEvtClear__E)
                  c2280780    00000040     Local_pe674.oe674 (.text:ti_sysbios_family_c64p_Hwi_Module__startupDone__F)
                  c22807c0    00000040     Local_pe674.oe674 (.text:ti_sysbios_family_c64p_Hwi_Object__delete__S)
                  c2280800    00000040     Local_pe674.oe674 (.text:ti_sysbios_family_c64p_Hwi_Params__init__S)
                  c2280840    00000040     sysbios.ae674 : BIOS.obj (.text:ti_sysbios_family_c64p_Hwi_clearInterrupt__E)
                  c2280880    00000040                   : BIOS.obj (.text:ti_sysbios_family_c64p_Hwi_disableInterrupt__E)
                  c22808c0    00000040                   : BIOS.obj (.text:ti_sysbios_family_c64p_Hwi_dispatchC__I)
                  c2280900    00000040                   : BIOS.obj (.text:ti_sysbios_family_c64p_Hwi_enableInterrupt__E)
                  c2280940    00000040                   : BIOS.obj (.text:ti_sysbios_family_c64p_Hwi_getIsrStackAddress__I)
                  c2280980    00000040                   : BIOS.obj (.text:ti_sysbios_family_c64p_TimestampProvider_get64__E)
                  c22809c0    00000040     Local_pe674.oe674 (.text:ti_sysbios_gates_GateHwi_Object__delete__S)
                  c2280a00    00000040     sysbios.ae674 : BIOS.obj (.text:ti_sysbios_gates_GateHwi_enter__E)
                  c2280a40    00000040                   : BIOS.obj (.text:ti_sysbios_gates_GateMutex_Instance_State_sem$28)
                  c2280a80    00000040                   : BIOS.obj (.text:ti_sysbios_gates_GateMutex_Instance_finalize__F)
                  c2280ac0    00000040                   : BIOS.obj (.text:ti_sysbios_gates_GateMutex_Instance_init__F)
                  c2280b00    00000040     Local_pe674.oe674 (.text:ti_sysbios_gates_GateMutex_Object__delete__S)
                  c2280b40    00000040     sysbios.ae674 : BIOS.obj (.text:ti_sysbios_gates_GateMutex_leave__E)
                  c2280b80    00000040     Local_pe674.oe674 (.text:ti_sysbios_hal_Hwi_HwiProxy_Object__create__S)
                  c2280bc0    00000040     sysbios.ae674 : BIOS.obj (.text:ti_sysbios_hal_Hwi_HwiProxy_create$7)
                  c2280c00    00000040     Local_pe674.oe674 (.text:ti_sysbios_hal_Hwi_HwiProxy_getStackInfo__E)
                  c2280c40    00000040     sysbios.ae674 : BIOS.obj (.text:ti_sysbios_hal_Hwi_Instance_finalize__F)
                  c2280c80    00000040     Local_pe674.oe674 (.text:ti_sysbios_hal_Hwi_Object__delete__S)
                  c2280cc0    00000040     Local_pe674.oe674 (.text:ti_sysbios_hal_Hwi_Params__init__S)
                  c2280d00    00000040     sysbios.ae674 : BIOS.obj (.text:ti_sysbios_hal_Hwi_Params_copy$26)
                  c2280d40    00000040                   : BIOS.obj (.text:ti_sysbios_hal_Hwi_create$26)
                  c2280d80    00000040                   : BIOS.obj (.text:ti_sysbios_hal_Hwi_getStackInfo__E)
                  c2280dc0    00000040     Local_pe674.oe674 (.text:ti_sysbios_hal_Timer_Module__startupDone__F)
                  c2280e00    00000040     Local_pe674.oe674 (.text:ti_sysbios_heaps_HeapMem_Object__delete__S)
                  c2280e40    00000040     sysbios.ae674 : BIOS.obj (.text:ti_sysbios_heaps_HeapMem_restore__E)
                  c2280e80    00000040                   : BIOS.obj (.text:ti_sysbios_knl_Clock_Module_State_clockQ$14)
                  c2280ec0    00000040     Local_pe674.oe674 (.text:ti_sysbios_knl_Clock_Module_State_clockQ)
                  c2280f00    00000040     sysbios.ae674 : BIOS.obj (.text:ti_sysbios_knl_Clock_Module_startup__F)
                  c2280f40    00000040     Local_pe674.oe674 (.text:ti_sysbios_knl_Clock_Params__init__S)
                  c2280f80    00000040     Local_pe674.oe674 (.text:ti_sysbios_knl_Clock_create)
                  c2280fc0    00000040     sysbios.ae674 : BIOS.obj (.text:ti_sysbios_knl_Clock_startI__E)
                  c2281000    00000040     Local_pe674.oe674 (.text:ti_sysbios_knl_Queue_Object__destruct__S)
                  c2281040    00000040     Local_pe674.oe674 (.text:ti_sysbios_knl_Queue_Object__get__S)
                  c2281080    00000040     sysbios.ae674 : BIOS.obj (.text:ti_sysbios_knl_Queue_construct$19)
                  c22810c0    00000040                   : BIOS.obj (.text:ti_sysbios_knl_Queue_dequeue__E)
                  c2281100    00000040                   : BIOS.obj (.text:ti_sysbios_knl_Queue_empty__E)
                  c2281140    00000040                   : BIOS.obj (.text:ti_sysbios_knl_Queue_enqueue__E)
                  c2281180    00000040                   : BIOS.obj (.text:ti_sysbios_knl_Queue_remove__E)
                  c22811c0    00000040                   : BIOS.obj (.text:ti_sysbios_knl_Semaphore_Instance_State_pendQ$19)
                  c2281200    00000040                   : BIOS.obj (.text:ti_sysbios_knl_Semaphore_Instance_finalize__F)
                  c2281240    00000040     Local_pe674.oe674 (.text:ti_sysbios_knl_Semaphore_Object__destruct__S)
                  c2281280    00000040     Local_pe674.oe674 (.text:ti_sysbios_knl_Semaphore_Params__init__S)
                  c22812c0    00000040     sysbios.ae674 : BIOS.obj (.text:ti_sysbios_knl_Semaphore_construct$28)
                  c2281300    00000040     Local_pe674.oe674 (.text:ti_sysbios_knl_Swi_Params__init__S)
                  c2281340    00000040     sysbios.ae674 : BIOS.obj (.text:ti_sysbios_knl_Swi_disable__E)
                  c2281380    00000040                   : BIOS.obj (.text:ti_sysbios_knl_Task_Module_State_inactiveQ$22)
                  c22813c0    00000040                   : BIOS.obj (.text:ti_sysbios_knl_Task_Module_State_terminatedQ$22)
                  c2281400    00000040     Local_pe674.oe674 (.text:ti_sysbios_knl_Task_Object__delete__S)
                  c2281440    00000040     Local_pe674.oe674 (.text:ti_sysbios_knl_Task_Object__first__S)
                  c2281480    00000040     Local_pe674.oe674 (.text:ti_sysbios_knl_Task_Object__get__S)
                  c22814c0    00000040     Local_pe674.oe674 (.text:ti_sysbios_knl_Task_Object__next__S)
                  c2281500    00000040     Local_pe674.oe674 (.text:ti_sysbios_knl_Task_Params__init__S)
                  c2281540    00000040     sysbios.ae674 : BIOS.obj (.text:ti_sysbios_knl_Task_disable__E)
                  c2281580    00000040                   : BIOS.obj (.text:ti_sysbios_knl_Task_enabled__E)
                  c22815c0    00000040                   : BIOS.obj (.text:ti_sysbios_knl_Task_enter__I)
                  c2281600    00000040                   : BIOS.obj (.text:ti_sysbios_knl_Task_restoreHwi__E)
                  c2281640    00000040                   : BIOS.obj (.text:ti_sysbios_knl_Task_setHookContext__E)
                  c2281680    00000040                   : BIOS.obj (.text:ti_sysbios_knl_Task_unblock__E)
                  c22816c0    00000040     Local_pe674.oe674 (.text:ti_sysbios_timers_timer64_Timer_Module__startupDone__F)
                  c2281700    00000040     Local_pe674.oe674 (.text:ti_sysbios_timers_timer64_Timer_Params__init__S)
                  c2281740    00000040     sysbios.ae674 : BIOS.obj (.text:ti_sysbios_timers_timer64_Timer_checkOverflow__I)
                  c2281780    00000040                   : BIOS.obj (.text:ti_sysbios_timers_timer64_Timer_postInit__I)
                  c22817c0    00000040                   : BIOS.obj (.text:ti_sysbios_utils_Load_Module_State_taskList$24)
                  c2281800    00000040     rts6740_elf.lib : vsprintf.c.obj (.text:vsprintf)
                  c2281840    00000040                     : wcslen.c.obj (.text:wcslen)
                  c2281880    00000040     ti.targets.rts6000.ae674 : Error.oe674 (.text:xdc_runtime_Error_check__F)
                  c22818c0    00000040                              : Error.oe674 (.text:xdc_runtime_Error_init__F)
                  c2281900    00000040     Local_pe674.oe674 (.text:xdc_runtime_IHeap_alloc)
                  c2281940    00000040     Local_pe674.oe674 (.text:xdc_runtime_IHeap_free)
                  c2281980    00000040     Local_pe674.oe674 (.text:xdc_runtime_LoggerSys_Object__delete__S)
                  c22819c0    00000040     Local_pe674.oe674 (.text:xdc_runtime_LoggerSys_write0__E)
                  c2281a00    00000040     Local_pe674.oe674 (.text:xdc_runtime_LoggerSys_write1__E)
                  c2281a40    00000040     Local_pe674.oe674 (.text:xdc_runtime_LoggerSys_write2__E)
                  c2281a80    00000040     ti.targets.rts6000.ae674 : LoggerSys.oe674 (.text:xdc_runtime_LoggerSys_write2__F)
                  c2281ac0    00000040                              : LoggerSys.oe674 (.text:xdc_runtime_LoggerSys_write4__F)
                  c2281b00    00000040                              : Memory.oe674 (.text:xdc_runtime_Memory_free__F)
                  c2281b40    00000040                              : Registry.oe674 (.text:xdc_runtime_Registry_findById__F)
                  c2281b80    00000040     Local_pe674.oe674 (.text:xdc_runtime_Startup_exec__I)
                  c2281bc0    00000040     ti.targets.rts6000.ae674 : System.oe674 (.text:xdc_runtime_System_abort__F)
                  c2281c00    00000040     Local_pe674.oe674 (.text:xdc_runtime_System_aprintf__E)
                  c2281c40    00000040     Local_pe674.oe674 (.text:xdc_runtime_System_printf__E)
                  c2281c80    00000040     ti.targets.rts6000.ae674 : System.oe674 (.text:xdc_runtime_System_putch__F)
                  c2281cc0    00000040     Local_pe674.oe674 (.text:xdc_runtime_Text_putMod__E)
                  c2281d00    00000040     ti.targets.rts6000.ae674 : Text.oe674 (.text:xdc_runtime_Text_ropeText__F)
                  c2281d40    00000040     Local_pe674.oe674 (.text:xdc_runtime_Text_visitRope__I)
                  c2281d80    00000020     hal_userled_stub.ae674 : llled.oe674 (.text:LED_TOGGLE)
                  c2281da0    00000020     os.ae674 : task.oe674 (.text:NDK_hookInit)
                  c2281dc0    00000020              : semaphore.oe674 (.text:SemPost)
                  c2281de0    00000020     rts6740_elf.lib : errno.c.obj (.text:__c6xabi_errno_addr)
                  c2281e00    00000020                     : dtor_list.c.obj (.text:__cxa_ia64_exit)
                  c2281e20    00000020                     : push.asm.obj (.text:__pop_rts)
                  c2281e40    00000020                     : push.asm.obj (.text:__push_rts)
                  c2281e60    00000020                     : sscanf.c.obj (.text:_inpchar)
                  c2281e80    00000020                     : _lock.c.obj (.text:_nop)
                  c2281ea0    00000020                     : printf.c.obj (.text:_outc)
                  c2281ec0    00000020                     : sprintf.c.obj (.text:_outc)
                  c2281ee0    00000020                     : vsprintf.c.obj (.text:_outc)
                  c2281f00    00000020                     : printf.c.obj (.text:_outs)
                  c2281f20    00000020                     : _lock.c.obj (.text:_register_lock)
                  c2281f40    00000020                     : _lock.c.obj (.text:_register_unlock)
                  c2281f60    00000020                     : signbit.c.obj (.text:_signbit)
                  c2281f80    00000020     sysbios.ae674 : c62_TaskSupport_asm.obj (.text:_ti_sysbios_family_c62_TaskSupport_glue)
                  c2281fa0    00000020                   : c64p_Hwi_asm_switch.obj (.text:_ti_sysbios_family_xxx_Hwi_switchToTaskStack)
                  c2281fc0    00000020     rts6740_elf.lib : sscanf.c.obj (.text:_uninpchar)
                  c2281fe0    00000020                     : exit.c.obj (.text:abort)
                  c2282000    00000020                     : dtor_list.c.obj (.text:atexit)
                  c2282020    00000020                     : copy_decompress_none.c.obj (.text:decompress:none:__TI_decompress_none)
                  c2282040    00000020                     : copy_decompress_rle.c.obj (.text:decompress:rle24:__TI_decompress_rle24)
                  c2282060    00000020     Local_pe674.oe674 (.text:ti_ndk_config_global_taskCreateHook)
                  c2282080    00000020     Local_pe674.oe674 (.text:ti_ndk_config_global_taskExitHook)
                  c22820a0    00000020     Local_pe674.oe674 (.text:ti_sysbios_BIOS_RtsGateProxy_enter__E)
                  c22820c0    00000020     Local_pe674.oe674 (.text:ti_sysbios_BIOS_RtsGateProxy_leave__E)
                  c22820e0    00000020     sysbios.ae674 : BIOS.obj (.text:ti_sysbios_BIOS_getThreadType__E)
                  c2282100    00000020                   : BIOS.obj (.text:ti_sysbios_BIOS_nullFunc__I)
                  c2282120    00000020                   : BIOS.obj (.text:ti_sysbios_BIOS_start__E)
                  c2282140    00000020     Local_pe674.oe674 (.text:ti_sysbios_family_c62_TaskSupport_Module__startupDone__S)
                  c2282160    00000020     sysbios.ae674 : BIOS.obj (.text:ti_sysbios_family_c62_TaskSupport_getStackAlignment__E)
                  c2282180    00000020     Local_pe674.oe674 (.text:ti_sysbios_family_c64p_Cache_Module_startup__E)
                  c22821a0    00000020     sysbios.ae674 : BIOS.obj (.text:ti_sysbios_family_c64p_Cache_invL1pAll__E)
                  c22821c0    00000020                   : BIOS.obj (.text:ti_sysbios_family_c64p_Cache_wbInvAll__E)
                  c22821e0    00000020     Local_pe674.oe674 (.text:ti_sysbios_family_c64p_EventCombiner_Module_startup__E)
                  c2282200    00000020     Local_pe674.oe674 (.text:ti_sysbios_family_c64p_EventCombiner_disableEvent__E)
                  c2282220    00000020     Local_pe674.oe674 (.text:ti_sysbios_family_c64p_EventCombiner_dispatch__E)
                  c2282240    00000020     Local_pe674.oe674 (.text:ti_sysbios_family_c64p_EventCombiner_unused__E)
                  c2282260    00000020     Local_pe674.oe674 (.text:ti_sysbios_family_c64p_Exception_Module_startup__E)
                  c2282280    00000020     Local_pe674.oe674 (.text:ti_sysbios_family_c64p_Hwi_Module__startupDone__S)
                  c22822a0    00000020     Local_pe674.oe674 (.text:ti_sysbios_family_c64p_Hwi_Module_startup__E)
                  c22822c0    00000020     sysbios.ae674 : BIOS.obj (.text:ti_sysbios_family_c64p_Hwi_startup__E)
                  c22822e0    00000020                   : BIOS.obj (.text:ti_sysbios_family_c64p_Hwi_switchFromBootStack__E)
                  c2282300    00000020                   : BIOS.obj (.text:ti_sysbios_family_c64p_Hwi_unPluggedInterrupt__I)
                  c2282320    00000020     Local_pe674.oe674 (.text:ti_sysbios_family_c64p_TimestampProvider_Module_startup__E)
                  c2282340    00000020     sysbios.ae674 : BIOS.obj (.text:ti_sysbios_family_c64p_TimestampProvider_Module_startup__F)
                  c2282360    00000020                   : BIOS.obj (.text:ti_sysbios_family_c64p_TimestampProvider_get32__E)
                  c2282380    00000020                   : BIOS.obj (.text:ti_sysbios_family_c64p_TimestampProvider_getFreq__E)
                  c22823a0    00000020                   : BIOS.obj (.text:ti_sysbios_gates_GateHwi_Instance_init__F)
                  c22823c0    00000020                   : BIOS.obj (.text:ti_sysbios_gates_GateHwi_leave__E)
                  c22823e0    00000020     Local_pe674.oe674 (.text:ti_sysbios_gates_GateHwi_query__E)
                  c2282400    00000020     sysbios.ae674 : BIOS.obj (.text:ti_sysbios_gates_GateHwi_query__F)
                  c2282420    00000020     Local_pe674.oe674 (.text:ti_sysbios_gates_GateMutex_query__E)
                  c2282440    00000020     sysbios.ae674 : BIOS.obj (.text:ti_sysbios_gates_GateMutex_query__F)
                  c2282460    00000020     Local_pe674.oe674 (.text:ti_sysbios_hal_Hwi_HwiProxy_Module__startupDone__S)
                  c2282480    00000020     Local_pe674.oe674 (.text:ti_sysbios_hal_Hwi_HwiProxy_Object__delete__S)
                  c22824a0    00000020     Local_pe674.oe674 (.text:ti_sysbios_hal_Hwi_HwiProxy_clearInterrupt__E)
                  c22824c0    00000020     sysbios.ae674 : BIOS.obj (.text:ti_sysbios_hal_Hwi_HwiProxy_delete$7)
                  c22824e0    00000020     Local_pe674.oe674 (.text:ti_sysbios_hal_Hwi_HwiProxy_disableInterrupt__E)
                  c2282500    00000020     Local_pe674.oe674 (.text:ti_sysbios_hal_Hwi_HwiProxy_enableInterrupt__E)
                  c2282520    00000020     Local_pe674.oe674 (.text:ti_sysbios_hal_Hwi_HwiProxy_startup__E)
                  c2282540    00000020     Local_pe674.oe674 (.text:ti_sysbios_hal_Hwi_HwiProxy_switchFromBootStack__E)
                  c2282560    00000020     Local_pe674.oe674 (.text:ti_sysbios_hal_Hwi_Module_startup__E)
                  c2282580    00000020     sysbios.ae674 : BIOS.obj (.text:ti_sysbios_hal_Hwi_Module_startup__F)
                  c22825a0    00000020                   : BIOS.obj (.text:ti_sysbios_hal_Hwi_Params_init$26)
                  c22825c0    00000020                   : BIOS.obj (.text:ti_sysbios_hal_Hwi_clearInterrupt__E)
                  c22825e0    00000020                   : BIOS.obj (.text:ti_sysbios_hal_Hwi_delete$26)
                  c2282600    00000020                   : BIOS.obj (.text:ti_sysbios_hal_Hwi_disableInterrupt__E)
                  c2282620    00000020                   : BIOS.obj (.text:ti_sysbios_hal_Hwi_enableInterrupt__E)
                  c2282640    00000020                   : BIOS.obj (.text:ti_sysbios_hal_Hwi_startup__E)
                  c2282660    00000020                   : BIOS.obj (.text:ti_sysbios_hal_Hwi_switchFromBootStack__E)
                  c2282680    00000020     Local_pe674.oe674 (.text:ti_sysbios_hal_Timer_Module__startupDone__S)
                  c22826a0    00000020     Local_pe674.oe674 (.text:ti_sysbios_hal_Timer_Module_startup__E)
                  c22826c0    00000020     sysbios.ae674 : BIOS.obj (.text:ti_sysbios_hal_Timer_Module_startup__F)
                  c22826e0    00000020     Local_pe674.oe674 (.text:ti_sysbios_hal_Timer_TimerProxy_Module__startupDone__S)
                  c2282700    00000020     Local_pe674.oe674 (.text:ti_sysbios_hal_Timer_TimerProxy_getPeriod__E)
                  c2282720    00000020     Local_pe674.oe674 (.text:ti_sysbios_hal_Timer_TimerProxy_startup__E)
                  c2282740    00000020     sysbios.ae674 : BIOS.obj (.text:ti_sysbios_hal_Timer_getPeriod__E)
                  c2282760    00000020                   : BIOS.obj (.text:ti_sysbios_hal_Timer_startup__E)
                  c2282780    00000020     Local_pe674.oe674 (.text:ti_sysbios_heaps_HeapMem_Module_GateProxy_enter__E)
                  c22827a0    00000020     Local_pe674.oe674 (.text:ti_sysbios_heaps_HeapMem_Module_GateProxy_leave__E)
                  c22827c0    00000020     Local_pe674.oe674 (.text:ti_sysbios_heaps_HeapMem_Module_GateProxy_query__E)
                  c22827e0    00000020     sysbios.ae674 : BIOS.obj (.text:ti_sysbios_heaps_HeapMem_Object_get$23)
                  c2282800    00000020                   : BIOS.obj (.text:ti_sysbios_heaps_HeapMem_isBlocking__E)
                  c2282820    00000020     Local_pe674.oe674 (.text:ti_sysbios_knl_Clock_Module_startup__E)
                  c2282840    00000020     Local_pe674.oe674 (.text:ti_sysbios_knl_Clock_Params_init)
                  c2282860    00000020     sysbios.ae674 : BIOS.obj (.text:ti_sysbios_knl_Clock_getTicks__E)
                  c2282880    00000020                   : BIOS.obj (.text:ti_sysbios_knl_Clock_handle$19)
                  c22828a0    00000020                   : BIOS.obj (.text:ti_sysbios_knl_Clock_handle$22)
                  c22828c0    00000020                   : BIOS.obj (.text:ti_sysbios_knl_Clock_removeI__E)
                  c22828e0    00000020                   : BIOS.obj (.text:ti_sysbios_knl_Idle_loop__E)
                  c2282900    00000020                   : BIOS.obj (.text:ti_sysbios_knl_Queue_Instance_init__F)
                  c2282920    00000020                   : BIOS.obj (.text:ti_sysbios_knl_Queue_Object_get$20)
                  c2282940    00000020                   : BIOS.obj (.text:ti_sysbios_knl_Queue_Object_get$22)
                  c2282960    00000020                   : BIOS.obj (.text:ti_sysbios_knl_Queue_destruct$19)
                  c2282980    00000020                   : BIOS.obj (.text:ti_sysbios_knl_Queue_elemClear__E)
                  c22829a0    00000020                   : BIOS.obj (.text:ti_sysbios_knl_Queue_head__E)
                  c22829c0    00000020                   : BIOS.obj (.text:ti_sysbios_knl_Queue_insert__E)
                  c22829e0    00000020                   : BIOS.obj (.text:ti_sysbios_knl_Queue_next__E)
                  c2282a00    00000020                   : BIOS.obj (.text:ti_sysbios_knl_Queue_struct$19)
                  c2282a20    00000020                   : BIOS.obj (.text:ti_sysbios_knl_Semaphore_destruct$28)
                  c2282a40    00000020                   : BIOS.obj (.text:ti_sysbios_knl_Semaphore_struct$28)
                  c2282a60    00000020     Local_pe674.oe674 (.text:ti_sysbios_knl_Swi_Module_startup__E)
                  c2282a80    00000020     sysbios.ae674 : BIOS.obj (.text:ti_sysbios_knl_Swi_Object_get$20)
                  c2282aa0    00000020                   : BIOS.obj (.text:ti_sysbios_knl_Swi_enabled__E)
                  c2282ac0    00000020                   : BIOS.obj (.text:ti_sysbios_knl_Swi_startup__E)
                  c2282ae0    00000020     Local_pe674.oe674 (.text:ti_sysbios_knl_Task_Module_startup__E)
                  c2282b00    00000020     sysbios.ae674 : BIOS.obj (.text:ti_sysbios_knl_Task_Object_first$22)
                  c2282b20    00000020                   : BIOS.obj (.text:ti_sysbios_knl_Task_Object_get$22)
                  c2282b40    00000020                   : BIOS.obj (.text:ti_sysbios_knl_Task_Object_next$22)
                  c2282b60    00000020     Local_pe674.oe674 (.text:ti_sysbios_knl_Task_SupportProxy_Module__startupDone__S)
                  c2282b80    00000020     Local_pe674.oe674 (.text:ti_sysbios_knl_Task_SupportProxy_checkStack__E)
                  c2282ba0    00000020     Local_pe674.oe674 (.text:ti_sysbios_knl_Task_SupportProxy_getStackAlignment__E)
                  c2282bc0    00000020     Local_pe674.oe674 (.text:ti_sysbios_knl_Task_SupportProxy_start__E)
                  c2282be0    00000020     Local_pe674.oe674 (.text:ti_sysbios_knl_Task_SupportProxy_swap__E)
                  c2282c00    00000020     sysbios.ae674 : BIOS.obj (.text:ti_sysbios_knl_Task_delete$22)
                  c2282c20    00000020                   : BIOS.obj (.text:ti_sysbios_knl_Task_getHookContext__E)
                  c2282c40    00000020                   : BIOS.obj (.text:ti_sysbios_knl_Task_getIdleTask__E)
                  c2282c60    00000020                   : BIOS.obj (.text:ti_sysbios_knl_Task_getPri__E)
                  c2282c80    00000020                   : BIOS.obj (.text:ti_sysbios_knl_Task_handle$22)
                  c2282ca0    00000020                   : BIOS.obj (.text:ti_sysbios_knl_Task_self__E)
                  c2282cc0    00000020                   : BIOS.obj (.text:ti_sysbios_knl_Task_startup__E)
                  c2282ce0    00000020     Local_pe674.oe674 (.text:ti_sysbios_timers_timer64_Timer_Module__startupDone__S)
                  c2282d00    00000020     Local_pe674.oe674 (.text:ti_sysbios_timers_timer64_Timer_Module_startup__E)
                  c2282d20    00000020     Local_pe674.oe674 (.text:ti_sysbios_timers_timer64_Timer_TimerSupportProxy_enable__E)
                  c2282d40    00000020     sysbios.ae674 : BIOS.obj (.text:ti_sysbios_utils_Load_getCPULoad__E)
                  c2282d60    00000020                   : BIOS.obj (.text:ti_sysbios_utils_Load_taskRegHook__E)
                  c2282d80    00000020     Local_pe674.oe674 (.text:ti_sysbios_utils_Load_update__E)
                  c2282da0    00000020     rts6740_elf.lib : tolower.c.obj (.text:tolower)
                  c2282dc0    00000020     Local_pe674.oe674 (.text:xdc_iargToPtr)
                  c2282de0    00000020     Local_pe674.oe674 (.text:xdc_runtime_Error_check__E)
                  c2282e00    00000020     Local_pe674.oe674 (.text:xdc_runtime_Error_init__E)
                  c2282e20    00000020     Local_pe674.oe674 (.text:xdc_runtime_Error_print__E)
                  c2282e40    00000020     Local_pe674.oe674 (.text:xdc_runtime_Gate_enterSystem__E)
                  c2282e60    00000020     ti.targets.rts6000.ae674 : Gate.oe674 (.text:xdc_runtime_Gate_enterSystem__F)
                  c2282e80    00000020     Local_pe674.oe674 (.text:xdc_runtime_Gate_leaveSystem__E)
                  c2282ea0    00000020     ti.targets.rts6000.ae674 : Gate.oe674 (.text:xdc_runtime_Gate_leaveSystem__F)
                  c2282ec0    00000020     Local_pe674.oe674 (.text:xdc_runtime_Log_doPrint__E)
                  c2282ee0    00000020     ti.targets.rts6000.ae674 : LoggerSys.oe674 (.text:xdc_runtime_LoggerSys_Instance_init__F)
                  c2282f00    00000020     Local_pe674.oe674 (.text:xdc_runtime_LoggerSys_TimestampProxy_get64__E)
                  c2282f20    00000020     Local_pe674.oe674 (.text:xdc_runtime_LoggerSys_disable__E)
                  c2282f40    00000020     ti.targets.rts6000.ae674 : LoggerSys.oe674 (.text:xdc_runtime_LoggerSys_disable__F)
                  c2282f60    00000020     Local_pe674.oe674 (.text:xdc_runtime_LoggerSys_enable__E)
                  c2282f80    00000020     ti.targets.rts6000.ae674 : LoggerSys.oe674 (.text:xdc_runtime_LoggerSys_enable__F)
                  c2282fa0    00000020     Local_pe674.oe674 (.text:xdc_runtime_Memory_HeapProxy_alloc__E)
                  c2282fc0    00000020     Local_pe674.oe674 (.text:xdc_runtime_Memory_HeapProxy_free__E)
                  c2282fe0    00000020     Local_pe674.oe674 (.text:xdc_runtime_Memory_alloc__E)
                  c2283000    00000020     Local_pe674.oe674 (.text:xdc_runtime_Memory_calloc__E)
                  c2283020    00000020     Local_pe674.oe674 (.text:xdc_runtime_Memory_free__E)
                  c2283040    00000020     Local_pe674.oe674 (.text:xdc_runtime_Registry_findById__E)
                  c2283060    00000020     Local_pe674.oe674 (.text:xdc_runtime_Startup_exec__E)
                  c2283080    00000020     Local_pe674.oe674 (.text:xdc_runtime_Startup_reset__I)
                  c22830a0    00000020     Local_pe674.oe674 (.text:xdc_runtime_SysMin_Module_startup__E)
                  c22830c0    00000020     Local_pe674.oe674 (.text:xdc_runtime_SysMin_abort__E)
                  c22830e0    00000020     Local_pe674.oe674 (.text:xdc_runtime_SysMin_exit__E)
                  c2283100    00000020     Local_pe674.oe674 (.text:xdc_runtime_SysMin_output__I)
                  c2283120    00000020     Local_pe674.oe674 (.text:xdc_runtime_SysMin_putch__E)
                  c2283140    00000020     Local_pe674.oe674 (.text:xdc_runtime_SysMin_ready__E)
                  c2283160    00000020     ti.targets.rts6000.ae674 : SysMin.oe674 (.text:xdc_runtime_SysMin_ready__F)
                  c2283180    00000020     Local_pe674.oe674 (.text:xdc_runtime_System_Module_GateProxy_enter__E)
                  c22831a0    00000020     Local_pe674.oe674 (.text:xdc_runtime_System_Module_GateProxy_leave__E)
                  c22831c0    00000020     Local_pe674.oe674 (.text:xdc_runtime_System_Module_startup__E)
                  c22831e0    00000020     ti.targets.rts6000.ae674 : System.oe674 (.text:xdc_runtime_System_Module_startup__F)
                  c2283200    00000020     Local_pe674.oe674 (.text:xdc_runtime_System_SupportProxy_abort__E)
                  c2283220    00000020     Local_pe674.oe674 (.text:xdc_runtime_System_SupportProxy_exit__E)
                  c2283240    00000020     Local_pe674.oe674 (.text:xdc_runtime_System_SupportProxy_putch__E)
                  c2283260    00000020     Local_pe674.oe674 (.text:xdc_runtime_System_SupportProxy_ready__E)
                  c2283280    00000020     Local_pe674.oe674 (.text:xdc_runtime_System_abort__E)
                  c22832a0    00000020     Local_pe674.oe674 (.text:xdc_runtime_System_atexit__E)
                  c22832c0    00000020     Local_pe674.oe674 (.text:xdc_runtime_System_exit__E)
                  c22832e0    00000020     ti.targets.rts6000.ae674 : System.oe674 (.text:xdc_runtime_System_exit__F)
                  c2283300    00000020                              : System.oe674 (.text:xdc_runtime_System_lastFxn__I)
                  c2283320    00000020     Local_pe674.oe674 (.text:xdc_runtime_System_putch__E)
                  c2283340    00000020     Local_pe674.oe674 (.text:xdc_runtime_System_vsnprintf__E)
                  c2283360    00000020     ti.targets.rts6000.ae674 : System.oe674 (.text:xdc_runtime_System_vsnprintf__F)
                  c2283380    00000020     Local_pe674.oe674 (.text:xdc_runtime_Text_cordText__E)
                  c22833a0    00000020     Local_pe674.oe674 (.text:xdc_runtime_Text_putLab__E)
                  c22833c0    00000020     Local_pe674.oe674 (.text:xdc_runtime_Text_putSite__E)
                  c22833e0    00000020     Local_pe674.oe674 (.text:xdc_runtime_Text_ropeText__E)
                  c2283400    00000020     Local_pe674.oe674 (.text:xdc_runtime_Timestamp_SupportProxy_get32__E)
                  c2283420    00000020     Local_pe674.oe674 (.text:xdc_runtime_Timestamp_SupportProxy_getFreq__E)
                  c2283440    00000020     Local_pe674.oe674 (.text:xdc_runtime_Timestamp_get32__E)
                  c2283460    00000020     Local_pe674.oe674 (.text:xdc_runtime_Timestamp_getFreq__E)

.const     0    c2283480    00036162     
                  c2283480    00012451     lv_font_source_han_sans_bold_14.obj (.const:.string:glyph_bitmap)
                  c22958d1    00000001     --HOLE-- [fill = 0]
                  c22958d2    00000004     lv_obj_scroll.obj (.const:$P$T0$1)
                  c22958d6    00000002     Local_pe674.oe674 (.const:ti_sysbios_BIOS_Module__id__C)
                  c22958d8    0000e070     lv_font_source_han_sans_bold_14.obj (.const:glyph_dsc)
                  c22a3948    000080bf     zh_cn_pinyin_dict.obj (.const:.string)
                  c22aba07    00000001     --HOLE-- [fill = 0]
                  c22aba08    00002280     lv_font_montserrat_14.obj (.const:.string:glyph_bitmap)
                  c22adc88    0000171e     lv_font_source_han_sans_bold_14.obj (.const:unicode_list_1)
                  c22af3a6    00000002     Local_pe674.oe674 (.const:ti_sysbios_family_c64p_EventCombiner_Module__id__C)
                  c22af3a8    00001709     Local_pe674.oe674 (.const:xdc_runtime_Text_charTab__A)
                  c22b0ab1    00000001     --HOLE-- [fill = 0]
                  c22b0ab2    00000004     lv_obj_scroll.obj (.const:$P$T1$2)
                  c22b0ab6    00000002     Local_pe674.oe674 (.const:ti_sysbios_family_c64p_Exception_Module__id__C)
                  c22b0ab8    00000dc4     lv_font_source_han_sans_bold_14.obj (.const:kern_pair_glyph_ids)
                  c22b187c    00000004     lv_obj_pos.obj (.const:$P$T10$4)
                  c22b1880    00000bad     lv_font_montserrat_14.obj (.const:.string:kern_class_values)
                  c22b242d    00000001     --HOLE-- [fill = 0]
                  c22b242e    00000002     Local_pe674.oe674 (.const:ti_sysbios_family_c64p_Exception_useInternalBuffer__C)
                  c22b2430    000009e0     lv_font_montserrat_14.obj (.const:glyph_dsc)
                  c22b2e10    0000092c     lv_tlsf.obj (.const:.string)
                  c22b373c    00000004     lv_obj_pos.obj (.const:$P$T9$3)
                  c22b3740    000006ac     LEDNixie.obj (.const:.string:PRU_Code)
                  c22b3dec    00000588     sysbios.ae674 : BIOS.obj (.const:.string)
                  c22b4374    00000004     SysMinProvide.obj (.const:.string)
                  c22b4378    0000040e     lv_font_source_han_sans_bold_14.obj (.const:unicode_list_3)
                  c22b4786    00000002     Local_pe674.oe674 (.const:ti_sysbios_family_c64p_Hwi_Module__id__C)
                  c22b4788    00000371     lv_font_source_han_sans_bold_14.obj (.const:.string:kern_pair_values)
                  c22b4af9    00000001     --HOLE-- [fill = 0]
                  c22b4afa    00000002     Local_pe674.oe674 (.const:ti_sysbios_family_c64p_Hwi_Module__loggerDefined__C)
                  c22b4afc    00000368     Exception.obj (.const:.string)
                  c22b4e64    00000350     Command.obj (.const:.string)
                  c22b51b4    0000028c     lv_calendar_header_dropdown.obj (.const:.string)
                  c22b5440    000001a8     DDR2.obj (.const:.string)
                  c22b55e8    00000184     lv_mem.obj (.const:.string)
                  c22b576c    00000110     Flash.obj (.const:.string)
                  c22b587c    00000004     lv_draw_label.obj (.const:.string)
                  c22b5880    00000101     rts6740_elf.lib : ctype.c.obj (.const:.string:_ctypes_)
                  c22b5981    00000001     --HOLE-- [fill = 0]
                  c22b5982    00000002     Local_pe674.oe674 (.const:ti_sysbios_gates_GateMutex_Module__id__C)
                  c22b5984    00000004     lv_menu.obj (.const:.string)
                  c22b5988    00000100     lv_draw_sw_letter.obj (.const:.string:_lv_bpp8_opa_table)
                  c22b5a88    000000f0     EEPROM.obj (.const:.string)
                  c22b5b78    000000f0     Local_pe674.oe674 (.const:xdc_runtime_Text_nodeTab__A)
                  c22b5c68    000000ec     lv_chart.obj (.const:.string)
                  c22b5d54    000000ec     lv_table.obj (.const:.string)
                  c22b5e40    000000ec     lv_textarea.obj (.const:.string)
                  c22b5f2c    000000e8     lv_img_decoder.obj (.const:.string)
                  c22b6014    000000e8     lv_keyboard.obj (.const:.string)
                  c22b60fc    000000e4     lv_draw_mask.obj (.const:.string)
                  c22b61e0    000000dc     lv_hal_disp.obj (.const:.string)
                  c22b62bc    000000d0     lv_label.obj (.const:.string)
                  c22b638c    000000d0     lv_refr.obj (.const:.string)
                  c22b645c    000000cc     lv_obj.obj (.const:.string)
                  c22b6528    000000c8     lv_dropdown.obj (.const:.string)
                  c22b65f0    000000be     lv_color.obj (.const:colors$2)
                  c22b66ae    00000002     Local_pe674.oe674 (.const:ti_sysbios_hal_Hwi_Module__id__C)
                  c22b66b0    000000b6     lv_math.obj (.const:sin0_90_table)
                  c22b6766    00000002     Local_pe674.oe674 (.const:ti_sysbios_heaps_HeapMem_Module__id__C)
                  c22b6768    000000b0     lv_hal_indev.obj (.const:.string)
                  c22b6818    000000b0     lv_keyboard.obj (.const:default_kb_map_lc)
                  c22b68c8    000000b0     lv_keyboard.obj (.const:default_kb_map_spec)
                  c22b6978    000000b0     lv_keyboard.obj (.const:default_kb_map_uc)
                  c22b6a28    000000a0     lv_btnmatrix.obj (.const:.string)
                  c22b6ac8    0000009e     lv_font_montserrat_14.obj (.const:.string:kern_left_class_mapping)
                  c22b6b66    00000002     Local_pe674.oe674 (.const:ti_sysbios_knl_Clock_Module__id__C)
                  c22b6b68    0000009e     lv_font_montserrat_14.obj (.const:.string:kern_right_class_mapping)
                  c22b6c06    00000002     Local_pe674.oe674 (.const:ti_sysbios_knl_Clock_Module__loggerDefined__C)
                  c22b6c08    00000098     lv_color.obj (.const:colors$3)
                  c22b6ca0    00000094     Touch.obj (.const:.string)
                  c22b6d34    00000090     lv_calendar.obj (.const:.string)
                  c22b6dc4    0000008c     lv_fs.obj (.const:.string)
                  c22b6e50    0000008c     lv_roller.obj (.const:.string)
                  c22b6edc    00000080     lv_draw_sw_gradient.obj (.const:.string)
                  c22b6f5c    00000080     lv_style.obj (.const:.string)
                  c22b6fdc    00000004     lv_spinbox.obj (.const:.string)
                  c22b6fe0    00000080     rts6740_elf.lib : strtod.c.obj (.const:digits)
                  c22b7060    0000007c     UARTConsole.obj (.const:.string)
                  c22b70dc    00000004     lv_tabview.obj (.const:.string)
                  c22b70e0    0000007c     lv_font_montserrat_14.obj (.const:unicode_list_1)
                  c22b715c    00000078     lv_meter.obj (.const:.string)
                  c22b71d4    00000078     main.obj (.const:.string)
                  c22b724c    00000074     lv_font.obj (.const:.string)
                  c22b72c0    00000070     lv_obj_style.obj (.const:.string)
                  c22b7330    0000006c     lv_event.obj (.const:.string)
                  c22b739c    0000006c     rts6740_elf.lib : asctime.c.obj (.const:.string)
                  c22b7408    00000068     lv_flex.obj (.const:.string)
                  c22b7470    00000068     lv_group.obj (.const:.string)
                  c22b74d8    00000064     lv_calendar_header_arrow.obj (.const:.string)
                  c22b753c    00000064     lv_obj_pos.obj (.const:.string)
                  c22b75a0    00000064     Local_pe674.oe674 (.const:ti_sysbios_timers_timer64_Timer_Object__PARAMS__C)
                  c22b7604    00000060     lv_txt.obj (.const:.string)
                  c22b7664    0000005c     lv_anim.obj (.const:.string)
                  c22b76c0    0000005c     lv_img.obj (.const:.string)
                  c22b771c    0000005c     lv_timer.obj (.const:.string)
                  c22b7778    00000058     ti.targets.rts6000.ae674 : Error.oe674 (.const:.string)
                  c22b77d0    00000054     lv_keyboard.obj (.const:default_kb_map_num)
                  c22b7824    00000004     lv_theme_default.obj (.const:.string)
                  c22b7828    00000050     lv_font_source_han_sans_bold_14.obj (.const:cmaps)
                  c22b7878    00000050     lv_keyboard.obj (.const:default_kb_ctrl_lc_map)
                  c22b78c8    00000050     lv_keyboard.obj (.const:default_kb_ctrl_spec_map)
                  c22b7918    00000050     lv_keyboard.obj (.const:default_kb_ctrl_uc_map)
                  c22b7968    0000004c     lv_log.obj (.const:.string)
                  c22b79b4    00000048     Local_pe674.oe674 (.const:.string)
                  c22b79fc    00000048     ti.targets.rts6000.ae674 : Log.oe674 (.const:.string)
                  c22b7a44    00000004                              : Assert.oe674 (.const:.string)
                  c22b7a48    00000048     rts6740_elf.lib : strtod.c.obj (.const:powerof10)
                  c22b7a90    00000048     Local_pe674.oe674 (.const:ti_sysbios_knl_Task_hooks__A)
                  c22b7ad8    00000040     ti.targets.rts6000.ae674 : Text.oe674 (.const:.string)
                  c22b7b18    0000003c     cJSON.obj (.const:.string)
                  c22b7b54    0000003c     Local_pe674.oe674 (.const:ti_sysbios_knl_Task_Object__PARAMS__C)
                  c22b7b90    00000038     SATATest.obj (.const:.string)
                  c22b7bc8    00000034     Local_pe674.oe674 (.const:xdc_runtime_LoggerSys_Module__FXNS__C)
                  c22b7bfc    00000004     Local_pe674.oe674 (.const:ti_sysbios_BIOS_Module__diagsEnabled__C)
                  c22b7c00    00000034     Local_pe674.oe674 (.const:xdc_runtime_Startup_sfxnTab__A)
                  c22b7c34    00000004     Local_pe674.oe674 (.const:ti_sysbios_BIOS_Module__diagsIncluded__C)
                  c22b7c38    00000030     rts6740_elf.lib : asctime.c.obj (.const:mon)
                  c22b7c68    00000030     Local_pe674.oe674 (.const:ti_sysbios_family_c64p_Hwi_Object__PARAMS__C)
                  c22b7c98    0000002c     ti.targets.rts6000.ae674 : Startup.oe674 (.const:.string)
                  c22b7cc4    0000002c     Local_pe674.oe674 (.const:ti_sysbios_hal_Hwi_Object__PARAMS__C)
                  c22b7cf0    0000002c     lv_theme_default.obj (.const:trans_props$1)
                  c22b7d1c    00000004     Local_pe674.oe674 (.const:ti_sysbios_BIOS_Module__diagsMask__C)
                  c22b7d20    00000028     lv_font_montserrat_14.obj (.const:cmaps)
                  c22b7d48    00000028     Local_pe674.oe674 (.const:ti_sysbios_heaps_HeapMem_Module__FXNS__C)
                  c22b7d70    00000028     Local_pe674.oe674 (.const:ti_sysbios_knl_Swi_Object__PARAMS__C)
                  c22b7d98    00000026     lv_event.obj (.const:.string:$P$T2$4)
                  c22b7dbe    00000002     Local_pe674.oe674 (.const:ti_sysbios_knl_Semaphore_Module__id__C)
                  c22b7dc0    00000026     lv_color.obj (.const:colors$1)
                  c22b7de6    00000002     Local_pe674.oe674 (.const:ti_sysbios_knl_Semaphore_Module__loggerDefined__C)
                  c22b7de8    00000024     cJSON.obj (.const:$P$T10$4)
                  c22b7e0c    00000024     cJSON.obj (.const:$P$T12$5)
                  c22b7e30    00000024     rts6740_elf.lib : _printfi.c.obj (.const:.string)
                  c22b7e54    00000024     Local_pe674.oe674 (.const:ti_sysbios_gates_GateHwi_Module__FXNS__C)
                  c22b7e78    00000024     Local_pe674.oe674 (.const:ti_sysbios_gates_GateMutex_Module__FXNS__C)
                  c22b7e9c    00000024     Local_pe674.oe674 (.const:ti_sysbios_heaps_HeapMem_Object__PARAMS__C)
                  c22b7ec0    00000024     Local_pe674.oe674 (.const:ti_sysbios_knl_Clock_Object__PARAMS__C)
                  c22b7ee4    00000024     Local_pe674.oe674 (.const:ti_sysbios_knl_Semaphore_Object__PARAMS__C)
                  c22b7f08    00000022     lv_calendar.obj (.const:.string:$P$T0$1)
                  c22b7f2a    00000002     Local_pe674.oe674 (.const:ti_sysbios_knl_Swi_Module__id__C)
                  c22b7f2c    00000004     Local_pe674.oe674 (.const:ti_sysbios_BIOS_installedErrorHook__C)
                  c22b7f30    00000022     lv_keyboard.obj (.const:default_kb_ctrl_num_map)
                  c22b7f52    00000002     Local_pe674.oe674 (.const:ti_sysbios_knl_Swi_Module__loggerDefined__C)
                  c22b7f54    00000004     Local_pe674.oe674 (.const:ti_sysbios_family_c62_TaskSupport_stackAlignment__C)
                  c22b7f58    00000021     lv_textarea.obj (.const:.string:$P$T5$6)
                  c22b7f79    00000001     --HOLE-- [fill = 0]
                  c22b7f7a    00000002     Local_pe674.oe674 (.const:ti_sysbios_knl_Task_Module__id__C)
                  c22b7f7c    00000004     Local_pe674.oe674 (.const:ti_sysbios_family_c64p_Cache_EMIFA_BASE__C)
                  c22b7f80    00000021     lv_draw_sw_line.obj (.const:.string:wcorr$1)
                  c22b7fa1    00000001     --HOLE-- [fill = 0]
                  c22b7fa2    00000002     Local_pe674.oe674 (.const:ti_sysbios_knl_Task_Module__loggerDefined__C)
                  c22b7fa4    00000004     Local_pe674.oe674 (.const:ti_sysbios_family_c64p_Cache_EMIFA_CFG__C)
                  c22b7fa8    00000020     lv_btnmatrix.obj (.const:.string:$P$T0$1)
                  c22b7fc8    00000020     lv_obj_style.obj (.const:.string:$P$T2$1)
                  c22b7fe8    00000020     Local_pe674.oe674 (.const:ti_sysbios_family_c64p_Hwi_Object__DESC__C)
                  c22b8008    00000020     Local_pe674.oe674 (.const:ti_sysbios_gates_GateHwi_Object__DESC__C)
                  c22b8028    00000020     Local_pe674.oe674 (.const:ti_sysbios_gates_GateMutex_Object__DESC__C)
                  c22b8048    00000020     Local_pe674.oe674 (.const:ti_sysbios_hal_Hwi_Object__DESC__C)
                  c22b8068    00000020     Local_pe674.oe674 (.const:ti_sysbios_heaps_HeapMem_Object__DESC__C)
                  c22b8088    00000020     Local_pe674.oe674 (.const:ti_sysbios_knl_Clock_Object__DESC__C)
                  c22b80a8    00000020     Local_pe674.oe674 (.const:ti_sysbios_knl_Queue_Object__DESC__C)
                  c22b80c8    00000020     Local_pe674.oe674 (.const:ti_sysbios_knl_Semaphore_Object__DESC__C)
                  c22b80e8    00000020     Local_pe674.oe674 (.const:ti_sysbios_knl_Swi_Object__DESC__C)
                  c22b8108    00000020     Local_pe674.oe674 (.const:ti_sysbios_knl_Task_Object__DESC__C)
                  c22b8128    00000020     Local_pe674.oe674 (.const:ti_sysbios_timers_timer64_Timer_Object__DESC__C)
                  c22b8148    00000020     Local_pe674.oe674 (.const:xdc_runtime_LoggerSys_Object__DESC__C)
                  c22b8168    0000001f     lv_dropdown.obj (.const:.string:$P$T1$2)
                  c22b8187    00000001     --HOLE-- [fill = 0]
                  c22b8188    0000001e     lv_textarea.obj (.const:.string:$P$T6$7)
                  c22b81a6    00000002     Local_pe674.oe674 (.const:ti_sysbios_knl_Task_initStackFlag__C)
                  c22b81a8    0000001d     lv_chart.obj (.const:.string:$P$T2$3)
                  c22b81c5    00000001     --HOLE-- [fill = 0]
                  c22b81c6    00000002     Local_pe674.oe674 (.const:ti_sysbios_timers_timer64_Timer_Module__id__C)
                  c22b81c8    0000001d     lv_img_decoder.obj (.const:.string:$P$T4$4)
                  c22b81e5    00000001     --HOLE-- [fill = 0]
                  c22b81e6    00000002     Local_pe674.oe674 (.const:ti_sysbios_timers_timer64_Timer_startupNeeded__C)
                  c22b81e8    0000001c     lv_draw_sw_rect.obj (.const:$P$T0$1)
                  c22b8204    0000001c     cJSON.obj (.const:$P$T5$2)
                  c22b8220    0000001c     lv_table.obj (.const:.string:$P$T1$2)
                  c22b823c    0000001c     chinese_ime.obj (.const:.string)
                  c22b8258    0000001c     rts6740_elf.lib : asctime.c.obj (.const:day)
                  c22b8274    0000001c     lv_arc.obj (.const:lv_arc_class)
                  c22b8290    0000001c     lv_bar.obj (.const:lv_bar_class)
                  c22b82ac    0000001c     lv_btn.obj (.const:lv_btn_class)
                  c22b82c8    0000001c     lv_btnmatrix.obj (.const:lv_btnmatrix_class)
                  c22b82e4    0000001c     lv_calendar.obj (.const:lv_calendar_class)
                  c22b8300    0000001c     lv_calendar_header_arrow.obj (.const:lv_calendar_header_arrow_class)
                  c22b831c    0000001c     lv_calendar_header_dropdown.obj (.const:lv_calendar_header_dropdown_class)
                  c22b8338    0000001c     lv_chart.obj (.const:lv_chart_class)
                  c22b8354    0000001c     lv_checkbox.obj (.const:lv_checkbox_class)
                  c22b8370    0000001c     lv_colorwheel.obj (.const:lv_colorwheel_class)
                  c22b838c    0000001c     lv_dropdown.obj (.const:lv_dropdown_class)
                  c22b83a8    0000001c     lv_dropdown.obj (.const:lv_dropdownlist_class)
                  c22b83c4    0000001c     lv_font_montserrat_14.obj (.const:lv_font_montserrat_14)
                  c22b83e0    0000001c     lv_font_source_han_sans_bold_14.obj (.const:lv_font_source_han_sans_bold_14)
                  c22b83fc    0000001c     lv_img.obj (.const:lv_img_class)
                  c22b8418    0000001c     lv_keyboard.obj (.const:lv_keyboard_class)
                  c22b8434    0000001c     lv_label.obj (.const:lv_label_class)
                  c22b8450    0000001c     lv_led.obj (.const:lv_led_class)
                  c22b846c    0000001c     lv_line.obj (.const:lv_line_class)
                  c22b8488    0000001c     lv_list.obj (.const:lv_list_btn_class)
                  c22b84a4    0000001c     lv_list.obj (.const:lv_list_class)
                  c22b84c0    0000001c     lv_list.obj (.const:lv_list_text_class)
                  c22b84dc    0000001c     lv_menu.obj (.const:lv_menu_class)
                  c22b84f8    0000001c     lv_menu.obj (.const:lv_menu_cont_class)
                  c22b8514    0000001c     lv_menu.obj (.const:lv_menu_main_cont_class)
                  c22b8530    0000001c     lv_menu.obj (.const:lv_menu_main_header_cont_class)
                  c22b854c    0000001c     lv_menu.obj (.const:lv_menu_page_class)
                  c22b8568    0000001c     lv_menu.obj (.const:lv_menu_section_class)
                  c22b8584    0000001c     lv_menu.obj (.const:lv_menu_separator_class)
                  c22b85a0    0000001c     lv_menu.obj (.const:lv_menu_sidebar_cont_class)
                  c22b85bc    0000001c     lv_menu.obj (.const:lv_menu_sidebar_header_cont_class)
                  c22b85d8    0000001c     lv_meter.obj (.const:lv_meter_class)
                  c22b85f4    0000001c     lv_msgbox.obj (.const:lv_msgbox_backdrop_class)
                  c22b8610    0000001c     lv_msgbox.obj (.const:lv_msgbox_class)
                  c22b862c    0000001c     lv_obj.obj (.const:lv_obj_class)
                  c22b8648    0000001c     lv_roller.obj (.const:lv_roller_class)
                  c22b8664    0000001c     lv_roller.obj (.const:lv_roller_label_class)
                  c22b8680    0000001c     lv_slider.obj (.const:lv_slider_class)
                  c22b869c    0000001c     lv_spinbox.obj (.const:lv_spinbox_class)
                  c22b86b8    0000001c     lv_spinner.obj (.const:lv_spinner_class)
                  c22b86d4    0000001c     lv_switch.obj (.const:lv_switch_class)
                  c22b86f0    0000001c     lv_table.obj (.const:lv_table_class)
                  c22b870c    0000001c     lv_tabview.obj (.const:lv_tabview_class)
                  c22b8728    0000001c     lv_textarea.obj (.const:lv_textarea_class)
                  c22b8744    0000001c     lv_tileview.obj (.const:lv_tileview_class)
                  c22b8760    0000001c     lv_tileview.obj (.const:lv_tileview_tile_class)
                  c22b877c    0000001c     lv_win.obj (.const:lv_win_class)
                  c22b8798    0000001b     lv_chart.obj (.const:.string:$P$T1$2)
                  c22b87b3    00000001     --HOLE-- [fill = 0]
                  c22b87b4    00000004     Local_pe674.oe674 (.const:ti_sysbios_family_c64p_Cache_EMIFA_LENGTH__C)
                  c22b87b8    0000001b     lv_draw_sw_gradient.obj (.const:.string:$P$T1$2)
                  c22b87d3    00000001     --HOLE-- [fill = 0]
                  c22b87d4    00000004     Local_pe674.oe674 (.const:ti_sysbios_family_c64p_Cache_EMIFB_BASE__C)
                  c22b87d8    0000001b     lv_label.obj (.const:.string:$P$T5$5)
                  c22b87f3    00000001     --HOLE-- [fill = 0]
                  c22b87f4    00000004     Local_pe674.oe674 (.const:ti_sysbios_family_c64p_Cache_EMIFB_CFG__C)
                  c22b87f8    0000001b     lv_chart.obj (.const:.string:$P$T7$8)
                  c22b8813    00000001     --HOLE-- [fill = 0]
                  c22b8814    00000004     Local_pe674.oe674 (.const:ti_sysbios_family_c64p_Cache_EMIFB_LENGTH__C)
                  c22b8818    0000001a     lv_obj.obj (.const:.string:$P$T1$2)
                  c22b8832    00000002     Local_pe674.oe674 (.const:ti_sysbios_utils_Load_Module__id__C)
                  c22b8834    00000004     Local_pe674.oe674 (.const:ti_sysbios_family_c64p_Cache_EMIFC_BASE__C)
                  c22b8838    0000001a     lv_chart.obj (.const:.string:$P$T12$11)
                  c22b8852    00000002     Local_pe674.oe674 (.const:ti_sysbios_utils_Load_Module__loggerDefined__C)
                  c22b8854    00000004     Local_pe674.oe674 (.const:ti_sysbios_family_c64p_Cache_EMIFC_CFG__C)
                  c22b8858    0000001a     lv_chart.obj (.const:.string:$P$T13$12)
                  c22b8872    00000002     Local_pe674.oe674 (.const:ti_sysbios_utils_Load_autoAddTasks__C)
                  c22b8874    00000004     Local_pe674.oe674 (.const:ti_sysbios_family_c64p_Cache_EMIFC_LENGTH__C)
                  c22b8878    0000001a     lv_chart.obj (.const:.string:$P$T18$17)
                  c22b8892    00000002     Local_pe674.oe674 (.const:ti_sysbios_utils_Load_hwiEnabled__C)
                  c22b8894    00000004     Local_pe674.oe674 (.const:ti_sysbios_family_c64p_Cache_MAR0_31__C)
                  c22b8898    0000001a     lv_chart.obj (.const:.string:$P$T6$7)
                  c22b88b2    00000002     Local_pe674.oe674 (.const:ti_sysbios_utils_Load_updateInIdle__C)
                  c22b88b4    00000004     Local_pe674.oe674 (.const:ti_sysbios_family_c64p_Cache_MAR128_159__C)
                  c22b88b8    0000001a     Local_pe674.oe674 (.const:xdc_runtime_Startup_sfxnRts__A)
                  c22b88d2    00000002     Local_pe674.oe674 (.const:xdc_runtime_Core_Module__id__C)
                  c22b88d4    00000004     Local_pe674.oe674 (.const:ti_sysbios_family_c64p_Cache_MAR160_191__C)
                  c22b88d8    00000019     lv_font.obj (.const:.string:$P$T0$1)
                  c22b88f1    00000001     --HOLE-- [fill = 0]
                  c22b88f2    00000002     Local_pe674.oe674 (.const:xdc_runtime_Error_Module__loggerDefined__C)
                  c22b88f4    00000004     Local_pe674.oe674 (.const:ti_sysbios_family_c64p_Cache_MAR192_223__C)
                  c22b88f8    00000019     lv_draw_mask.obj (.const:.string:$P$T1$2)
                  c22b8911    00000001     --HOLE-- [fill = 0]
                  c22b8912    00000002     Local_pe674.oe674 (.const:xdc_runtime_Error_maxDepth__C)
                  c22b8914    00000004     Local_pe674.oe674 (.const:ti_sysbios_family_c64p_Cache_MAR224_255__C)
                  c22b8918    00000019     lv_meter.obj (.const:.string:$P$T1$2)
                  c22b8931    00000001     --HOLE-- [fill = 0]
                  c22b8932    00000002     Local_pe674.oe674 (.const:xdc_runtime_Memory_Module__id__C)
                  c22b8934    00000004     Local_pe674.oe674 (.const:ti_sysbios_family_c64p_Cache_MAR32_63__C)
                  c22b8938    00000019     lv_chart.obj (.const:.string:$P$T16$15)
                  c22b8951    00000001     --HOLE-- [fill = 0]
                  c22b8952    00000002     Local_pe674.oe674 (.const:xdc_runtime_SysMin_flushAtExit__C)
                  c22b8954    00000004     Local_pe674.oe674 (.const:ti_sysbios_family_c64p_Cache_MAR64_95__C)
                  c22b8958    00000019     lv_chart.obj (.const:.string:$P$T17$16)
                  c22b8971    00000001     --HOLE-- [fill = 0]
                  c22b8972    00000002     Local_pe674.oe674 (.const:xdc_runtime_Text_charCnt__C)
                  c22b8974    00000004     Local_pe674.oe674 (.const:ti_sysbios_family_c64p_Cache_MAR96_127__C)
                  c22b8978    00000019     lv_chart.obj (.const:.string:$P$T19$18)
                  c22b8991    00000001     --HOLE-- [fill = 0]
                  c22b8992    00000002     Local_pe674.oe674 (.const:xdc_runtime_Text_isLoaded__C)
                  c22b8994    00000004     Local_pe674.oe674 (.const:ti_sysbios_family_c64p_EventCombiner_E_unpluggedEvent__C)
                  c22b8998    00000019     lv_chart.obj (.const:.string:$P$T20$19)
                  c22b89b1    00000001     --HOLE-- [fill = 0]
                  c22b89b2    00000002     Local_pe674.oe674 (.const:xdc_runtime_Text_registryModsLastId__C)
                  c22b89b4    00000004     Local_pe674.oe674 (.const:ti_sysbios_family_c64p_Exception_E_exceptionMax__C)
                  c22b89b8    00000019     lv_meter.obj (.const:.string:$P$T4$5)
                  c22b89d1    00000001     --HOLE-- [fill = 0]
                  c22b89d2    00000002     Local_pe674.oe674 (.const:xdc_runtime_Text_unnamedModsLastId__C)
                  c22b89d4    00000004     Local_pe674.oe674 (.const:ti_sysbios_family_c64p_Exception_exceptionHook__C)
                  c22b89d8    00000019     lv_table.obj (.const:.string:$P$T5$6)
                  c22b89f1    00000003     --HOLE-- [fill = 0]
                  c22b89f4    00000004     Local_pe674.oe674 (.const:ti_sysbios_family_c64p_Exception_externalHook__C)
                  c22b89f8    00000018     lv_draw_mask.obj (.const:.string:$P$T0$1)
                  c22b8a10    00000018     lv_dropdown.obj (.const:.string:$P$T0$1)
                  c22b8a28    00000018     lv_hal_disp.obj (.const:.string:$P$T0$1)
                  c22b8a40    00000018     lv_table.obj (.const:.string:$P$T0$1)
                  c22b8a58    00000018     lv_chart.obj (.const:.string:$P$T11$10)
                  c22b8a70    00000018     lv_chart.obj (.const:.string:$P$T15$14)
                  c22b8a88    00000018     lv_label.obj (.const:.string:$P$T2$3)
                  c22b8aa0    00000018     lv_meter.obj (.const:.string:$P$T2$3)
                  c22b8ab8    00000018     lv_font.obj (.const:.string:$P$T3$3)
                  c22b8ad0    00000018     lv_event.obj (.const:.string:$P$T3$5)
                  c22b8ae8    00000018     lv_font_montserrat_14.obj (.const:font_dsc)
                  c22b8b00    00000018     lv_font_source_han_sans_bold_14.obj (.const:font_dsc)
                  c22b8b18    00000018     Local_pe674.oe674 (.const:ti_sysbios_gates_GateHwi_Object__PARAMS__C)
                  c22b8b30    00000018     Local_pe674.oe674 (.const:ti_sysbios_gates_GateMutex_Object__PARAMS__C)
                  c22b8b48    00000018     Local_pe674.oe674 (.const:ti_sysbios_knl_Queue_Object__PARAMS__C)
                  c22b8b60    00000018     Local_pe674.oe674 (.const:ti_sysbios_knl_Swi_hooks__A)
                  c22b8b78    00000018     Local_pe674.oe674 (.const:xdc_runtime_LoggerSys_Object__PARAMS__C)
                  c22b8b90    00000017     lv_event.obj (.const:.string:$P$T1$3)
                  c22b8ba7    00000001     --HOLE-- [fill = 0]
                  c22b8ba8    00000017     lv_chart.obj (.const:.string:$P$T14$13)
                  c22b8bbf    00000001     --HOLE-- [fill = 0]
                  c22b8bc0    00000017     lv_dropdown.obj (.const:.string:$P$T2$3)
                  c22b8bd7    00000001     --HOLE-- [fill = 0]
                  c22b8bd8    00000017     lv_label.obj (.const:.string:$P$T3$4)
                  c22b8bef    00000001     --HOLE-- [fill = 0]
                  c22b8bf0    00000017     lv_chart.obj (.const:.string:$P$T4$5)
                  c22b8c07    00000001     --HOLE-- [fill = 0]
                  c22b8c08    00000017     lv_table.obj (.const:.string:$P$T4$5)
                  c22b8c1f    00000001     --HOLE-- [fill = 0]
                  c22b8c20    00000016     lv_hal_indev.obj (.const:.string:$P$T0$1)
                  c22b8c36    00000002     --HOLE-- [fill = 0]
                  c22b8c38    00000016     lv_roller.obj (.const:.string:$P$T0$1)
                  c22b8c4e    00000002     --HOLE-- [fill = 0]
                  c22b8c50    00000016     lv_txt.obj (.const:.string:$P$T0$1)
                  c22b8c66    00000002     --HOLE-- [fill = 0]
                  c22b8c68    00000016     lv_label.obj (.const:.string:$P$T1$2)
                  c22b8c7e    00000002     --HOLE-- [fill = 0]
                  c22b8c80    00000016     lv_font.obj (.const:.string:$P$T2$2)
                  c22b8c96    00000002     --HOLE-- [fill = 0]
                  c22b8c98    00000016     lv_img_decoder.obj (.const:.string:$P$T3$3)
                  c22b8cae    00000002     --HOLE-- [fill = 0]
                  c22b8cb0    00000016     lv_tlsf.obj (.const:.string:$P$T6$6)
                  c22b8cc6    00000002     --HOLE-- [fill = 0]
                  c22b8cc8    00000015     lv_textarea.obj (.const:.string:$P$T0$1)
                  c22b8cdd    00000003     --HOLE-- [fill = 0]
                  c22b8ce0    00000015     lv_img_decoder.obj (.const:.string:$P$T1$1)
                  c22b8cf5    00000003     --HOLE-- [fill = 0]
                  c22b8cf8    00000015     lv_textarea.obj (.const:.string:$P$T1$2)
                  c22b8d0d    00000003     --HOLE-- [fill = 0]
                  c22b8d10    00000015     lv_style.obj (.const:.string:$P$T2$3)
                  c22b8d25    00000003     --HOLE-- [fill = 0]
                  c22b8d28    00000015     lv_table.obj (.const:.string:$P$T2$3)
                  c22b8d3d    00000003     --HOLE-- [fill = 0]
                  c22b8d40    00000015     lv_textarea.obj (.const:.string:$P$T2$3)
                  c22b8d55    00000003     --HOLE-- [fill = 0]
                  c22b8d58    00000015     lv_hal_disp.obj (.const:.string:$P$T2$8)
                  c22b8d6d    00000003     --HOLE-- [fill = 0]
                  c22b8d70    00000015     lv_chart.obj (.const:.string:$P$T21$20)
                  c22b8d85    00000003     --HOLE-- [fill = 0]
                  c22b8d88    00000015     lv_chart.obj (.const:.string:$P$T22$21)
                  c22b8d9d    00000003     --HOLE-- [fill = 0]
                  c22b8da0    00000015     lv_table.obj (.const:.string:$P$T3$4)
                  c22b8db5    00000003     --HOLE-- [fill = 0]
                  c22b8db8    00000015     lv_textarea.obj (.const:.string:$P$T4$5)
                  c22b8dcd    00000003     --HOLE-- [fill = 0]
                  c22b8dd0    00000015     lv_chart.obj (.const:.string:$P$T5$6)
                  c22b8de5    00000003     --HOLE-- [fill = 0]
                  c22b8de8    00000015     lv_label.obj (.const:.string:$P$T7$7)
                  c22b8dfd    00000003     --HOLE-- [fill = 0]
                  c22b8e00    00000014     lv_event.obj (.const:.string:$P$T0$2)
                  c22b8e14    00000004     Local_pe674.oe674 (.const:ti_sysbios_family_c64p_Exception_internalHook__C)
                  c22b8e18    00000014     lv_hal_indev.obj (.const:.string:$P$T1$2)
                  c22b8e2c    00000004     Local_pe674.oe674 (.const:ti_sysbios_family_c64p_Exception_nmiHook__C)
                  c22b8e30    00000014     lv_chart.obj (.const:.string:$P$T10$9)
                  c22b8e44    00000004     Local_pe674.oe674 (.const:ti_sysbios_family_c64p_Hwi_E_alreadyDefined__C)
                  c22b8e48    00000014     lv_img_decoder.obj (.const:.string:$P$T2$2)
                  c22b8e5c    00000004     Local_pe674.oe674 (.const:ti_sysbios_family_c64p_Hwi_E_handleNotFound__C)
                  c22b8e60    00000014     lv_tlsf.obj (.const:.string:$P$T23$22)
                  c22b8e74    00000004     Local_pe674.oe674 (.const:ti_sysbios_family_c64p_Hwi_LD_end__C)
                  c22b8e78    00000014     lv_chart.obj (.const:.string:$P$T3$4)
                  c22b8e8c    00000004     Local_pe674.oe674 (.const:ti_sysbios_family_c64p_Hwi_LM_begin__C)
                  c22b8e90    00000014     Local_pe674.oe674 (.const:ti_sysbios_family_c64p_Hwi_hooks__A)
                  c22b8ea4    00000004     Local_pe674.oe674 (.const:ti_sysbios_family_c64p_Hwi_Module__diagsEnabled__C)
                  c22b8ea8    00000013     lv_meter.obj (.const:.string:$P$T0$1)
                  c22b8ebb    00000001     --HOLE-- [fill = 0]
                  c22b8ebc    00000004     Local_pe674.oe674 (.const:ti_sysbios_family_c64p_Hwi_Module__diagsIncluded__C)
                  c22b8ec0    00000013     lv_obj_pos.obj (.const:.string:$P$T0$2)
                  c22b8ed3    00000001     --HOLE-- [fill = 0]
                  c22b8ed4    00000004     Local_pe674.oe674 (.const:ti_sysbios_family_c64p_Hwi_Module__diagsMask__C)
                  c22b8ed8    00000013     lv_tlsf.obj (.const:.string:$P$T17$16)
                  c22b8eeb    00000001     --HOLE-- [fill = 0]
                  c22b8eec    00000004     Local_pe674.oe674 (.const:ti_sysbios_family_c64p_Hwi_Module__loggerFxn1__C)
                  c22b8ef0    00000013     lv_fs.obj (.const:.string:$P$T3$3)
                  c22b8f03    00000001     --HOLE-- [fill = 0]
                  c22b8f04    00000004     Local_pe674.oe674 (.const:ti_sysbios_family_c64p_Hwi_Module__loggerFxn8__C)
                  c22b8f08    00000013     lv_mem.obj (.const:.string:$P$T4$5)
                  c22b8f1b    00000001     --HOLE-- [fill = 0]
                  c22b8f1c    00000004     Local_pe674.oe674 (.const:ti_sysbios_family_c64p_Hwi_Module__loggerObj__C)
                  c22b8f20    00000012     lv_chart.obj (.const:.string:$P$T0$1)
                  c22b8f32    00000002     --HOLE-- [fill = 0]
                  c22b8f34    00000004     Local_pe674.oe674 (.const:ti_sysbios_family_c64p_Hwi_Object__heap__C)
                  c22b8f38    00000012     lv_label.obj (.const:.string:$P$T0$1)
                  c22b8f4a    00000002     --HOLE-- [fill = 0]
                  c22b8f4c    00000004     Local_pe674.oe674 (.const:ti_sysbios_gates_GateMutex_A_badContext__C)
                  c22b8f50    00000012     lv_tlsf.obj (.const:.string:$P$T16$15)
                  c22b8f62    00000002     --HOLE-- [fill = 0]
                  c22b8f64    00000004     Local_pe674.oe674 (.const:ti_sysbios_gates_GateMutex_Instance_State_sem__O)
                  c22b8f68    00000012     lv_fs.obj (.const:.string:$P$T2$2)
                  c22b8f7a    00000002     --HOLE-- [fill = 0]
                  c22b8f7c    00000004     Local_pe674.oe674 (.const:ti_sysbios_gates_GateMutex_Module__diagsEnabled__C)
                  c22b8f80    00000012     lv_refr.obj (.const:.string:$P$T2$2)
                  c22b8f92    00000002     --HOLE-- [fill = 0]
                  c22b8f94    00000004     Local_pe674.oe674 (.const:ti_sysbios_gates_GateMutex_Module__diagsIncluded__C)
                  c22b8f98    00000012     lv_style.obj (.const:.string:$P$T3$4)
                  c22b8faa    00000002     --HOLE-- [fill = 0]
                  c22b8fac    00000004     Local_pe674.oe674 (.const:ti_sysbios_gates_GateMutex_Module__diagsMask__C)
                  c22b8fb0    00000012     lv_label.obj (.const:.string:$P$T6$6)
                  c22b8fc2    00000002     --HOLE-- [fill = 0]
                  c22b8fc4    00000004     Local_pe674.oe674 (.const:ti_sysbios_hal_Hwi_E_stackOverflow__C)
                  c22b8fc8    00000012     lv_tlsf.obj (.const:.string:$P$T7$7)
                  c22b8fda    00000002     --HOLE-- [fill = 0]
                  c22b8fdc    00000004     Local_pe674.oe674 (.const:ti_sysbios_heaps_HeapMem_A_align__C)
                  c22b8fe0    00000012     lv_tlsf.obj (.const:.string:$P$T8$8)
                  c22b8ff2    00000002     --HOLE-- [fill = 0]
                  c22b8ff4    00000004     Local_pe674.oe674 (.const:ti_sysbios_heaps_HeapMem_A_heapSize__C)
                  c22b8ff8    00000011     lv_group.obj (.const:.string:$P$T1$2)
                  c22b9009    00000003     --HOLE-- [fill = 0]
                  c22b900c    00000004     Local_pe674.oe674 (.const:ti_sysbios_heaps_HeapMem_A_invalidFree__C)
                  c22b9010    00000011     lv_tlsf.obj (.const:.string:$P$T12$11)
                  c22b9021    00000003     --HOLE-- [fill = 0]
                  c22b9024    00000004     Local_pe674.oe674 (.const:ti_sysbios_heaps_HeapMem_A_zeroBlock__C)
                  c22b9028    00000011     lv_tlsf.obj (.const:.string:$P$T13$12)
                  c22b9039    00000003     --HOLE-- [fill = 0]
                  c22b903c    00000004     Local_pe674.oe674 (.const:ti_sysbios_heaps_HeapMem_E_memory__C)
                  c22b9040    00000011     lv_tlsf.obj (.const:.string:$P$T18$17)
                  c22b9051    00000003     --HOLE-- [fill = 0]
                  c22b9054    00000004     Local_pe674.oe674 (.const:ti_sysbios_heaps_HeapMem_Module__diagsEnabled__C)
                  c22b9058    00000011     lv_tlsf.obj (.const:.string:$P$T22$21)
                  c22b9069    00000003     --HOLE-- [fill = 0]
                  c22b906c    00000004     Local_pe674.oe674 (.const:ti_sysbios_heaps_HeapMem_Module__diagsIncluded__C)
                  c22b9070    00000011     lv_chart.obj (.const:.string:$P$T23$22)
                  c22b9081    00000003     --HOLE-- [fill = 0]
                  c22b9084    00000004     Local_pe674.oe674 (.const:ti_sysbios_heaps_HeapMem_Module__diagsMask__C)
                  c22b9088    00000011     lv_tlsf.obj (.const:.string:$P$T27$24)
                  c22b9099    00000003     --HOLE-- [fill = 0]
                  c22b909c    00000004     Local_pe674.oe674 (.const:ti_sysbios_heaps_HeapMem_Module__gateObj__C)
                  c22b90a0    00000011     lv_refr.obj (.const:.string:$P$T3$3)
                  c22b90b1    00000003     --HOLE-- [fill = 0]
                  c22b90b4    00000004     Local_pe674.oe674 (.const:ti_sysbios_heaps_HeapMem_Object__count__C)
                  c22b90b8    00000011     lv_meter.obj (.const:.string:$P$T3$4)
                  c22b90c9    00000003     --HOLE-- [fill = 0]
                  c22b90cc    00000004     Local_pe674.oe674 (.const:ti_sysbios_heaps_HeapMem_Object__table__C)
                  c22b90d0    00000011     ti.targets.rts6000.ae674 : System.oe674 (.const:digtohex)
                  c22b90e1    00000003     --HOLE-- [fill = 0]
                  c22b90e4    00000004     Local_pe674.oe674 (.const:ti_sysbios_heaps_HeapMem_reqAlign__C)
                  c22b90e8    00000010     lv_group.obj (.const:.string:$P$T0$1)
                  c22b90f8    00000010     lv_refr.obj (.const:.string:$P$T1$1)
                  c22b9108    00000010     lv_timer.obj (.const:.string:$P$T1$5)
                  c22b9118    00000010     lv_tlsf.obj (.const:.string:$P$T14$13)
                  c22b9128    00000010     lv_tlsf.obj (.const:.string:$P$T15$14)
                  c22b9138    00000010     lv_img_buf.obj (.const:.string:$P$T2$2)
                  c22b9148    00000010     lv_hal_indev.obj (.const:.string:$P$T2$3)
                  c22b9158    00000010     lv_obj_style.obj (.const:.string:$P$T3$2)
                  c22b9168    00000010     lv_tlsf.obj (.const:.string:$P$T30$26)
                  c22b9178    00000010     lv_img_decoder.obj (.const:.string:$P$T7$7)
                  c22b9188    00000010     lv_draw_sw_letter.obj (.const:.string:_lv_bpp4_opa_table)
                  c22b9198    00000010     rts6740_elf.lib : _scanfi.c.obj (.const:.string)
                  c22b91a8    00000010     lv_font_montserrat_14.obj (.const:kern_classes)
                  c22b91b8    00000010     Local_pe674.oe674 (.const:ti_sysbios_family_c64p_EventCombiner_EVTMASK__C)
                  c22b91c8    0000000f     lv_flex.obj (.const:.string:$P$T0$1)
                  c22b91d7    00000001     --HOLE-- [fill = 0]
                  c22b91d8    0000000f     lv_img.obj (.const:.string:$P$T0$1)
                  c22b91e7    00000001     --HOLE-- [fill = 0]
                  c22b91e8    0000000f     lv_style.obj (.const:.string:$P$T1$1)
                  c22b91f7    00000001     --HOLE-- [fill = 0]
                  c22b91f8    0000000f     lv_mem.obj (.const:.string:$P$T1$3)
                  c22b9207    00000001     --HOLE-- [fill = 0]
                  c22b9208    0000000f     lv_tlsf.obj (.const:.string:$P$T20$19)
                  c22b9217    00000001     --HOLE-- [fill = 0]
                  c22b9218    0000000f     lv_tlsf.obj (.const:.string:$P$T24$23)
                  c22b9227    00000001     --HOLE-- [fill = 0]
                  c22b9228    0000000f     lv_mem.obj (.const:.string:$P$T3$4)
                  c22b9237    00000001     --HOLE-- [fill = 0]
                  c22b9238    0000000e     lv_anim.obj (.const:.string:$P$T0$1)
                  c22b9246    00000002     --HOLE-- [fill = 0]
                  c22b9248    0000000e     lv_draw_sw_gradient.obj (.const:.string:$P$T0$1)
                  c22b9256    00000002     --HOLE-- [fill = 0]
                  c22b9258    0000000e     lv_tlsf.obj (.const:.string:$P$T19$18)
                  c22b9266    00000002     --HOLE-- [fill = 0]
                  c22b9268    0000000e     lv_draw_mask.obj (.const:.string:$P$T2$3)
                  c22b9276    00000002     --HOLE-- [fill = 0]
                  c22b9278    0000000d     lv_mem.obj (.const:.string:$P$T0$2)
                  c22b9285    00000003     --HOLE-- [fill = 0]
                  c22b9288    0000000d     lv_tlsf.obj (.const:.string:$P$T11$10)
                  c22b9295    00000003     --HOLE-- [fill = 0]
                  c22b9298    0000000d     lv_tlsf.obj (.const:.string:$P$T29$25)
                  c22b92a5    00000003     --HOLE-- [fill = 0]
                  c22b92a8    0000000c     lv_tlsf.obj (.const:.string:$P$T10$9)
                  c22b92b4    0000000c     lv_checkbox.obj (.const:.string)
                  c22b92c0    0000000c     lv_font_source_han_sans_bold_14.obj (.const:kern_pairs)
                  c22b92cc    0000000c     Local_pe674.oe674 (.const:ti_sysbios_family_c64p_Cache_initSize__C)
                  c22b92d8    0000000c     Local_pe674.oe674 (.const:ti_sysbios_knl_Idle_coreList__A)
                  c22b92e4    00000004     Local_pe674.oe674 (.const:ti_sysbios_knl_Clock_A_badThreadType__C)
                  c22b92e8    0000000c     Local_pe674.oe674 (.const:ti_sysbios_knl_Idle_funcList__A)
                  c22b92f4    00000004     Local_pe674.oe674 (.const:ti_sysbios_knl_Clock_A_clockDisabled__C)
                  c22b92f8    0000000b     lv_fs.obj (.const:.string:$P$T1$1)
                  c22b9303    00000001     --HOLE-- [fill = 0]
                  c22b9304    00000004     Local_pe674.oe674 (.const:ti_sysbios_knl_Clock_LM_begin__C)
                  c22b9308    0000000b     lv_tlsf.obj (.const:.string:$P$T1$1)
                  c22b9313    00000001     --HOLE-- [fill = 0]
                  c22b9314    00000004     Local_pe674.oe674 (.const:ti_sysbios_knl_Clock_LM_tick__C)
                  c22b9318    0000000b     lv_tlsf.obj (.const:.string:$P$T2$2)
                  c22b9323    00000001     --HOLE-- [fill = 0]
                  c22b9324    00000004     Local_pe674.oe674 (.const:ti_sysbios_knl_Clock_LW_delayed__C)
                  c22b9328    0000000b     lv_tlsf.obj (.const:.string:$P$T4$4)
                  c22b9333    00000001     --HOLE-- [fill = 0]
                  c22b9334    00000004     Local_pe674.oe674 (.const:ti_sysbios_knl_Clock_Module_State_clockQ__O)
                  c22b9338    0000000a     lv_tlsf.obj (.const:.string:$P$T5$5)
                  c22b9342    00000002     --HOLE-- [fill = 0]
                  c22b9344    00000004     Local_pe674.oe674 (.const:ti_sysbios_knl_Clock_Module__diagsEnabled__C)
                  c22b9348    00000009     lv_tlsf.obj (.const:.string:$P$T3$3)
                  c22b9351    00000001     --HOLE-- [fill = 0]
                  c22b9352    00000008     lv_draw_sw_polygon.obj (.const:$P$T0$1)
                  c22b935a    00000002     --HOLE-- [fill = 0]
                  c22b935c    00000008     lv_tlsf.obj (.const:$P$T21$20)
                  c22b9364    00000004     Local_pe674.oe674 (.const:ti_sysbios_knl_Clock_Module__diagsIncluded__C)
                  c22b9368    00000008     lv_obj.obj (.const:.string:$P$T0$1)
                  c22b9370    00000008     lv_draw_img.obj (.const:.string)
                  c22b9378    00000008     ti.targets.rts6000.ae674 : System.oe674 (.const:.string)
                  c22b9380    00000008     Local_pe674.oe674 (.const:ti_sysbios_family_c64p_Hwi_hooks__C)
                  c22b9388    00000008     Local_pe674.oe674 (.const:ti_sysbios_knl_Idle_coreList__C)
                  c22b9390    00000008     Local_pe674.oe674 (.const:ti_sysbios_knl_Idle_funcList__C)
                  c22b9398    00000008     Local_pe674.oe674 (.const:ti_sysbios_knl_Swi_hooks__C)
                  c22b93a0    00000008     Local_pe674.oe674 (.const:ti_sysbios_knl_Task_hooks__C)
                  c22b93a8    00000008     Local_pe674.oe674 (.const:xdc_runtime_Startup_firstFxns__A)
                  c22b93b0    00000008     Local_pe674.oe674 (.const:xdc_runtime_Startup_firstFxns__C)
                  c22b93b8    00000008     Local_pe674.oe674 (.const:xdc_runtime_Startup_lastFxns__C)
                  c22b93c0    00000007     rts6740_elf.lib : _scanfi.c.obj (.const:.string:flit$1)
                  c22b93c7    00000001     --HOLE-- [fill = 0]
                  c22b93c8    00000006                     : _scanfi.c.obj (.const:.string:barr$2)
                  c22b93ce    00000002     --HOLE-- [fill = 0]
                  c22b93d0    00000004     lv_img_buf.obj (.const:.string:$P$T1$1)
                  c22b93d4    00000004     Local_pe674.oe674 (.const:ti_sysbios_knl_Clock_Module__diagsMask__C)
                  c22b93d8    00000004     lv_img_decoder.obj (.const:.string:$P$T6$6)
                  c22b93dc    00000004     Local_pe674.oe674 (.const:ti_sysbios_knl_Clock_Module__loggerFxn1__C)
                  c22b93e0    00000004     lv_draw_sw_letter.obj (.const:.string:_lv_bpp2_opa_table)
                  c22b93e4    00000004     Local_pe674.oe674 (.const:ti_sysbios_knl_Clock_Module__loggerFxn2__C)
                  c22b93e8    00000004     Local_pe674.oe674 (.const:ti_sysbios_knl_Clock_Module__loggerObj__C)
                  c22b93ec    00000004     Local_pe674.oe674 (.const:ti_sysbios_knl_Semaphore_A_badContext__C)
                  c22b93f0    00000004     Local_pe674.oe674 (.const:ti_sysbios_knl_Semaphore_A_noEvents__C)
                  c22b93f4    00000004     Local_pe674.oe674 (.const:ti_sysbios_knl_Semaphore_A_overflow__C)
                  c22b93f8    00000004     Local_pe674.oe674 (.const:ti_sysbios_knl_Semaphore_A_pendTaskDisabled__C)
                  c22b93fc    00000004     Local_pe674.oe674 (.const:ti_sysbios_knl_Semaphore_Instance_State_pendQ__O)
                  c22b9400    00000004     Local_pe674.oe674 (.const:ti_sysbios_knl_Semaphore_LM_pend__C)
                  c22b9404    00000004     Local_pe674.oe674 (.const:ti_sysbios_knl_Semaphore_LM_post__C)
                  c22b9408    00000004     Local_pe674.oe674 (.const:ti_sysbios_knl_Semaphore_Module__diagsEnabled__C)
                  c22b940c    00000004     Local_pe674.oe674 (.const:ti_sysbios_knl_Semaphore_Module__diagsIncluded__C)
                  c22b9410    00000004     Local_pe674.oe674 (.const:ti_sysbios_knl_Semaphore_Module__diagsMask__C)
                  c22b9414    00000004     Local_pe674.oe674 (.const:ti_sysbios_knl_Semaphore_Module__loggerFxn2__C)
                  c22b9418    00000004     Local_pe674.oe674 (.const:ti_sysbios_knl_Semaphore_Module__loggerFxn4__C)
                  c22b941c    00000004     Local_pe674.oe674 (.const:ti_sysbios_knl_Semaphore_Module__loggerObj__C)
                  c22b9420    00000004     Local_pe674.oe674 (.const:ti_sysbios_knl_Swi_A_badPriority__C)
                  c22b9424    00000004     Local_pe674.oe674 (.const:ti_sysbios_knl_Swi_A_swiDisabled__C)
                  c22b9428    00000004     Local_pe674.oe674 (.const:ti_sysbios_knl_Swi_LD_end__C)
                  c22b942c    00000004     Local_pe674.oe674 (.const:ti_sysbios_knl_Swi_LM_begin__C)
                  c22b9430    00000004     Local_pe674.oe674 (.const:ti_sysbios_knl_Swi_LM_post__C)
                  c22b9434    00000004     Local_pe674.oe674 (.const:ti_sysbios_knl_Swi_Module__diagsEnabled__C)
                  c22b9438    00000004     Local_pe674.oe674 (.const:ti_sysbios_knl_Swi_Module__diagsIncluded__C)
                  c22b943c    00000004     Local_pe674.oe674 (.const:ti_sysbios_knl_Swi_Module__diagsMask__C)
                  c22b9440    00000004     Local_pe674.oe674 (.const:ti_sysbios_knl_Swi_Module__loggerFxn1__C)
                  c22b9444    00000004     Local_pe674.oe674 (.const:ti_sysbios_knl_Swi_Module__loggerFxn4__C)
                  c22b9448    00000004     Local_pe674.oe674 (.const:ti_sysbios_knl_Swi_Module__loggerObj__C)
                  c22b944c    00000004     Local_pe674.oe674 (.const:ti_sysbios_knl_Swi_Object__count__C)
                  c22b9450    00000004     Local_pe674.oe674 (.const:ti_sysbios_knl_Swi_Object__heap__C)
                  c22b9454    00000004     Local_pe674.oe674 (.const:ti_sysbios_knl_Swi_Object__table__C)
                  c22b9458    00000004     Local_pe674.oe674 (.const:ti_sysbios_knl_Swi_numConstructedSwis__C)
                  c22b945c    00000004     Local_pe674.oe674 (.const:ti_sysbios_knl_Task_A_badPriority__C)
                  c22b9460    00000004     Local_pe674.oe674 (.const:ti_sysbios_knl_Task_A_badTaskState__C)
                  c22b9464    00000004     Local_pe674.oe674 (.const:ti_sysbios_knl_Task_A_badThreadType__C)
                  c22b9468    00000004     Local_pe674.oe674 (.const:ti_sysbios_knl_Task_A_badTimeout__C)
                  c22b946c    00000004     Local_pe674.oe674 (.const:ti_sysbios_knl_Task_A_noPendElem__C)
                  c22b9470    00000004     Local_pe674.oe674 (.const:ti_sysbios_knl_Task_A_sleepTaskDisabled__C)
                  c22b9474    00000004     Local_pe674.oe674 (.const:ti_sysbios_knl_Task_A_taskDisabled__C)
                  c22b9478    00000004     Local_pe674.oe674 (.const:ti_sysbios_knl_Task_E_deleteNotAllowed__C)
                  c22b947c    00000004     Local_pe674.oe674 (.const:ti_sysbios_knl_Task_E_spOutOfBounds__C)
                  c22b9480    00000004     Local_pe674.oe674 (.const:ti_sysbios_knl_Task_E_stackOverflow__C)
                  c22b9484    00000004     Local_pe674.oe674 (.const:ti_sysbios_knl_Task_LD_block__C)
                  c22b9488    00000004     Local_pe674.oe674 (.const:ti_sysbios_knl_Task_LD_exit__C)
                  c22b948c    00000004     Local_pe674.oe674 (.const:ti_sysbios_knl_Task_LD_ready__C)
                  c22b9490    00000004     Local_pe674.oe674 (.const:ti_sysbios_knl_Task_LM_sleep__C)
                  c22b9494    00000004     Local_pe674.oe674 (.const:ti_sysbios_knl_Task_LM_switch__C)
                  c22b9498    00000004     Local_pe674.oe674 (.const:ti_sysbios_knl_Task_Module_State_inactiveQ__O)
                  c22b949c    00000004     Local_pe674.oe674 (.const:ti_sysbios_knl_Task_Module_State_terminatedQ__O)
                  c22b94a0    00000004     Local_pe674.oe674 (.const:ti_sysbios_knl_Task_Module__diagsEnabled__C)
                  c22b94a4    00000004     Local_pe674.oe674 (.const:ti_sysbios_knl_Task_Module__diagsIncluded__C)
                  c22b94a8    00000004     Local_pe674.oe674 (.const:ti_sysbios_knl_Task_Module__diagsMask__C)
                  c22b94ac    00000004     Local_pe674.oe674 (.const:ti_sysbios_knl_Task_Module__loggerFxn2__C)
                  c22b94b0    00000004     Local_pe674.oe674 (.const:ti_sysbios_knl_Task_Module__loggerFxn4__C)
                  c22b94b4    00000004     Local_pe674.oe674 (.const:ti_sysbios_knl_Task_Module__loggerObj__C)
                  c22b94b8    00000004     Local_pe674.oe674 (.const:ti_sysbios_knl_Task_Object__count__C)
                  c22b94bc    00000004     Local_pe674.oe674 (.const:ti_sysbios_knl_Task_Object__heap__C)
                  c22b94c0    00000004     Local_pe674.oe674 (.const:ti_sysbios_knl_Task_Object__table__C)
                  c22b94c4    00000004     Local_pe674.oe674 (.const:ti_sysbios_knl_Task_allBlockedFunc__C)
                  c22b94c8    00000004     Local_pe674.oe674 (.const:ti_sysbios_knl_Task_defaultStackHeap__C)
                  c22b94cc    00000004     Local_pe674.oe674 (.const:ti_sysbios_knl_Task_defaultStackSize__C)
                  c22b94d0    00000004     Local_pe674.oe674 (.const:ti_sysbios_knl_Task_numConstructedTasks__C)
                  c22b94d4    00000004     Local_pe674.oe674 (.const:ti_sysbios_timers_timer64_Timer_A_notAvailable__C)
                  c22b94d8    00000004     Local_pe674.oe674 (.const:ti_sysbios_timers_timer64_Timer_E_cannotSupport__C)
                  c22b94dc    00000004     Local_pe674.oe674 (.const:ti_sysbios_timers_timer64_Timer_E_invalidTimer__C)
                  c22b94e0    00000004     Local_pe674.oe674 (.const:ti_sysbios_timers_timer64_Timer_E_notAvailable__C)
                  c22b94e4    00000004     Local_pe674.oe674 (.const:ti_sysbios_timers_timer64_Timer_Module__diagsEnabled__C)
                  c22b94e8    00000004     Local_pe674.oe674 (.const:ti_sysbios_timers_timer64_Timer_Module__diagsIncluded__C)
                  c22b94ec    00000004     Local_pe674.oe674 (.const:ti_sysbios_timers_timer64_Timer_Module__diagsMask__C)
                  c22b94f0    00000004     Local_pe674.oe674 (.const:ti_sysbios_timers_timer64_Timer_anyMask__C)
                  c22b94f4    00000004     Local_pe674.oe674 (.const:ti_sysbios_timers_timer64_Timer_defaultHalf__C)
                  c22b94f8    00000004     Local_pe674.oe674 (.const:ti_sysbios_timers_timer64_Timer_freqDivisor__C)
                  c22b94fc    00000004     Local_pe674.oe674 (.const:ti_sysbios_timers_timer64_Timer_numLocalTimers__C)
                  c22b9500    00000004     Local_pe674.oe674 (.const:ti_sysbios_timers_timer64_Timer_numTimerDevices__C)
                  c22b9504    00000004     Local_pe674.oe674 (.const:ti_sysbios_utils_Load_LS_cpuLoad__C)
                  c22b9508    00000004     Local_pe674.oe674 (.const:ti_sysbios_utils_Load_LS_hwiLoad__C)
                  c22b950c    00000004     Local_pe674.oe674 (.const:ti_sysbios_utils_Load_LS_swiLoad__C)
                  c22b9510    00000004     Local_pe674.oe674 (.const:ti_sysbios_utils_Load_LS_taskLoad__C)
                  c22b9514    00000004     Local_pe674.oe674 (.const:ti_sysbios_utils_Load_Module_State_taskList__O)
                  c22b9518    00000004     Local_pe674.oe674 (.const:ti_sysbios_utils_Load_Module__diagsEnabled__C)
                  c22b951c    00000004     Local_pe674.oe674 (.const:ti_sysbios_utils_Load_Module__diagsIncluded__C)
                  c22b9520    00000004     Local_pe674.oe674 (.const:ti_sysbios_utils_Load_Module__diagsMask__C)
                  c22b9524    00000004     Local_pe674.oe674 (.const:ti_sysbios_utils_Load_Module__loggerFxn1__C)
                  c22b9528    00000004     Local_pe674.oe674 (.const:ti_sysbios_utils_Load_Module__loggerFxn2__C)
                  c22b952c    00000004     Local_pe674.oe674 (.const:ti_sysbios_utils_Load_Module__loggerFxn4__C)
                  c22b9530    00000004     Local_pe674.oe674 (.const:ti_sysbios_utils_Load_Module__loggerObj__C)
                  c22b9534    00000004     Local_pe674.oe674 (.const:ti_sysbios_utils_Load_postUpdate__C)
                  c22b9538    00000004     Local_pe674.oe674 (.const:ti_sysbios_utils_Load_windowInMs__C)
                  c22b953c    00000004     Local_pe674.oe674 (.const:xdc_runtime_Assert_E_assertFailed__C)
                  c22b9540    00000004     Local_pe674.oe674 (.const:xdc_runtime_Core_A_initializedParams__C)
                  c22b9544    00000004     Local_pe674.oe674 (.const:xdc_runtime_Core_Module__diagsEnabled__C)
                  c22b9548    00000004     Local_pe674.oe674 (.const:xdc_runtime_Core_Module__diagsIncluded__C)
                  c22b954c    00000004     Local_pe674.oe674 (.const:xdc_runtime_Core_Module__diagsMask__C)
                  c22b9550    00000004     Local_pe674.oe674 (.const:xdc_runtime_Error_E_memory__C)
                  c22b9554    00000004     Local_pe674.oe674 (.const:xdc_runtime_Error_Module__diagsEnabled__C)
                  c22b9558    00000004     Local_pe674.oe674 (.const:xdc_runtime_Error_Module__diagsIncluded__C)
                  c22b955c    00000004     Local_pe674.oe674 (.const:xdc_runtime_Error_Module__diagsMask__C)
                  c22b9560    00000004     Local_pe674.oe674 (.const:xdc_runtime_Error_Module__loggerFxn8__C)
                  c22b9564    00000004     Local_pe674.oe674 (.const:xdc_runtime_Error_Module__loggerObj__C)
                  c22b9568    00000004     Local_pe674.oe674 (.const:xdc_runtime_Error_policy__C)
                  c22b956c    00000004     Local_pe674.oe674 (.const:xdc_runtime_Error_raiseHook__C)
                  c22b9570    00000004     Local_pe674.oe674 (.const:xdc_runtime_IGateProvider_Interface__BASE__C)
                  c22b9574    00000004     Local_pe674.oe674 (.const:xdc_runtime_IHeap_Interface__BASE__C)
                  c22b9578    00000004     Local_pe674.oe674 (.const:xdc_runtime_ILogger_Interface__BASE__C)
                  c22b957c    00000004     Local_pe674.oe674 (.const:xdc_runtime_IModule_Interface__BASE__C)
                  c22b9580    00000004     Local_pe674.oe674 (.const:xdc_runtime_Log_L_error__C)
                  c22b9584    00000004     Local_pe674.oe674 (.const:xdc_runtime_Memory_defaultHeapInstance__C)
                  c22b9588    00000004     Local_pe674.oe674 (.const:xdc_runtime_Startup_execImpl__C)
                  c22b958c    00000004     Local_pe674.oe674 (.const:xdc_runtime_Startup_maxPasses__C)
                  c22b9590    00000004     Local_pe674.oe674 (.const:xdc_runtime_Startup_lastFxns__A)
                  c22b9594    00000004     Local_pe674.oe674 (.const:xdc_runtime_Startup_sfxnRts__C)
                  c22b9598    00000004     Local_pe674.oe674 (.const:xdc_runtime_Startup_sfxnTab__C)
                  c22b959c    00000004     Local_pe674.oe674 (.const:xdc_runtime_Startup_startModsFxn__C)
                  c22b95a0    00000004     Local_pe674.oe674 (.const:xdc_runtime_SysMin_bufSize__C)
                  c22b95a4    00000004     Local_pe674.oe674 (.const:xdc_runtime_SysMin_outputFunc__C)
                  c22b95a8    00000004     Local_pe674.oe674 (.const:xdc_runtime_System_Module__gateObj__C)
                  c22b95ac    00000004     Local_pe674.oe674 (.const:xdc_runtime_System_extendFxn__C)
                  c22b95b0    00000004     Local_pe674.oe674 (.const:xdc_runtime_System_maxAtexitHandlers__C)
                  c22b95b4    00000004     Local_pe674.oe674 (.const:xdc_runtime_Text_charTab__C)
                  c22b95b8    00000004     Local_pe674.oe674 (.const:xdc_runtime_Text_nameEmpty__C)
                  c22b95bc    00000004     Local_pe674.oe674 (.const:xdc_runtime_Text_nameStatic__C)
                  c22b95c0    00000004     Local_pe674.oe674 (.const:xdc_runtime_Text_nameUnknown__C)
                  c22b95c4    00000004     Local_pe674.oe674 (.const:xdc_runtime_Text_nodeTab__C)
                  c22b95c8    00000004     Local_pe674.oe674 (.const:xdc_runtime_Text_visitRopeFxn__C)
                  c22b95cc    00000004     --HOLE-- [fill = 0]
                  c22b95d0    00000002     lv_textarea.obj (.const:.string:$P$T3$4)
                  c22b95d2    00000006     --HOLE-- [fill = 0]
                  c22b95d8    00000002     lv_img_decoder.obj (.const:.string:$P$T5$5)
                  c22b95da    00000006     --HOLE-- [fill = 0]
                  c22b95e0    00000002     lv_draw_sw_letter.obj (.const:.string:_lv_bpp1_opa_table)

.switch.1 
*          0    c22b95e4    0000021c     
                  c22b95e4    00000090     lv_style.obj (.switch:lv_style_prop_get_default)
                  c22b9674    00000070     lv_event.obj (.switch:event_is_bubbled)
                  c22b96e4    0000006c     cJSON.obj (.switch:parse_number)
                  c22b9750    0000005c     rts6740_elf.lib : _scanfi.c.obj (.switch:__TI_scanfi)
                  c22b97ac    00000054     lv_area.obj (.switch:lv_area_align)

.fardata   0    c22b9800    00001434     UNINITIALIZED
                  c22b9800    00000400     SATA.obj (.fardata:CmdLists)
                  c22b9c00    00000400     Local_pe674.oe674 (.fardata:ti_sysbios_family_c64p_EventCombiner_Module__state__V)
                  c22ba000    000001e0     rts6740_elf.lib : defs.c.obj (.fardata:_ftable)
                  c22ba1e0    000000c0     Command.obj (.fardata:g_sCmdTable)
                  c22ba2a0    000000a0     rts6740_elf.lib : write.c.obj (.fardata:_stream)
                  c22ba340    000000a0     Local_pe674.oe674 (.fardata:ti_sysbios_knl_Task_Object__table__V)
                  c22ba3e0    00000098     Local_pe674.oe674 (.fardata:ti_sysbios_utils_Load_Module__state__V)
                  c22ba478    0000008c     Local_pe674.oe674 (.fardata:ti_sysbios_family_c64p_Hwi_Object__table__V)
                  c22ba504    00000004     rts6740_elf.lib : _lock.c.obj (.fardata:_lock)
                  c22ba508    00000080     Local_pe674.oe674 (.fardata:ti_sysbios_knl_Swi_Module_State_0_readyQ__A)
                  c22ba588    00000080     Local_pe674.oe674 (.fardata:ti_sysbios_knl_Task_Module_State_0_readyQ__A)
                  c22ba608    00000078     rts6740_elf.lib : write.c.obj (.fardata:_device)
                  c22ba680    00000068     Local_pe674.oe674 (.fardata:ti_sysbios_family_c64p_Hwi_Module__state__V)
                  c22ba6e8    00000060     Local_pe674.oe674 (.fardata:ti_sysbios_timers_timer64_Timer_Module_State_0_device__A)
                  c22ba748    00000050     Local_pe674.oe674 (.fardata:ti_sysbios_gates_GateMutex_Object__table__V)
                  c22ba798    00000050     Local_pe674.oe674 (.fardata:ti_sysbios_timers_timer64_Timer_Object__table__V)
                  c22ba7e8    00000050     DDR2.obj (.fardata:ulDataPatternTable)
                  c22ba838    00000044     Local_pe674.oe674 (.fardata:ti_sysbios_knl_Task_Module__state__V)
                  c22ba87c    00000004     rts6740_elf.lib : _lock.c.obj (.fardata:_unlock)
                  c22ba880    00000038     Local_pe674.oe674 (.fardata:ti_sysbios_utils_Load_Module_State_0_taskEnv__A)
                  c22ba8b8    00000034     Local_pe674.oe674 (.fardata:ti_sysbios_knl_Swi_Object__table__V)
                  c22ba8ec    00000004     rts6740_elf.lib : defs.c.obj (.fardata)
                  c22ba8f0    00000030     lv_calendar_header_arrow.obj (.fardata:month_names_def)
                  c22ba920    00000030     Local_pe674.oe674 (.fardata:ti_sysbios_family_c64p_Exception_Module__state__V)
                  c22ba950    00000028     Local_pe674.oe674 (.fardata:ti_sysbios_knl_Clock_Module__state__V)
                  c22ba978    00000024     lv_keyboard.obj (.fardata:kb_ctrl)
                  c22ba99c    00000004     rts6740_elf.lib : dtor_list.c.obj (.fardata)
                  c22ba9a0    00000024     lv_keyboard.obj (.fardata:kb_map)
                  c22ba9c4    00000004     rts6740_elf.lib : errno.c.obj (.fardata)
                  c22ba9c8    00000020     LCD.obj (.fardata:palette_32b)
                  c22ba9e8    00000020     Local_pe674.oe674 (.fardata:ti_sysbios_BIOS_Module__state__V)
                  c22baa08    00000020     Local_pe674.oe674 (.fardata:ti_sysbios_timers_timer64_Timer_Module_State_0_gctrl__A)
                  c22baa28    00000020     Local_pe674.oe674 (.fardata:ti_sysbios_timers_timer64_Timer_Module_State_0_handles__A)
                  c22baa48    00000020     Local_pe674.oe674 (.fardata:ti_sysbios_timers_timer64_Timer_Module_State_0_intFreqs__A)
                  c22baa68    00000020     Local_pe674.oe674 (.fardata:xdc_runtime_System_Module_State_0_atexitHandlers__A)
                  c22baa88    0000001c     lv_calendar.obj (.fardata:day_names_def)
                  c22baaa4    00000004     Local_pe674.oe674 (.fardata:ti_sysbios_family_c64p_Cache_Module__state__V)
                  c22baaa8    0000001c     lv_btnmatrix.obj (.fardata:lv_btnmatrix_def_map)
                  c22baac4    00000004     Local_pe674.oe674 (.fardata:ti_sysbios_family_c64p_primus_TimerSupport_Module__state__V)
                  c22baac8    0000001c     Local_pe674.oe674 (.fardata:ti_sysbios_heaps_HeapMem_Object__table__V)
                  c22baae4    0000001c     Local_pe674.oe674 (.fardata:ti_sysbios_knl_Swi_Module__state__V)
                  c22bab00    00000014     lv_log.obj (.fardata:lvl_prefix$2)
                  c22bab14    00000014     Local_pe674.oe674 (.fardata:ti_sysbios_timers_timer64_Timer_Module__state__V)
                  c22bab28    00000010     LEDNixie.obj (.fardata:SEGVal)
                  c22bab38    0000000c     cJSON.obj (.fardata:global_hooks)
                  c22bab44    0000000c     rts6740_elf.lib : exit.c.obj (.fardata)
                  c22bab50    0000000c     Local_pe674.oe674 (.fardata:ti_sysbios_hal_Hwi_Object__table__V)
                  c22bab5c    00000004     Local_pe674.oe674 (.fardata:xdc_runtime_Memory_Module__state__V)
                  c22bab60    0000000c     Local_pe674.oe674 (.fardata:ti_sysbios_hal_Timer_Object__table__V)
                  c22bab6c    00000002     lv_hal_disp.obj (.fardata:bg_color_save$5)
                  c22bab6e    00000002     lv_hal_disp.obj (.fardata:fg_color_save$4)
                  c22bab70    0000000c     Local_pe674.oe674 (.fardata:xdc_runtime_LoggerSys_Object__table__V)
                  c22bab7c    0000000c     Local_pe674.oe674 (.fardata:xdc_runtime_SysMin_Module__state__V)
                  c22bab88    0000000c     Local_pe674.oe674 (.fardata:xdc_runtime_System_Module__state__V)
                  c22bab94    00000008     cJSON.obj (.fardata:global_error)
                  c22bab9c    00000008     Local_pe674.oe674 (.fardata:ti_sysbios_family_c64p_Hwi_Module__root__V)
                  c22baba4    00000002     lv_hal_disp.obj (.fardata:res_color_saved$6)
                  c22baba6    00000002     Local_pe674.oe674 (.fardata:xdc_runtime_Error_Module__state__V)
                  c22baba8    00000008     Local_pe674.oe674 (.fardata:ti_sysbios_family_c64p_primus_TimerSupport_Module_State_0_suspSrc__A)
                  c22babb0    00000008     Local_pe674.oe674 (.fardata:ti_sysbios_gates_GateHwi_Module__root__V)
                  c22babb8    00000008     Local_pe674.oe674 (.fardata:ti_sysbios_gates_GateHwi_Object__table__V)
                  c22babc0    00000008     Local_pe674.oe674 (.fardata:ti_sysbios_gates_GateMutex_Module__root__V)
                  c22babc8    00000008     Local_pe674.oe674 (.fardata:ti_sysbios_hal_Hwi_Module__root__V)
                  c22babd0    00000008     Local_pe674.oe674 (.fardata:ti_sysbios_heaps_HeapMem_Module__root__V)
                  c22babd8    00000008     Local_pe674.oe674 (.fardata:ti_sysbios_knl_Clock_Module__root__V)
                  c22babe0    00000008     Local_pe674.oe674 (.fardata:ti_sysbios_knl_Queue_Module__root__V)
                  c22babe8    00000008     Local_pe674.oe674 (.fardata:ti_sysbios_knl_Semaphore_Module__root__V)
                  c22babf0    00000008     Local_pe674.oe674 (.fardata:ti_sysbios_knl_Swi_Module__root__V)
                  c22babf8    00000008     Local_pe674.oe674 (.fardata:ti_sysbios_knl_Task_Module__root__V)
                  c22bac00    00000008     Local_pe674.oe674 (.fardata:ti_sysbios_timers_timer64_Timer_Module__root__V)
                  c22bac08    00000008     Local_pe674.oe674 (.fardata:xdc_runtime_LoggerSys_Module__root__V)
                  c22bac10    00000008     Local_pe674.oe674 (.fardata:xdc_runtime_Registry_Module__state__V)
                  c22bac18    00000008     Local_pe674.oe674 (.fardata:xdc_runtime_Startup_Module__state__V)
                  c22bac20    00000004     Local_pe674.oe674 (.fardata:ti_sysbios_knl_Task_Module_State_0_idleTask__A)
                  c22bac24    00000004     --HOLE--
                  c22bac28    00000004     Local_pe674.oe674 (.fardata:ti_sysbios_utils_Load_Module_State_0_runningTask__A)
                  c22bac2c    00000004     --HOLE--
                  c22bac30    00000004     Local_pe674.oe674 (.fardata:ti_sysbios_utils_Load_Module_State_0_taskStartTime__A)

.switch.2 
*          0    c22bac34    000004c0     
                  c22bac34    0000005c     lv_printf.obj (.switch:_vsnprintf)
                  c22bac90    00000054     lv_obj_pos.obj (.switch:lv_obj_align_to)
                  c22bace4    00000044     lv_obj_pos.obj (.switch:calc_content_width)
                  c22bad28    00000040     cJSON.obj (.switch:cJSON_Compare)
                  c22bad68    00000040     lv_tabview.obj (.switch:lv_tabview_constructor)
                  c22bada8    0000003c     lv_draw_img.obj (.switch:lv_img_cf_get_px_size)
                  c22bade4    00000038     rts6740_elf.lib : _printfi.c.obj (.switch:__TI_printfi)
                  c22bae1c    00000034     lv_draw_img.obj (.switch:lv_img_cf_has_alpha)
                  c22bae50    00000030     cJSON.obj (.switch:print_string_ptr)
                  c22bae80    00000030     lv_obj_style.obj (.switch:trans_anim_cb)
                  c22baeb0    0000002c     lv_img_buf.obj (.switch:lv_img_buf_get_img_size)
                  c22baedc    00000028     lv_hal_disp.obj (.switch:lv_disp_drv_use_generic_set_px_cb)
                  c22baf04    00000028     lv_disp.obj (.switch:lv_scr_load_anim)
                  c22baf2c    00000020     Flash.obj (.switch:SPI1CSPinMuxSet)
                  c22baf4c    00000020     lv_draw_sw_letter.obj (.switch:draw_letter_normal)
                  c22baf6c    00000020     lv_grid.obj (.switch:item_repos)
                  c22baf8c    00000020     lv_obj_pos.obj (.switch:lv_obj_refr_pos)
                  c22bafac    00000020     cJSON.obj (.switch:parse_string)
                  c22bafcc    00000020     cJSON.obj (.switch:print_value)
                  c22bafec    0000001c     lv_grid.obj (.switch:grid_align)
                  c22bb008    00000018     lv_draw_label.obj (.switch:hex_char_to_num)
                  c22bb020    00000014     lv_chart.obj (.switch:get_tick_gsc)
                  c22bb034    00000014     lv_chart.obj (.switch:lv_chart_set_range)
                  c22bb048    00000014     lv_color.obj (.switch:lv_color_hsv_to_rgb)
                  c22bb05c    00000014     lv_flex.obj (.switch:place_content)
                  c22bb070    00000014     sysbios.ae674 : BIOS.obj (.switch:ti_sysbios_timers_timer64_Timer_Instance_finalize__F)
                  c22bb084    00000010     Command.obj (.switch:Cmd_LED)
                  c22bb094    00000010     drivers.lib : gpio.obj (.switch:GPIOIntTypeSet)
                  c22bb0a4    00000010     UARTConsole.obj (.switch:ReadLine)
                  c22bb0b4    00000010     lv_obj_pos.obj (.switch:calc_content_height)
                  c22bb0c4    00000010     lv_img_decoder.obj (.switch:lv_img_decoder_built_in_line_alpha)
                  c22bb0d4    00000010     lv_img_decoder.obj (.switch:lv_img_decoder_built_in_line_indexed)
                  c22bb0e4    00000010     sysbios.ae674 : BIOS.obj (.switch:ti_sysbios_family_c64p_Hwi_reconfig__E)

.cio       0    c22bb2a0    00000120     UNINITIALIZED
                  c22bb2a0    00000120     rts6740_elf.lib : trgmsg.c.obj (.cio)

MODULE SUMMARY

       Module                                code     ro data   rw data 
       ------                                ----     -------   ------- 
    .\
       main.obj                              512      120       0       
    +--+-------------------------------------+--------+---------+----------+
       Total:                                512      120       0       
                                                                        
    .\Console\
       Command.obj                           2432     864       65728   
       UARTConsole.obj                       2464     140       2251    
       cmdline.obj                           352      0         36      
    +--+-------------------------------------+--------+---------+----------+
       Total:                                5248     1004      68015   
                                                                        
    .\Helper\
       Exception.obj                         928      872       0       
       SysMinProvide.obj                     128      4         0       
    +--+-------------------------------------+--------+---------+----------+
       Total:                                1056     876       0       
                                                                        
    .\LVGL\lv_chinese_ime\
       lv_font_source_han_sans_bold_14.obj   0        143794    8       
    +--+-------------------------------------+--------+---------+----------+
       Total:                                0        143794    8       
                                                                        
    .\LVGL\lv_chinese_ime\src\
       zh_cn_pinyin_dict.obj                 0        32959     4       
       cJSON.obj                             25088    444       35      
       chinese_ime.obj                       1856     28        12      
    +--+-------------------------------------+--------+---------+----------+
       Total:                                26944    33431     51      
                                                                        
    .\LVGL\porting\
       lv_port_disp_c674x.obj                1376     0         32104   
       lv_port_indev_c674x.obj               416      0         40      
    +--+-------------------------------------+--------+---------+----------+
       Total:                                1792     0         32144   
                                                                        
    .\LVGL\src\core\
       lv_obj_pos.obj                        14944    327       5       
       lv_obj_scroll.obj                     12288    8         0       
       lv_obj_style.obj                      11840    208       1       
       lv_indev.obj                          11744    0         12      
       lv_refr.obj                           10464    259       40      
       lv_obj.obj                            10016    266       8       
       lv_indev_scroll.obj                   7680     0         0       
       lv_obj_style_gen.obj                  7296     0         0       
       lv_event.obj                          6208     325       8       
       lv_obj_draw.obj                       6112     0         0       
       lv_group.obj                          5088     137       4       
       lv_obj_tree.obj                       4160     0         0       
       lv_disp.obj                           4000     40        0       
       lv_obj_class.obj                      1568     0         0       
       lv_theme.obj                          896      0         0       
    +--+-------------------------------------+--------+---------+----------+
       Total:                                114304   1570      78      
                                                                        
    .\LVGL\src\draw\
       lv_draw_mask.obj                      20640    291       0       
       lv_img_buf.obj                        11872    64        0       
       lv_img_decoder.obj                    7744     378       0       
       lv_draw_label.obj                     4096     28        0       
       lv_draw_arc.obj                       3008     0         0       
       lv_draw_img.obj                       2656     120       0       
       lv_draw_rect.obj                      608      0         0       
       lv_draw_line.obj                      384      0         0       
       lv_img_cache.obj                      320      0         0       
       lv_draw.obj                           64       0         0       
    +--+-------------------------------------+--------+---------+----------+
       Total:                                51392    881       0       
                                                                        
    .\LVGL\src\draw\sw\
       lv_draw_sw_rect.obj                   17504    28        0       
       lv_draw_sw_blend.obj                  8864     0         0       
       lv_draw_sw_arc.obj                    7712     0         0       
       lv_draw_sw_line.obj                   4896     33        0       
       lv_draw_sw_gradient.obj               3424     169       9       
       lv_draw_sw_img.obj                    3200     0         0       
       lv_draw_sw_letter.obj                 2464     310       264     
       lv_draw_sw_polygon.obj                2144     8         0       
       lv_draw_sw.obj                        352      0         0       
    +--+-------------------------------------+--------+---------+----------+
       Total:                                50560    548       273     
                                                                        
    .\LVGL\src\extra\
       lv_extra.obj                          64       0         0       
    +--+-------------------------------------+--------+---------+----------+
       Total:                                64       0         0       
                                                                        
    .\LVGL\src\extra\layouts\flex\
       lv_flex.obj                           8352     139       24      
    +--+-------------------------------------+--------+---------+----------+
       Total:                                8352     139       24      
                                                                        
    .\LVGL\src\extra\layouts\grid\
       lv_grid.obj                           9024     60        44      
    +--+-------------------------------------+--------+---------+----------+
       Total:                                9024     60        44      
                                                                        
    .\LVGL\src\extra\themes\default\
       lv_theme_default.obj                  21376    48        109     
    +--+-------------------------------------+--------+---------+----------+
       Total:                                21376    48        109     
                                                                        
    .\LVGL\src\extra\widgets\calendar\
       lv_calendar.obj                       4128     206       28      
       lv_calendar_header_dropdown.obj       768      680       8       
       lv_calendar_header_arrow.obj          992      128       48      
    +--+-------------------------------------+--------+---------+----------+
       Total:                                5888     1014      84      
                                                                        
    .\LVGL\src\extra\widgets\chart\
       lv_chart.obj                          24864    823       0       
    +--+-------------------------------------+--------+---------+----------+
       Total:                                24864    823       0       
                                                                        
    .\LVGL\src\extra\widgets\colorwheel\
       lv_colorwheel.obj                     7712     28        6       
    +--+-------------------------------------+--------+---------+----------+
       Total:                                7712     28        6       
                                                                        
    .\LVGL\src\extra\widgets\keyboard\
       lv_keyboard.obj                       2816     1146      72      
    +--+-------------------------------------+--------+---------+----------+
       Total:                                2816     1146      72      
                                                                        
    .\LVGL\src\extra\widgets\led\
       lv_led.obj                            2080     28        0       
    +--+-------------------------------------+--------+---------+----------+
       Total:                                2080     28        0       
                                                                        
    .\LVGL\src\extra\widgets\list\
       lv_list.obj                           0        84        0       
    +--+-------------------------------------+--------+---------+----------+
       Total:                                0        84        0       
                                                                        
    .\LVGL\src\extra\widgets\menu\
       lv_menu.obj                           5536     256       0       
    +--+-------------------------------------+--------+---------+----------+
       Total:                                5536     256       0       
                                                                        
    .\LVGL\src\extra\widgets\meter\
       lv_meter.obj                          8960     258       0       
    +--+-------------------------------------+--------+---------+----------+
       Total:                                8960     258       0       
                                                                        
    .\LVGL\src\extra\widgets\msgbox\
       lv_msgbox.obj                         0        56        0       
    +--+-------------------------------------+--------+---------+----------+
       Total:                                0        56        0       
                                                                        
    .\LVGL\src\extra\widgets\spinbox\
       lv_spinbox.obj                        4480     32        0       
    +--+-------------------------------------+--------+---------+----------+
       Total:                                4480     32        0       
                                                                        
    .\LVGL\src\extra\widgets\spinner\
       lv_spinner.obj                        736      28        8       
    +--+-------------------------------------+--------+---------+----------+
       Total:                                736      28        8       
                                                                        
    .\LVGL\src\extra\widgets\tabview\
       lv_tabview.obj                        2976     96        4       
    +--+-------------------------------------+--------+---------+----------+
       Total:                                2976     96        4       
                                                                        
    .\LVGL\src\extra\widgets\tileview\
       lv_tileview.obj                       1536     56        12      
    +--+-------------------------------------+--------+---------+----------+
       Total:                                1536     56        12      
                                                                        
    .\LVGL\src\extra\widgets\win\
       lv_win.obj                            704      28        2       
    +--+-------------------------------------+--------+---------+----------+
       Total:                                704      28        2       
                                                                        
    .\LVGL\src\font\
       lv_font_montserrat_14.obj             0        14897     8       
       lv_font_fmt_txt.obj                   2752     0         0       
       lv_font.obj                           640      187       0       
    +--+-------------------------------------+--------+---------+----------+
       Total:                                3392     15084     8       
                                                                        
    .\LVGL\src\hal\
       lv_hal_disp.obj                       7520     305       13      
       lv_hal_indev.obj                      1536     234       0       
       lv_hal_tick.obj                       256      0         5       
    +--+-------------------------------------+--------+---------+----------+
       Total:                                9312     539       18      
                                                                        
    .\LVGL\src\misc\
       lv_mem.obj                            5568     450       1048584 
       lv_tlsf.obj                           12192    2738      0       
       lv_style_gen.obj                      7072     0         0       
       lv_txt.obj                            6432     118       32      
       lv_fs.obj                             5376     188       0       
       lv_printf.obj                         5344     92        0       
       lv_area.obj                           5280     84        0       
       lv_anim.obj                           4288     106       12      
       lv_style.obj                          3264     326       2       
       lv_color.obj                          3168     400       0       
       lv_ll.obj                             2304     0         0       
       lv_timer.obj                          2080     108       18      
       lv_math.obj                           1952     182       4       
       lv_gc.obj                             320      0         528     
       lv_log.obj                            576      76        28      
       lv_async.obj                          288      0         0       
       lv_utils.obj                          256      0         0       
    +--+-------------------------------------+--------+---------+----------+
       Total:                                65760    4868      1049208 
                                                                        
    .\LVGL\src\widgets\
       lv_textarea.obj                       13984    413       4       
       lv_btnmatrix.obj                      13344    220       28      
       lv_table.obj                          12448    406       0       
       lv_label.obj                          12448    389       0       
       lv_dropdown.obj                       11520    334       0       
       lv_arc.obj                            9632     28        0       
       lv_img.obj                            9248     135       0       
       lv_roller.obj                         7488     218       0       
       lv_bar.obj                            6912     28        0       
       lv_slider.obj                         6336     28        0       
       lv_checkbox.obj                       2720     40        0       
       lv_switch.obj                         2624     28        0       
       lv_line.obj                           1760     28        0       
       lv_btn.obj                            160      28        0       
    +--+-------------------------------------+--------+---------+----------+
       Total:                                110624   2323      32      
                                                                        
    .\Periph\
       DDR2.obj                              1472     424       80      
       RTC.obj                               1248     0         36      
       PLL.obj                               992      0         52      
       UART1.obj                             896      0         0       
       EHRPWM.obj                            768      0         0       
       Timer.obj                             256      0         1       
    +--+-------------------------------------+--------+---------+----------+
       Total:                                5632     424       169     
                                                                        
    .\Periph\GPIO\
       LED.obj                               1024     0         4       
       KEY.obj                               992      0         8       
       BUZZER.obj                            320      0         0       
    +--+-------------------------------------+--------+---------+----------+
       Total:                                2336     0         12      
                                                                        
    .\Periph\GPIO\LEDNixie\
       LEDNixie.obj                          96       1708      20      
    +--+-------------------------------------+--------+---------+----------+
       Total:                                96       1708      20      
                                                                        
    .\Periph\I2C\
       I2C.obj                               1664     0         10      
       EEPROM.obj                            1024     240       0       
       TempSensor.obj                        704      0         0       
    +--+-------------------------------------+--------+---------+----------+
       Total:                                3392     240       10      
                                                                        
    .\Periph\LCD\
       LCD.obj                               1248     0         768068  
       Touch.obj                             1632     148       42      
    +--+-------------------------------------+--------+---------+----------+
       Total:                                2880     148       768110  
                                                                        
    .\Periph\SATA\
       SATA.obj                              1696     0         1196    
       SATATest.obj                          672      56        0       
    +--+-------------------------------------+--------+---------+----------+
       Total:                                2368     56        1196    
                                                                        
    .\Periph\SPI\
       Flash.obj                             2592     304       800     
    +--+-------------------------------------+--------+---------+----------+
       Total:                                2592     304       800     
                                                                        
    D:\File\CoreKernel\DSP\C6748\Board_C674x\Debug\configPkg\package\cfg\
       Local_pe674.oe674                     10624    8387      33568550
    +--+-------------------------------------+--------+---------+----------+
       Total:                                10624    8387      33568550
                                                                        
    ../Library/Loader/Loader.lib
       PRULoader.obj                         480      0         0       
    +--+-------------------------------------+--------+---------+----------+
       Total:                                480      0         0       
                                                                        
    ../Library/StarterWare/Drivers/drivers.lib
       rtc.obj                               6048     0         0       
       raster.obj                            3584     0         0       
       ehrpwm.obj                            3520     0         0       
       spi.obj                               1440     0         0       
       gpio.obj                              1408     16        0       
       uart.obj                              1408     0         0       
       i2c.obj                               1216     0         0       
       psc.obj                               320      0         0       
    +--+-------------------------------------+--------+---------+----------+
       Total:                                18944    16        0       
                                                                        
    C:\ti\ndk_2_24_03_35\packages\ti\ndk\hal\timer_bios\lib\hal_timer_bios.ae674
       lltimer.oe674                         160      0         28      
    +--+-------------------------------------+--------+---------+----------+
       Total:                                160      0         28      
                                                                        
    C:\ti\ndk_2_24_03_35\packages\ti\ndk\hal\userled_stub\lib\hal_userled_stub.ae674
       llled.oe674                           32       0         0       
    +--+-------------------------------------+--------+---------+----------+
       Total:                                32       0         0       
                                                                        
    C:\ti\ndk_2_24_03_35\packages\ti\ndk\os\lib\os.ae674
       task.oe674                            192      0         24      
       semaphore.oe674                       32       0         0       
    +--+-------------------------------------+--------+---------+----------+
       Total:                                224      0         24      
                                                                        
    C:\ti\ti-cgt-c6000_8.3.12\lib\rts6740_elf.lib
       _printfi.c.obj                        13664    92        0       
       _scanfi.c.obj                         9056     121       0       
       strtod.c.obj                          2336     200       0       
       divd.c.obj                            1536     0         0       
       strtoll.c.obj                         1216     0         0       
       strtoull.c.obj                        1088     0         0       
       strtol.c.obj                          928      0         0       
       defs.c.obj                            0        0         804     
       imath64.c.obj                         800      0         0       
       strtoul.c.obj                         768      0         0       
       fputs.c.obj                           736      0         0       
       sscanf.c.obj                          512      0         0       
       trgmsg.c.obj                          224      0         288     
       dtor_list.c.obj                       448      0         4       
       fputc.c.obj                           448      0         0       
       frexp.c.obj                           448      0         0       
       getdevice.c.obj                       448      0         0       
       imath40.c.obj                         448      0         0       
       ldexp.c.obj                           448      0         0       
       setvbuf.c.obj                         448      0         0       
       hostrename.c.obj                      416      0         0       
       write.c.obj                           96       0         280     
       asctime.c.obj                         160      184       26      
       snprintf.c.obj                        320      0         0       
       copy_decompress_rle.c.obj             288      0         0       
       printf.c.obj                          288      0         0       
       exit.c.obj                            256      0         12      
       ctype.c.obj                           0        257       0       
       atoi.c.obj                            256      0         0       
       fclose.c.obj                          256      0         0       
       fseek.c.obj                           256      0         0       
       hostopen.c.obj                        224      0         8       
       _io_perm.c.obj                        224      0         0       
       _ltoa.c.obj                           224      0         0       
       close.c.obj                           224      0         0       
       divi.asm.obj                          224      0         0       
       hostlseek.c.obj                       224      0         0       
       hostwrite.c.obj                       224      0         0       
       llshift.c.obj                         224      0         0       
       memset.c.obj                          224      0         0       
       divu.asm.obj                          192      0         0       
       hostread.c.obj                        192      0         0       
       hostunlink.c.obj                      192      0         0       
       remi.asm.obj                          192      0         0       
       sprintf.c.obj                         192      0         0       
       fflush.c.obj                          160      0         0       
       fopen.c.obj                           160      0         0       
       hostclose.c.obj                       160      0         0       
       memcpy64.asm.obj                      160      0         0       
       remu.asm.obj                          160      0         0       
       vsprintf.c.obj                        160      0         0       
       strcat.c.obj                          128      0         0       
       unlink.c.obj                          128      0         0       
       _lock.c.obj                           96       0         8       
       lseek.c.obj                           96       0         0       
       memccpy.c.obj                         96       0         0       
       strcmp.c.obj                          96       0         0       
       strcpy.c.obj                          96       0         0       
       strncmp.c.obj                         96       0         0       
       args_main.c.obj                       64       0         0       
       frcmpyd_div.c.obj                     64       0         0       
       isinf.c.obj                           64       0         0       
       isnan.c.obj                           64       0         0       
       push.asm.obj                          64       0         0       
       strlen.c.obj                          64       0         0       
       wcslen.c.obj                          64       0         0       
       errno.c.obj                           32       0         4       
       copy_decompress_none.c.obj            32       0         0       
       signbit.c.obj                         32       0         0       
       tolower.c.obj                         32       0         0       
    +--+-------------------------------------+--------+---------+----------+
       Total:                                43936    854       1434    
                                                                        
    C:\ti\xdctools_3_25_06_96\packages\ti\targets\rts6000\lib\boot.ae674
       autoinit.oe674                        320      0         0       
       boot.oe674                            160      0         0       
    +--+-------------------------------------+--------+---------+----------+
       Total:                                480      0         0       
                                                                        
    C:\ti\xdctools_3_25_06_96\packages\ti\targets\rts6000\lib\ti.targets.rts6000.ae674
       System.oe674                          3232     25        0       
       Text.oe674                            1760     64        0       
       Error.oe674                           992      88        0       
       Startup.oe674                         864      44        0       
       Core-mem.oe674                        800      0         0       
       SysMin.oe674                          704      0         0       
       LoggerSys.oe674                       640      0         0       
       Log.oe674                             512      72        0       
       Memory.oe674                          384      0         0       
       Assert.oe674                          160      4         0       
       Core-label.oe674                      128      0         0       
       Core-params.oe674                     128      0         0       
       Gate.oe674                            64       0         0       
       Registry.oe674                        64       0         0       
    +--+-------------------------------------+--------+---------+----------+
       Total:                                10432    297       0       
                                                                        
    D:\File\CoreKernel\DSP\C6748\Board_C674x\BIOS\sysbios\sysbios.ae674
       BIOS.obj                              50912    1452      0       
       c64p_Hwi_disp_always.obj              512      0         0       
       c64p_Exception_asm.obj                384      0         0       
       c64p_Hwi_asm_switch.obj               288      0         0       
       c62_TaskSupport_asm.obj               224      0         0       
       c64p_Hwi_asm.obj                      160      0         0       
    +--+-------------------------------------+--------+---------+----------+
       Total:                                52480    1452      0       
                                                                        
       Stack:                                0        0         16384   
       Linker Generated:                     0        2975      0       
    +--+-------------------------------------+--------+---------+----------+
       Grand Total:                          705088   226079    35506937


LINKER GENERATED COPY TABLES

__TI_cinit_table @ c22bc170 records: 6, size/record: 8, table size: 48
	.fardata: load addr=c22bb600, load size=00000ac8 bytes, run addr=c22b9800, run size=00001434 bytes, compression=rle
	.neardata: load addr=c22bc0c8, load size=0000006a bytes, run addr=c22bb1e8, run size=000000b6 bytes, compression=rle
	SystemHeap: load addr=c22bc132, load size=00000016 bytes, run addr=c0000000, run size=02000000 bytes, compression=rle
	.far: load addr=c22bc148, load size=0000000d bytes, run addr=c2000000, run size=001d743c bytes, compression=rle
	.LEDNixieVal: load addr=c22bc155, load size=00000009 bytes, run addr=80000000, run size=00000004 bytes, compression=rle
	.bss: load addr=c22bc15e, load size=00000009 bytes, run addr=c22bb0f4, run size=000000f2 bytes, compression=rle


LINKER GENERATED HANDLER TABLE

__TI_handler_table @ c22bc168 records: 2, size/record: 4, table size: 8
	index: 0, handler: __TI_decompress_rle24
	index: 1, handler: __TI_decompress_none


GLOBAL SYMBOLS: SORTED ALPHABETICALLY BY Name 

address   name                                                                
-------   ----                                                                
c2277f2c  BUZZERBeep                                                          
c2277f88  BUZZERInit                                                          
c2281fe0  C$$EXIT                                                             
c227ed38  C$$IO$$                                                             
c2270ca0  CRC8                                                                
c2275420  CacheInit                                                           
c226fa14  ChopperWaveform                                                     
c21d5d28  CmdHistory                                                          
c22bb23b  CmdHistoryDisplayIndex                                              
c22bb23a  CmdHistorySaveIndex                                                 
c22bb239  CmdHistorySaveNo                                                    
c2277660  CmdLineProcess                                                      
c22b9800  CmdLists                                                            
c225d228  Cmd_Buzzer                                                          
c225d094  Cmd_DDR2                                                            
c225d2e8  Cmd_Date                                                            
c225cf54  Cmd_EEPROM                                                          
c225d104  Cmd_EHRPWM                                                          
c225cd60  Cmd_Help                                                            
c225ce00  Cmd_LED                                                             
c225cfac  Cmd_OV2640                                                          
c225d040  Cmd_PRULoad                                                         
c225d394  Cmd_RTC                                                             
c225d1d0  Cmd_SATA                                                            
c225cef8  Cmd_SPIFlash                                                        
c225d620  Cmd_WIFI                                                            
c227dba0  ConsoleLogger                                                       
c2267df8  DSP_core_MEM_Test                                                   
c2269e90  Delay                                                               
c226b870  EEPROMByteWrite                                                     
c226b954  EEPROMPageRead                                                      
c226b8c8  EEPROMPageWrite                                                     
c226b9e4  EEPROMRandomRead                                                    
c226b640  EEPROMTest                                                          
c22528ac  EHRPWMAQContSWForceOnA                                              
c2252908  EHRPWMAQContSWForceOnB                                              
c2252b38  EHRPWMChopperDisable                                                
c2252b14  EHRPWMChopperEnable                                                 
c2253044  EHRPWMClockDisable                                                  
c2253080  EHRPWMClockDisableStatusGet                                         
c2253028  EHRPWMClockEnable                                                   
c2253060  EHRPWMClockEnableStatusGet                                          
c2252f98  EHRPWMConfigHR                                                      
c2252700  EHRPWMConfigureAQActionOnA                                          
c22527b4  EHRPWMConfigureAQActionOnB                                          
c2252a60  EHRPWMConfigureChopperDuty                                          
c2252a98  EHRPWMConfigureChopperFreq                                          
c2252ae0  EHRPWMConfigureChopperOSPW                                          
c2252a2c  EHRPWMDBConfigureFED                                                
c22529fc  EHRPWMDBConfigureRED                                                
c22529cc  EHRPWMDBOutput                                                      
c2252998  EHRPWMDBPolaritySelect                                              
c2252964  EHRPWMDBSourceSelect                                                
c2252e74  EHRPWMETEventCount                                                  
c2252eb4  EHRPWMETIntClear                                                    
c2252dc8  EHRPWMETIntDisable                                                  
c2252dec  EHRPWMETIntEnable                                                   
c2252e44  EHRPWMETIntPrescale                                                 
c2252ed8  EHRPWMETIntSWForce                                                  
c2252e10  EHRPWMETIntSourceSelect                                             
c2252e94  EHRPWMETIntStatus                                                   
c2253004  EHRPWMHRDisable                                                     
c22525b4  EHRPWMLoadCMPA                                                      
c2252f34  EHRPWMLoadCMPAHR                                                    
c2252654  EHRPWMLoadCMPB                                                      
c2252f00  EHRPWMLoadTBPHSHR                                                   
c22523a0  EHRPWMPWMOpFreqSet                                                  
c2252550  EHRPWMReadTBCount                                                   
c2252868  EHRPWMSWForceA                                                      
c225288c  EHRPWMSWForceB                                                      
c225250c  EHRPWMSyncOutModeSet                                                
c2252588  EHRPWMTBClearStatus                                                 
c2252444  EHRPWMTBEmulationModeSet                                            
c2252568  EHRPWMTBStatusGet                                                   
c2252d60  EHRPWMTZFlagClear                                                   
c2252d38  EHRPWMTZFlagGet                                                     
c2252c14  EHRPWMTZForceAOnTrip                                                
c2252c48  EHRPWMTZForceBOnTrip                                                
c2252cd8  EHRPWMTZIntDisable                                                  
c2252c7c  EHRPWMTZIntEnable                                                   
c2252d80  EHRPWMTZSWFrcEvent                                                  
c2252bb8  EHRPWMTZTripEventDisable                                            
c2252b60  EHRPWMTZTripEventEnable                                             
c22522e0  EHRPWMTimebaseClkConfig                                             
c22524d0  EHRPWMTimebaseSyncDisable                                           
c2252478  EHRPWMTimebaseSyncEnable                                            
c22524f0  EHRPWMTriggerSWSync                                                 
c2252538  EHRPWMWriteTBCount                                                  
c22732a0  ExceptionHook                                                       
c22734a8  ExceptionReturnHook                                                 
c2273470  ExternalExceptionHook                                               
c22800c0  FunEntryHook                                                        
c22800d0  FunExitHook                                                         
c2268a04  GPIOBankIntDisable                                                  
c22689d4  GPIOBankIntEnable                                                   
c226f7e0  GPIOBankPinMuxSet                                                   
c2268a30  GPIOBankPinsWrite                                                   
c22685f8  GPIODirModeGet                                                      
c2268560  GPIODirModeSet                                                      
c22688a4  GPIOIntTypeGet                                                      
c2268738  GPIOIntTypeSet                                                      
c226898c  GPIOPinIntClear                                                     
c226892c  GPIOPinIntStatus                                                    
c22686d8  GPIOPinRead                                                         
c2268658  GPIOPinWrite                                                        
c227c840  HOSTclose                                                           
c227a720  HOSTlseek                                                           
c227a800  HOSTopen                                                            
c227bd00  HOSTread                                                            
c22763e0  HOSTrename                                                          
c227bdc0  HOSTunlink                                                          
c227a8e0  HOSTwrite                                                           
c227548c  HardwareInit                                                        
c226a8e4  I2CDMARxEventDisable                                                
c226a898  I2CDMARxEventEnable                                                 
c226a8c0  I2CDMATxEventDisable                                                
c226a874  I2CDMATxEventEnable                                                 
c226a860  I2CDMATxRxEventDisable                                              
c21d73c8  I2CData                                                             
c2264688  I2CHWRegRead                                                        
c2264568  I2CHWRegWrite                                                       
c2264880  I2CInit                                                             
c226a828  I2CInterruptVectorGet                                               
c226a688  I2CMasterBusBusy                                                    
c226a6d0  I2CMasterControl                                                    
c226a7a0  I2CMasterDataGet                                                    
c226a778  I2CMasterDataPut                                                    
c226a538  I2CMasterDisable                                                    
c226a500  I2CMasterEnable                                                     
c226a750  I2CMasterErr                                                        
c226a460  I2CMasterInitExpClk                                                 
c226a644  I2CMasterIntClearEx                                                 
c226a5a4  I2CMasterIntDisableEx                                               
c226a558  I2CMasterIntEnableEx                                                
c226a5ec  I2CMasterIntStatus                                                  
c226a6ac  I2CMasterIsBusy                                                     
c226a670  I2CMasterSlaveAddrSet                                               
c226a6f8  I2CMasterStart                                                      
c226a718  I2CMasterStop                                                       
c226a810  I2COwnAddressSet                                                    
c22643f0  I2CRcvBlocking                                                      
c22647e8  I2CRegBitClr                                                        
c2264748  I2CRegBitSet                                                        
c22645e0  I2CRegRead                                                          
c2264500  I2CRegWrite                                                         
c22642e4  I2CSendBlocking                                                     
c226a7f8  I2CSetDataCount                                                     
c226a844  I2CSlaveAddressGet                                                  
c226a7e0  I2CSlaveDataGet                                                     
c226a7b8  I2CSlaveDataPut                                                     
c226a658  I2CSlaveIntClearEx                                                  
c226a5c8  I2CSlaveIntDisableEx                                                
c226a580  I2CSlaveIntEnableEx                                                 
c226a608  I2CSlaveIntStatus                                                   
c226a624  I2CSlaveIntStatusEx                                                 
c226a738  I2CStatusClear                                                      
c2273438  InternalExceptionHook                                               
c226c4cc  KEY4Hwi                                                             
c226c3a8  KEY4Swi                                                             
c22bb164  KEY4SwiHandle                                                       
c226c528  KEY6Hwi                                                             
c226c400  KEY6Swi                                                             
c22bb168  KEY6SwiHandle                                                       
c226c5d8  KEYInit                                                             
c2269714  LCDBacklightDisable                                                 
c22696c8  LCDBacklightEnable                                                  
c2269764  LCDHwi                                                              
c2269884  LCDInit                                                             
c2269824  LCDTask                                                             
c2269854  LCDVersionGet                                                       
c226bbd4  LEDControl                                                          
c226bdf0  LEDInit                                                             
c227ec20  LEDNixieInit                                                        
80000000  LEDNixieVal                                                         
c226bcd8  LEDTask                                                             
c22bb29a  LED_OP                                                              
c2281d80  LED_TOGGLE                                                          
c2269314  LVGLTask                                                            
c2269120  LVGLTick                                                            
c22bb16c  LV_LAYOUT_FLEX                                                      
c22bb170  LV_LAYOUT_GRID                                                      
c22bb174  LV_STYLE_FLEX_CROSS_PLACE                                           
c22bb178  LV_STYLE_FLEX_FLOW                                                  
c22bb17c  LV_STYLE_FLEX_GROW                                                  
c22bb180  LV_STYLE_FLEX_MAIN_PLACE                                            
c22bb184  LV_STYLE_FLEX_TRACK_PLACE                                           
c22bb188  LV_STYLE_GRID_CELL_COLUMN_POS                                       
c22bb18c  LV_STYLE_GRID_CELL_COLUMN_SPAN                                      
c22bb190  LV_STYLE_GRID_CELL_ROW_POS                                          
c22bb194  LV_STYLE_GRID_CELL_ROW_SPAN                                         
c22bb198  LV_STYLE_GRID_CELL_X_ALIGN                                          
c22bb19c  LV_STYLE_GRID_CELL_Y_ALIGN                                          
c22bb1a0  LV_STYLE_GRID_COLUMN_ALIGN                                          
c22bb1a4  LV_STYLE_GRID_COLUMN_DSC_ARRAY                                      
c22bb1a8  LV_STYLE_GRID_ROW_ALIGN                                             
c22bb1ac  LV_STYLE_GRID_ROW_DSC_ARRAY                                         
c2267b54  MEM_AddrTest                                                        
c2267cac  MEM_Bit_Walking                                                     
c2267a00  MEM_FillTest                                                        
c227ec80  NDK_hookCreate                                                      
c2280100  NDK_hookExit                                                        
c2281da0  NDK_hookInit                                                        
c2277920  NMIHook                                                             
c22bb274  OSCINFreq                                                           
c226c620  PLLClockGet                                                         
c226c998  PLLClockOut                                                         
c22747c0  PRUDisable                                                          
c2274780  PRUEnable                                                           
c22747f4  PRULoad                                                             
c22748c8  PRURun                                                              
c22748f8  PRUWaitForHalt                                                      
c22783a0  PSCModuleControl                                                    
c226f874  PWM1ABasic                                                          
c226fa80  PWMInit                                                             
c2241d8c  RTC32KClkClockControl                                               
c2241d18  RTC32KClkSourceSelect                                               
c2242128  RTCAlarm2CalendarSet                                                
c2242080  RTCAlarm2IntStatusClear                                             
c2242060  RTCAlarm2IntStatusGet                                               
c22420a0  RTCAlarm2TimeSet                                                    
c2241a68  RTCAlarmCalendarGet                                                 
c2241a00  RTCAlarmCalendarSet                                                 
c2241920  RTCAlarmDayOfMonthGet                                               
c22418d4  RTCAlarmDayOfMonthSet                                               
c2241724  RTCAlarmHourGet                                                     
c2241798  RTCAlarmHourMeridiemGet                                             
c2241740  RTCAlarmHourMeridiemSet                                             
c22416d8  RTCAlarmHourSet                                                     
c2240ce0  RTCAlarmIntStatusClear                                              
c2240cc0  RTCAlarmIntStatusGet                                                
c22416c0  RTCAlarmMinuteGet                                                   
c2241674  RTCAlarmMinuteSet                                                   
c2241984  RTCAlarmMonthGet                                                    
c2241938  RTCAlarmMonthSet                                                    
c2241658  RTCAlarmSecondGet                                                   
c2241610  RTCAlarmSecondSet                                                   
c224182c  RTCAlarmTimeGet                                                     
c22417b8  RTCAlarmTimeSet                                                     
c22419e8  RTCAlarmYearGet                                                     
c22419a0  RTCAlarmYearSet                                                     
c2240e00  RTCAutoCompDisable                                                  
c2240db8  RTCAutoCompEnable                                                   
c2240c88  RTCBusyStatusGet                                                    
c2241598  RTCCalendarGet                                                      
c2241524  RTCCalendarSet                                                      
c2241b24  RTCCompensationGet                                                  
c2241ac0  RTCCompensationSet                                                  
c2241f1c  RTCConfigPmicExtWake                                                
c2241f78  RTCConfigPmicExtWakeDebounce                                        
c2241eac  RTCConfigPmicExtWakePolarity                                        
c2241e6c  RTCConfigPmicPowerEnable                                            
c22412d0  RTCDayOfMonthGet                                                    
c2241284  RTCDayOfMonthSet                                                    
c22413f4  RTCDayOfTheWeekGet                                                  
c22413ac  RTCDayOfTheWeekSet                                                  
c2240fd4  RTCDisable                                                          
c2241014  RTCEnable                                                           
c2241078  RTCEnableStatus                                                     
c2240d00  RTCEventUpdateGet                                                   
c2241e20  RTCFeedbackResistanceSelect                                         
c22411f4  RTCHourGet                                                          
c2240ecc  RTCHourModeGet                                                      
c2240e58  RTCHourModeSet                                                      
c22411a8  RTCHourSet                                                          
c2269c84  RTCHwi                                                              
c2241be4  RTCIdleModeConfigure                                                
c2269f04  RTCInit                                                             
c224201c  RTCIntAlarm2Enable                                                  
c2240b84  RTCIntAlarmDisable                                                  
c2240b3c  RTCIntAlarmEnable                                                   
c2240c40  RTCIntTimerDisable                                                  
c2240bcc  RTCIntTimerEnable                                                   
c2241264  RTCMeridiemGet                                                      
c2241210  RTCMeridiemSet                                                      
c2240d64  RTCMinRoundingDisable                                               
c2240d20  RTCMinRoundingEnable                                                
c224118c  RTCMinuteGet                                                        
c2241140  RTCMinuteSet                                                        
c2241334  RTCMonthGet                                                         
c22412ec  RTCMonthSet                                                         
c2241dd8  RTCOscillatorStateControl                                           
c2241fe8  RTCPmicExtWakeStatusClear                                           
c2241bcc  RTCRevisionIDGet                                                    
c2240a20  RTCRun                                                              
c2240ca4  RTCRunStatusGet                                                     
c2241b88  RTCScratchPadGet                                                    
c2241b60  RTCScratchPadSet                                                    
c2241124  RTCSecondGet                                                        
c22410d8  RTCSecondSet                                                        
c2269b80  RTCSet                                                              
c2240f54  RTCSet32CounterDisable                                              
c2240ee8  RTCSet32CounterEnable                                               
c2241bac  RTCSoftwareReset                                                    
c22410b8  RTCSplitPwrDisable                                                  
c2241098  RTCSplitPwrEnable                                                   
c2240a64  RTCStop                                                             
c2241ccc  RTCTestModeControl                                                  
c21d7228  RTCTime                                                             
c22414a0  RTCTimeGet                                                          
c2241410  RTCTimeSet                                                          
c2241c30  RTCWakeUpAlarmEventControl                                          
c2241c80  RTCWakeUpTimerEventControl                                          
c2240b08  RTCWriteProtectDisable                                              
c2240ae0  RTCWriteProtectEnable                                               
c2241394  RTCYearGet                                                          
c2241350  RTCYearSet                                                          
c2251554  RasterAutoUnderFlowDisable                                          
c2251534  RasterAutoUnderFlowEnable                                           
c2251a88  RasterByteSwapDisable                                               
c2251a64  RasterByteSwapEnable                                                
c2251c14  RasterClearGetIntStatus                                             
c22514e0  RasterClkConfig                                                     
c2251e74  RasterClocksEnable                                                  
c22521cc  RasterContextRestore                                                
c22520e4  RasterContextSave                                                   
c2251a28  RasterDMAConfig                                                     
c2251bcc  RasterDMAFBConfig                                                   
c2251f00  RasterDMASoftWareClkDisable                                         
c2251ed8  RasterDMASoftWareClkEnable                                          
c2251598  RasterDisable                                                       
c2252008  RasterDmaMasterPrioritySet                                          
c2251574  RasterEnable                                                        
c2251ad0  RasterEndOfFrameIntDisable                                          
c2251aac  RasterEndOfFrameIntEnable                                           
c22517a0  RasterFIFODMADelayConfig                                            
c22517e8  RasterHparamConfig                                                  
c2251520  RasterIdGet                                                         
c2252098  RasterIdleModeConfig                                                
c2251708  RasterIntDisable                                                    
c22516a0  RasterIntEnable                                                     
c2251b54  RasterIntRawStatus                                                  
c2251ba0  RasterIntRawStatusSet                                               
c2251af4  RasterIntStatus                                                     
c2251660  RasterLSBDataOrderSelect                                            
c2251680  RasterMSBDataOrderSelect                                            
c22515c0  RasterModeConfig                                                    
c2251780  RasterNibbleModeDisable                                             
c2251760  RasterNibbleModeEnable                                              
c2251eb4  RasterSoftWareClkDisable                                            
c2251e90  RasterSoftWareClkEnable                                             
c2251f94  RasterSoftWareResetControlDisable                                   
c2251f24  RasterSoftWareResetControlEnable                                    
c2252050  RasterStandbyModeConfig                                             
c2251cd0  RasterSubPanelConfig                                                
c2251cac  RasterSubPanelDisable                                               
c2251c8c  RasterSubPanelEnable                                                
c22519b4  RasterTiming2Configure                                              
c22518c4  RasterVparamConfig                                                  
c21d6f00  RcvFis                                                              
c225bde4  ReadLine                                                            
c2269ed4  RtcVersionGet                                                       
c22713c8  SATATest                                                            
c22bab28  SEGVal                                                              
c225b078  SPI1CSPinMuxSet                                                     
c2268238  SPICSTimerDisable                                                   
c2268260  SPICSTimerEnable                                                    
c2268288  SPICharLengthSet                                                    
c2267fc0  SPIClkConfigure                                                     
c22682d8  SPIConfigClkFormat                                                  
c22681a8  SPIDat1Config                                                       
c2268510  SPIDataReceive                                                      
c2268184  SPIDefaultCSSet                                                     
c22680c4  SPIDelayConfigure                                                   
c2268008  SPIEnable                                                           
c225b9c8  SPIFlashInit                                                        
c225b980  SPIFlashTest                                                        
c225b820  SPIHwi                                                              
c22684b0  SPIIntDisable                                                       
c226848c  SPIIntEnable                                                        
c2268464  SPIIntLevelSet                                                      
c22684ec  SPIIntStatus                                                        
c22684d4  SPIIntStatusClear                                                   
c226852c  SPIInterruptVectorGet                                               
c2268054  SPIModeConfigure                                                    
c2268040  SPIOutOfReset                                                       
c22683b4  SPIParityDisable                                                    
c2268360  SPIParityEnable                                                     
c2268078  SPIPinControl                                                       
c2268024  SPIReset                                                            
c2268334  SPIShiftLsbFirst                                                    
c226830c  SPIShiftMsbFirst                                                    
c226820c  SPITransmitData1                                                    
c2268438  SPIWaitDisable                                                      
c2268410  SPIWaitEnable                                                       
c22683e0  SPIWdelaySet                                                        
c2281dc0  SemPost                                                             
c22bb270  SoftPWM                                                             
c22ba390  TSK_idle                                                            
c2274380  TaskExit                                                            
c226b220  TaskSleep                                                           
c2270d70  TempSensorGet                                                       
c2270ef0  TempSensorInit                                                      
c2279378  TimerHwi                                                            
c22793c0  TimerInit                                                           
c2276c00  Timer_getNextAvailableTimerId                                       
c2264c2c  TouchHwi                                                            
c21d71fc  TouchInfo                                                           
c2264ce0  TouchInit                                                           
c2264a58  TouchXYGet                                                          
c226e1d4  UART1Hwi                                                            
c226e390  UART1Init                                                           
c226e2d8  UART1Puts                                                           
c2268f44  UARTBreakCtl                                                        
c2268e34  UARTCharGet                                                         
c2268e08  UARTCharGetNonBlocking                                              
c2268e70  UARTCharPut                                                         
c2268dc8  UARTCharPutNonBlocking                                              
c2268d78  UARTCharsAvail                                                      
c2268b74  UARTConfigGetExpClk                                                 
c2268ae0  UARTConfigSetExpClk                                                 
c225bbe4  UARTConsoleHwi                                                      
c225c364  UARTConsoleInit                                                     
c22bb1b0  UARTConsoleSemHandle                                                
c225c1e4  UARTConsoleTask                                                     
c22bb1b4  UARTConsoleTaskHandle                                               
c2268c4c  UARTDMADisable                                                      
c2268c2c  UARTDMAEnable                                                       
c2268cf4  UARTDisable                                                         
c2268cd8  UARTEnable                                                          
c2268d34  UARTFIFODisable                                                     
c2268d20  UARTFIFOEnable                                                      
c2268c08  UARTFIFOLevelSet                                                    
c2268ef0  UARTIntDisable                                                      
c2268ec8  UARTIntEnable                                                       
c2268f18  UARTIntStatus                                                       
c2268fd0  UARTModemControlClear                                               
c2269004  UARTModemControlGet                                                 
c2268f78  UARTModemControlSet                                                 
c2269024  UARTModemStatusGet                                                  
c2268cb4  UARTParityModeGet                                                   
c2268c6c  UARTParityModeSet                                                   
c2268da8  UARTRxErrorGet                                                      
c2268d4c  UARTSpaceAvail                                                      
c225bd4c  UARTprintf                                                          
c227be80  _Z23__finalize_destructionsPP20a_needed_destructionPv               
c0000000  __ASM__                                                             
c22bb2a0  __CIOBUF_                                                           
c0000060  __ISA__                                                             
c0000078  __PLAT__                                                            
c00000a8  __TARG__                                                            
c22bc170  __TI_CINIT_Base                                                     
c22bc1a0  __TI_CINIT_Limit                                                    
c22bc168  __TI_Handler_Table_Base                                             
c22bc170  __TI_Handler_Table_Limit                                            
UNDEFED   __TI_INITARRAY_Base                                                 
UNDEFED   __TI_INITARRAY_Limit                                                
00804000  __TI_STACK_END                                                      
00004000  __TI_STACK_SIZE                                                     
c22bb0f4  __TI_STATIC_BASE                                                    
c227c8e0  __TI_cleanup                                                        
c22bab44  __TI_cleanup_ptr                                                    
c2279420  __TI_closefile                                                      
c2282020  __TI_decompress_none                                                
c2282040  __TI_decompress_rle24                                               
c227c980  __TI_doflush                                                        
c22bab48  __TI_dtors_ptr                                                      
c22bab4c  __TI_enable_exit_profile_output                                     
c2280140  __TI_frcmpyd_div                                                    
c22ba8ec  __TI_ft_end                                                         
c227a9c0  __TI_ltoa                                                           
ffffffff  __TI_pprof_out_hndl                                                 
c2224000  __TI_printfi                                                        
ffffffff  __TI_prof_data_size                                                 
ffffffff  __TI_prof_data_start                                                
c227dc20  __TI_readmsg                                                        
c2228160  __TI_scanfi                                                         
c21d6928  __TI_tmpnams                                                        
c227ece0  __TI_writemsg                                                       
c227aaa0  __TI_wrt_ok                                                         
c00000d0  __TRDR__                                                            
ffffffff  __binit__                                                           
c2266200  __c6xabi_divd                                                       
c227ab80  __c6xabi_divi                                                       
c227c000  __c6xabi_divu                                                       
c2274d20  __c6xabi_divul                                                      
c2272920  __c6xabi_divull                                                     
c2281de0  __c6xabi_errno_addr                                                 
c2280180  __c6xabi_isinf                                                      
c2280200  __c6xabi_isnan                                                      
c227dca0  __c6xabi_llshl                                                      
c227ed40  __c6xabi_llshru                                                     
c2281e20  __c6xabi_pop_rts                                                    
c2281e40  __c6xabi_push_rts                                                   
c227c0c0  __c6xabi_remi                                                       
c227ca20  __c6xabi_remu                                                       
c227eda0  __c6xabi_remull                                                     
ffffffff  __c_args__                                                          
c227bf40  __cxa_atexit                                                        
c2281e00  __cxa_ia64_exit                                                     
c227ab80  __divi                                                              
c227c000  __divu                                                              
c22ba9c4  __errno                                                             
c2281e20  __pop_rts                                                           
c2281e40  __push_rts                                                          
c227c0c0  __remi                                                              
c227ca20  __remu                                                              
c2280240  _args_main                                                          
00000000  _argsize                                                            
c2277fe0  _auto_init_elf                                                      
c227cac0  _c_int00                                                            
c22b5880  _ctypes_                                                            
c22ba608  _device                                                             
c22ba000  _ftable                                                             
c22ba504  _lock                                                               
c224c420  _lv_anim_core_init                                                  
c21d7348  _lv_anim_ll                                                         
c2247a50  _lv_area_intersect                                                  
c2248464  _lv_area_is_equal                                                   
c2248090  _lv_area_is_in                                                      
c2247ff0  _lv_area_is_on                                                      
c2248284  _lv_area_is_out                                                     
c2247c40  _lv_area_is_point_on                                                
c2247b68  _lv_area_join                                                       
c2247860  _lv_area_set_pos                                                    
c22b95e0  _lv_bpp1_opa_table                                                  
c22b93e0  _lv_bpp2_opa_table                                                  
c22b9188  _lv_bpp4_opa_table                                                  
c22b5988  _lv_bpp8_opa_table                                                  
c21d70a0  _lv_circle_cache                                                    
c22512ac  _lv_disp_get_refr_timer                                             
c21d7354  _lv_disp_ll                                                         
c22144e8  _lv_disp_refr_timer                                                 
c21e9120  _lv_draw_mask_cleanup                                               
c21d6e80  _lv_draw_mask_list                                                  
c223dd88  _lv_event_mark_deleted                                              
c225888c  _lv_font_clean_up_fmt_txt                                           
c2244d20  _lv_fs_init                                                         
c21d7360  _lv_fsdrv_ll                                                        
c22784e0  _lv_gc_clear_roots                                                  
c22bb1b8  _lv_grad_cache_mem                                                  
c2248ba0  _lv_group_init                                                      
c21d736c  _lv_group_ll                                                        
c220a0e8  _lv_img_buf_get_transformed_area                                    
c220a794  _lv_img_buf_transform                                               
c220ac6c  _lv_img_buf_transform_anti_alias                                    
c2209dac  _lv_img_buf_transform_init                                          
c2278620  _lv_img_cache_open                                                  
c21d71d0  _lv_img_cache_single                                                
c222a2c4  _lv_img_decoder_init                                                
c21d7378  _lv_img_decoder_ll                                                  
c21d7384  _lv_indev_ll                                                        
c2266d10  _lv_indev_read                                                      
c222fd44  _lv_indev_scroll_handler                                            
c222ffc0  _lv_indev_scroll_throw_handler                                      
c22141f0  _lv_inv_area                                                        
c22bb1bc  _lv_layout_list                                                     
c225e3f0  _lv_ll_chg_list                                                     
c225e384  _lv_ll_clear                                                        
c225e4e8  _lv_ll_get_head                                                     
c225e62c  _lv_ll_get_len                                                      
c225e58c  _lv_ll_get_next                                                     
c225e5d8  _lv_ll_get_prev                                                     
c225e538  _lv_ll_get_tail                                                     
c225e000  _lv_ll_init                                                         
c225e054  _lv_ll_ins_head                                                     
c225e0f0  _lv_ll_ins_prev                                                     
c225e1f8  _lv_ll_ins_tail                                                     
c225e778  _lv_ll_is_empty                                                     
c225e690  _lv_ll_move_before                                                  
c225e294  _lv_ll_remove                                                       
c2273514  _lv_log_add                                                         
c22658c0  _lv_obj_destruct                                                    
c22409ac  _lv_obj_get_ext_draw_size                                           
c220c384  _lv_obj_style_create_transition                                     
c220b734  _lv_obj_style_init                                                  
c220c728  _lv_obj_style_state_compare                                         
c21d7390  _lv_obj_style_trans_ll                                              
c2214484  _lv_refr_get_disp_refreshing                                        
c2213f20  _lv_refr_init                                                       
c22144b0  _lv_refr_set_disp_refreshing                                        
c2254a58  _lv_style_get_prop_group                                            
c22bb1c0  _lv_theme_basic_styles                                              
c22bb1c4  _lv_theme_default_styles                                            
c22bb1c8  _lv_timer_act                                                       
c2260220  _lv_timer_core_init                                                 
c21d739c  _lv_timer_ll                                                        
c223b4c4  _lv_txt_cut                                                         
c22bb1f0  _lv_txt_encoded_conv_wc                                             
c22bb1fc  _lv_txt_encoded_get_byte_id                                         
c22bb200  _lv_txt_encoded_get_char_id                                         
c223b694  _lv_txt_encoded_letter_next_2                                       
c22bb1f4  _lv_txt_encoded_next                                                
c22bb1f8  _lv_txt_encoded_prev                                                
c22bb1e8  _lv_txt_encoded_size                                                
c22bb204  _lv_txt_get_encoded_length                                          
c223ae8c  _lv_txt_get_next_line                                               
c223b3a8  _lv_txt_ins                                                         
c223b2cc  _lv_txt_is_cmd                                                      
c223b5ac  _lv_txt_set_text_vfmt                                               
c22bb1ec  _lv_txt_unicode_to_encoded                                          
c2279a20  _lv_utils_bsearch                                                   
c2281e80  _nop                                                                
c2281f20  _register_lock                                                      
c2281f40  _register_unlock                                                    
c2281f60  _signbit                                                            
00800000  _stack                                                              
c22ba2a0  _stream                                                             
c227ee00  _subcull                                                            
c22ba87c  _unlock                                                             
c2281fe0  abort                                                               
c227cca0  asctime                                                             
c2282000  atexit                                                              
c2279720  atoi                                                                
c2269af8  bcd2dec                                                             
ffffffff  binit                                                               
c21bb828  buff                                                                
c21db6ac  cJSON_AddArrayToObject                                              
c21db428  cJSON_AddBoolToObject                                               
c21db3ac  cJSON_AddFalseToObject                                              
c21db1ac  cJSON_AddItemReferenceToArray                                       
c21db228  cJSON_AddItemReferenceToObject                                      
c21daf60  cJSON_AddItemToArray                                                
c21db100  cJSON_AddItemToObject                                               
c21db154  cJSON_AddItemToObjectCS                                             
c21db2b4  cJSON_AddNullToObject                                               
c21db4a8  cJSON_AddNumberToObject                                             
c21db630  cJSON_AddObjectToObject                                             
c21db5b0  cJSON_AddRawToObject                                                
c21db530  cJSON_AddStringToObject                                             
c21db330  cJSON_AddTrueToObject                                               
c21dd130  cJSON_Compare                                                       
c21dc278  cJSON_CreateArray                                                   
c21dc180  cJSON_CreateArrayReference                                          
c21dbed4  cJSON_CreateBool                                                    
c21dc584  cJSON_CreateDoubleArray                                             
c21dbe88  cJSON_CreateFalse                                                   
c21dc44c  cJSON_CreateFloatArray                                              
c21dc314  cJSON_CreateIntArray                                                
c21dbdec  cJSON_CreateNull                                                    
c21dbf40  cJSON_CreateNumber                                                  
c21dc2c8  cJSON_CreateObject                                                  
c21dc120  cJSON_CreateObjectReference                                         
c21dc1e0  cJSON_CreateRaw                                                     
c21dc020  cJSON_CreateString                                                  
c21dc6ac  cJSON_CreateStringArray                                             
c21dc0b8  cJSON_CreateStringReference                                         
c21dbe38  cJSON_CreateTrue                                                    
c21d78a8  cJSON_Delete                                                        
c21db888  cJSON_DeleteItemFromArray                                           
c21db960  cJSON_DeleteItemFromObject                                          
c21db9a4  cJSON_DeleteItemFromObjectCaseSensitive                             
c21db814  cJSON_DetachItemFromArray                                           
c21db8cc  cJSON_DetachItemFromObject                                          
c21db914  cJSON_DetachItemFromObjectCaseSensitive                             
c21db728  cJSON_DetachItemViaPointer                                          
c21dc7d8  cJSON_Duplicate                                                     
c21dab34  cJSON_GetArrayItem                                                  
c21daa2c  cJSON_GetArraySize                                                  
c21d7440  cJSON_GetErrorPtr                                                   
c21d74d4  cJSON_GetNumberValue                                                
c21dac98  cJSON_GetObjectItem                                                 
c21dace4  cJSON_GetObjectItemCaseSensitive                                    
c21d7480  cJSON_GetStringValue                                                
c21dad2c  cJSON_HasObjectItem                                                 
c21d772c  cJSON_InitHooks                                                     
c21db9e8  cJSON_InsertItemInArray                                             
c21dd010  cJSON_IsArray                                                       
c21dcea4  cJSON_IsBool                                                        
c21dcdf4  cJSON_IsFalse                                                       
c21dcda0  cJSON_IsInvalid                                                     
c21dcf04  cJSON_IsNull                                                        
c21dcf58  cJSON_IsNumber                                                      
c21dd070  cJSON_IsObject                                                      
c21dd0d0  cJSON_IsRaw                                                         
c21dcfb0  cJSON_IsString                                                      
c21dce4c  cJSON_IsTrue                                                        
c21dcc6c  cJSON_Minify                                                        
c21d93c0  cJSON_Parse                                                         
c21d9400  cJSON_ParseWithLength                                               
c21d9200  cJSON_ParseWithLengthOpts                                           
c21d918c  cJSON_ParseWithOpts                                                 
c21d95c8  cJSON_Print                                                         
c21d9660  cJSON_PrintBuffered                                                 
c21d97a0  cJSON_PrintPreallocated                                             
c21d9610  cJSON_PrintUnformatted                                              
c21dbc20  cJSON_ReplaceItemInArray                                            
c21dbd50  cJSON_ReplaceItemInObject                                           
c21dbda0  cJSON_ReplaceItemInObjectCaseSensitive                              
c21dbac8  cJSON_ReplaceItemViaPointer                                         
c21d7c38  cJSON_SetNumberHelper                                               
c21d7d00  cJSON_SetValuestring                                                
c21d7530  cJSON_Version                                                       
c21dd5e4  cJSON_free                                                          
c21dd594  cJSON_malloc                                                        
c2263374  cfgDmaSetting                                                       
c227ac60  close                                                               
c2269b34  dec2bcd                                                             
c21f128c  draw_border_generic                                                 
c22630a8  enableRcvFis                                                        
c22ba9c4  errno                                                               
c227ad40  exit                                                                
c227cd40  finddevice                                                          
c2274ee0  fputc                                                               
c22706e0  fputs                                                               
c2280400  free                                                                
c22750a0  frexp                                                               
c22750a0  frexpl                                                              
c2279820  fseek                                                               
c21d7160  g_cCmdBuf                                                           
c2100000  g_pucBuffer                                                         
c22ba1e0  g_sCmdTable                                                         
c21e3674  get_tick_gsc                                                        
c2278d80  getdevice                                                           
c22bb1cc  indev_touchpad                                                      
c22633b4  initBaseAddresses                                                   
c2263500  initPhyAndDmaPars                                                   
c226330c  invokeHBAReset                                                      
c2275260  ldexp                                                               
c2275260  ldexpl                                                              
c227cde0  llTimerTick                                                         
c227ef20  lseek                                                               
c224c9b8  lv_anim_count_running                                               
c224c7e4  lv_anim_del                                                         
c224c8c4  lv_anim_del_all                                                     
c224c900  lv_anim_get                                                         
c224c6c8  lv_anim_get_playtime                                                
c224c478  lv_anim_init                                                        
c224cde0  lv_anim_path_bounce                                                 
c224cb78  lv_anim_path_ease_in                                                
c224ccac  lv_anim_path_ease_in_out                                            
c224cc10  lv_anim_path_ease_out                                               
c224caf4  lv_anim_path_linear                                                 
c224cd44  lv_anim_path_overshoot                                              
c224cfc4  lv_anim_path_step                                                   
c224cac8  lv_anim_refr_now                                                    
c224ca4c  lv_anim_speed_to_time                                               
c224c500  lv_anim_start                                                       
c22b8274  lv_arc_class                                                        
c2218e40  lv_arc_create                                                       
c221996c  lv_arc_get_angle_end                                                
c2219938  lv_arc_get_angle_start                                              
c22199d0  lv_arc_get_bg_angle_end                                             
c22199a0  lv_arc_get_bg_angle_start                                           
c2219a68  lv_arc_get_max_value                                                
c2219a34  lv_arc_get_min_value                                                
c2219a98  lv_arc_get_mode                                                     
c2219a04  lv_arc_get_value                                                    
c22191a4  lv_arc_set_angles                                                   
c22194f0  lv_arc_set_bg_angles                                                
c2219370  lv_arc_set_bg_end_angle                                             
c22191f4  lv_arc_set_bg_start_angle                                           
c22198e8  lv_arc_set_change_rate                                              
c2219018  lv_arc_set_end_angle                                                
c2219598  lv_arc_set_mode                                                     
c22197ec  lv_arc_set_range                                                    
c2219544  lv_arc_set_rotation                                                 
c2218e8c  lv_arc_set_start_angle                                              
c22196f0  lv_arc_set_value                                                    
c2248500  lv_area_align                                                       
c22478e8  lv_area_get_size                                                    
c2247948  lv_area_increase                                                    
c22479cc  lv_area_move                                                        
c2247750  lv_area_set                                                         
c2247814  lv_area_set_height                                                  
c22477c8  lv_area_set_width                                                   
c2278ea0  lv_async_call                                                       
c2260d4c  lv_atan2                                                            
c22b8290  lv_bar_class                                                        
c2238fa4  lv_bar_create                                                       
c22394a8  lv_bar_get_max_value                                                
c2239468  lv_bar_get_min_value                                                
c22394e8  lv_bar_get_mode                                                     
c22393d8  lv_bar_get_start_value                                              
c2239380  lv_bar_get_value                                                    
c22392f0  lv_bar_set_mode                                                     
c22391f8  lv_bar_set_range                                                    
c22390f0  lv_bar_set_start_value                                              
c2238fec  lv_bar_set_value                                                    
c2260ba4  lv_bezier3                                                          
c22b82ac  lv_btn_class                                                        
c227ce80  lv_btn_create                                                       
c22b82c8  lv_btnmatrix_class                                                  
c21f990c  lv_btnmatrix_clear_btn_ctrl                                         
c21f9a58  lv_btnmatrix_clear_btn_ctrl_all                                     
c21f9280  lv_btnmatrix_create                                                 
c21f9cac  lv_btnmatrix_get_btn_text                                           
c21f9c2c  lv_btnmatrix_get_map                                                
c21f9ea8  lv_btnmatrix_get_one_checked                                        
c2257db8  lv_btnmatrix_get_popovers                                           
c21f9c6c  lv_btnmatrix_get_selected_btn                                       
c21f9e04  lv_btnmatrix_has_btn_ctrl                                           
c21f982c  lv_btnmatrix_set_btn_ctrl                                           
c21f99c0  lv_btnmatrix_set_btn_ctrl_all                                       
c21f9af4  lv_btnmatrix_set_btn_width                                          
c21f9720  lv_btnmatrix_set_ctrl_map                                           
c21f92cc  lv_btnmatrix_set_map                                                
c21f9bc4  lv_btnmatrix_set_one_checked                                        
c21f9784  lv_btnmatrix_set_selected_btn                                       
c22b82e4  lv_calendar_class                                                   
c224e564  lv_calendar_create                                                  
c224eb14  lv_calendar_get_btnmatrix                                           
c224ebd0  lv_calendar_get_highlighted_dates                                   
c224ec0c  lv_calendar_get_highlighted_dates_num                               
c224ec4c  lv_calendar_get_pressed_date                                        
c224eb90  lv_calendar_get_showed_date                                         
c224eb50  lv_calendar_get_today_date                                          
c22b8300  lv_calendar_header_arrow_class                                      
c226ca44  lv_calendar_header_arrow_create                                     
c22b831c  lv_calendar_header_dropdown_class                                   
c226fae0  lv_calendar_header_dropdown_create                                  
c224e5ac  lv_calendar_set_day_names                                           
c224e690  lv_calendar_set_highlighted_dates                                   
c224e734  lv_calendar_set_showed_date                                         
c224e624  lv_calendar_set_today_date                                          
c21ded0c  lv_chart_add_cursor                                                 
c21de6a0  lv_chart_add_series                                                 
c22b8338  lv_chart_class                                                      
c21dd814  lv_chart_create                                                     
c21def8c  lv_chart_get_cursor_point                                           
c21de104  lv_chart_get_point_count                                            
c21de1d0  lv_chart_get_point_pos_by_id                                        
c21df7ac  lv_chart_get_pressed_point                                          
c21dec94  lv_chart_get_series_next                                            
c21de0b4  lv_chart_get_type                                                   
c21df724  lv_chart_get_x_array                                                
c21de148  lv_chart_get_x_start_point                                          
c21df698  lv_chart_get_y_array                                                
c21ddf20  lv_chart_get_zoom_x                                                 
c21ddf60  lv_chart_get_zoom_y                                                 
c21dea80  lv_chart_hide_series                                                
c21de664  lv_chart_refresh                                                    
c21de9b0  lv_chart_remove_series                                              
c21df014  lv_chart_set_all_value                                              
c21ddfa0  lv_chart_set_axis_tick                                              
c21deecc  lv_chart_set_cursor_point                                           
c21dee18  lv_chart_set_cursor_pos                                             
c21ddd50  lv_chart_set_div_line_count                                         
c21df5d8  lv_chart_set_ext_x_array                                            
c21df514  lv_chart_set_ext_y_array                                            
c21df10c  lv_chart_set_next_value                                             
c21df1f0  lv_chart_set_next_value2                                            
c21dda44  lv_chart_set_point_count                                            
c21ddb70  lv_chart_set_range                                                  
c21deb38  lv_chart_set_series_color                                           
c21dd864  lv_chart_set_type                                                   
c21ddcb0  lv_chart_set_update_mode                                            
c21df320  lv_chart_set_value_by_id                                            
c21df3f4  lv_chart_set_value_by_id2                                           
c21debd0  lv_chart_set_x_start_point                                          
c21dde04  lv_chart_set_zoom_x                                                 
c21dde90  lv_chart_set_zoom_y                                                 
c22b8354  lv_checkbox_class                                                   
c22592d8  lv_checkbox_create                                                  
c2259464  lv_checkbox_get_text                                                
c2259328  lv_checkbox_set_text                                                
c22593e0  lv_checkbox_set_text_static                                         
c22619c8  lv_chinese_ime_create                                               
c2261a20  lv_chinese_ime_del                                                  
c2261a50  lv_chinese_ime_set_dict                                             
c2261a88  lv_chinese_ime_set_text_font                                        
c21f5014  lv_clamp_height                                                     
c21f4e64  lv_clamp_width                                                      
c2255b30  lv_color_change_lightness                                           
c2255ad8  lv_color_darken                                                     
c2255920  lv_color_fill                                                       
c2255bf8  lv_color_hsv_to_rgb                                                 
c2255a84  lv_color_lighten                                                    
c2255e84  lv_color_rgb_to_hsv                                                 
c2256144  lv_color_to_hsv                                                     
c22b8370  lv_colorwheel_class                                                 
c222c2ac  lv_colorwheel_create                                                
c222c5d4  lv_colorwheel_get_color_mode                                        
c222c624  lv_colorwheel_get_color_mode_fixed                                  
c222c544  lv_colorwheel_get_hsv                                               
c222c580  lv_colorwheel_get_rgb                                               
c222c30c  lv_colorwheel_set_hsv                                               
c222c478  lv_colorwheel_set_mode                                              
c222c4e8  lv_colorwheel_set_mode_fixed                                        
c222c414  lv_colorwheel_set_rgb                                               
c2216c80  lv_deinit                                                           
c225122c  lv_disp_clean_dcache                                                
c2232034  lv_disp_draw_buf_init                                               
c2231f2c  lv_disp_drv_init                                                    
c22320a0  lv_disp_drv_register                                                
c2232430  lv_disp_drv_update                                                  
c22330cc  lv_disp_drv_use_generic_set_px_cb                                   
c2232ecc  lv_disp_flush_is_last                                               
c2232e88  lv_disp_flush_ready                                                 
c2232da0  lv_disp_get_antialiasing                                            
c22327c8  lv_disp_get_default                                                 
c2232e24  lv_disp_get_dpi                                                     
c2232fa0  lv_disp_get_draw_buf                                                
c22327f4  lv_disp_get_hor_res                                                 
c2251110  lv_disp_get_inactive_time                                           
c225082c  lv_disp_get_layer_sys                                               
c22507cc  lv_disp_get_layer_top                                               
c2232f20  lv_disp_get_next                                                    
c2232b38  lv_disp_get_offset_x                                                
c2232c6c  lv_disp_get_offset_y                                                
c2232950  lv_disp_get_physical_hor_res                                        
c2232a44  lv_disp_get_physical_ver_res                                        
c2233068  lv_disp_get_rotation                                                
c2250634  lv_disp_get_scr_act                                                 
c2250694  lv_disp_get_scr_prev                                                
c2250938  lv_disp_get_theme                                                   
c22328a4  lv_disp_get_ver_res                                                 
c22506f4  lv_disp_load_scr                                                    
c2232624  lv_disp_remove                                                      
c2250978  lv_disp_set_bg_color                                                
c2250a34  lv_disp_set_bg_image                                                
c2250aec  lv_disp_set_bg_opa                                                  
c2232790  lv_disp_set_default                                                 
c2232fd0  lv_disp_set_rotation                                                
c225088c  lv_disp_set_theme                                                   
c22511c4  lv_disp_trig_activity                                               
c225648c  lv_draw_arc                                                         
c2256434  lv_draw_arc_dsc_init                                                
c2256564  lv_draw_arc_get_area                                                
c2259d14  lv_draw_img                                                         
c225a050  lv_draw_img_decoded                                                 
c2259ca8  lv_draw_img_dsc_init                                                
c2280440  lv_draw_init                                                        
c224f730  lv_draw_label                                                       
c224f698  lv_draw_label_dsc_init                                              
c22503d8  lv_draw_letter                                                      
c2276e6c  lv_draw_line                                                        
c2276e14  lv_draw_line_dsc_init                                               
c21e8bf8  lv_draw_mask_add                                                    
c21e9900  lv_draw_mask_angle_init                                             
c21e8ce4  lv_draw_mask_apply                                                  
c21e8dd8  lv_draw_mask_apply_ids                                              
c21ea078  lv_draw_mask_fade_init                                              
c21e9064  lv_draw_mask_free_param                                             
c21e91d8  lv_draw_mask_get_cnt                                                
c21e9278  lv_draw_mask_is_any                                                 
c21e984c  lv_draw_mask_line_angle_init                                        
c21e93f4  lv_draw_mask_line_points_init                                       
c21ea12c  lv_draw_mask_map_init                                               
c21ea1a0  lv_draw_mask_polygon_init                                           
c21e9c24  lv_draw_mask_radius_init                                            
c21e8fac  lv_draw_mask_remove_custom                                          
c21e8f18  lv_draw_mask_remove_id                                              
c2272d60  lv_draw_rect                                                        
c2272c80  lv_draw_rect_dsc_init                                               
c222dee0  lv_draw_sw_arc                                                      
c21edc98  lv_draw_sw_bg                                                       
c2222404  lv_draw_sw_blend                                                    
c22224b8  lv_draw_sw_blend_basic                                              
c22778a4  lv_draw_sw_deinit_ctx                                               
c2254d40  lv_draw_sw_img_decoded                                              
c22777c0  lv_draw_sw_init_ctx                                                 
c225c434  lv_draw_sw_letter                                                   
c2249fa8  lv_draw_sw_line                                                     
c225f1a0  lv_draw_sw_polygon                                                  
c21edc20  lv_draw_sw_rect                                                     
c22778e8  lv_draw_sw_wait_for_finish                                          
c2211610  lv_dropdown_add_option                                              
c22b838c  lv_dropdown_class                                                   
c2211a0c  lv_dropdown_clear_options                                           
c2212560  lv_dropdown_close                                                   
c22111b8  lv_dropdown_create                                                  
c2212020  lv_dropdown_get_dir                                                 
c2211cd0  lv_dropdown_get_list                                                
c2211de4  lv_dropdown_get_option_cnt                                          
c2211d4c  lv_dropdown_get_options                                             
c2211da4  lv_dropdown_get_selected                                            
c2211fcc  lv_dropdown_get_selected_highlight                                  
c2211e24  lv_dropdown_get_selected_str                                        
c2211f8c  lv_dropdown_get_symbol                                              
c2211d0c  lv_dropdown_get_text                                                
c22125cc  lv_dropdown_is_open                                                 
c2212068  lv_dropdown_open                                                    
c2211b68  lv_dropdown_set_dir                                                 
c2211274  lv_dropdown_set_options                                             
c221148c  lv_dropdown_set_options_static                                      
c2211ac0  lv_dropdown_set_selected                                            
c2211c54  lv_dropdown_set_selected_highlight                                  
c2211c08  lv_dropdown_set_symbol                                              
c2211208  lv_dropdown_set_text                                                
c22b83a8  lv_dropdownlist_class                                               
c223dc2c  lv_event_get_code                                                   
c223ec28  lv_event_get_cover_area                                             
c223dc00  lv_event_get_current_target                                         
c223e8d8  lv_event_get_draw_ctx                                               
c223e868  lv_event_get_draw_part_dsc                                          
c223ebc4  lv_event_get_hit_test_info                                          
c223e724  lv_event_get_indev                                                  
c223ea00  lv_event_get_key                                                    
c223e998  lv_event_get_old_size                                               
c223dc6c  lv_event_get_param                                                  
c223ea88  lv_event_get_scroll_anim                                            
c223eb60  lv_event_get_self_size_info                                         
c223dbd0  lv_event_get_target                                                 
c223dc98  lv_event_get_user_data                                              
c223dd48  lv_event_register_id                                                
c223da00  lv_event_send                                                       
c223ec94  lv_event_set_cover_res                                              
c223eaec  lv_event_set_ext_draw_size                                          
c223dcc8  lv_event_stop_bubbling                                              
c223dd08  lv_event_stop_processing                                            
c2280480  lv_extra_init                                                       
c2226418  lv_flex_init                                                        
c2258600  lv_font_get_bitmap_fmt_txt                                          
c2271ca0  lv_font_get_glyph_bitmap                                            
c2271d40  lv_font_get_glyph_dsc                                               
c22586d0  lv_font_get_glyph_dsc_fmt_txt                                       
c2271e58  lv_font_get_glyph_width                                             
c22b83c4  lv_font_montserrat_14                                               
c22b83e0  lv_font_source_han_sans_bold_14                                     
c2244fb8  lv_fs_close                                                         
c2245b38  lv_fs_dir_close                                                     
c2245938  lv_fs_dir_open                                                      
c2245a74  lv_fs_dir_read                                                      
c2245bf4  lv_fs_drv_init                                                      
c2245c24  lv_fs_drv_register                                                  
c2245cd8  lv_fs_get_drv                                                       
c2245e44  lv_fs_get_ext                                                       
c224606c  lv_fs_get_last                                                      
c2245d84  lv_fs_get_letters                                                   
c2244d54  lv_fs_is_ready                                                      
c2244dec  lv_fs_open                                                          
c2245418  lv_fs_read                                                          
c22455ec  lv_fs_seek                                                          
c224584c  lv_fs_tell                                                          
c2245f2c  lv_fs_up                                                            
c2245514  lv_fs_write                                                         
c2253a94  lv_gradient_calculate                                               
c2253db8  lv_gradient_cleanup                                                 
c22537f0  lv_gradient_free_cache                                              
c22538e4  lv_gradient_get                                                     
c2253838  lv_gradient_set_cache_size                                          
c221db80  lv_grid_init                                                        
c2248e70  lv_group_add_obj                                                    
c2248bd4  lv_group_create                                                     
c2248cf0  lv_group_del                                                        
c22495d8  lv_group_focus_freeze                                               
c2249558  lv_group_focus_next                                                 
c2249370  lv_group_focus_obj                                                  
c2249598  lv_group_focus_prev                                                 
c2248e44  lv_group_get_default                                                
c22499b0  lv_group_get_editing                                                
c2249960  lv_group_get_focus_cb                                               
c22498e8  lv_group_get_focused                                                
c2249a94  lv_group_get_obj_count                                              
c2249a24  lv_group_get_wrap                                                   
c22492b0  lv_group_remove_all_objs                                            
c2249128  lv_group_remove_obj                                                 
c2249644  lv_group_send_data                                                  
c2248e0c  lv_group_set_default                                                
c2249704  lv_group_set_editing                                                
c22496c4  lv_group_set_focus_cb                                               
c2249830  lv_group_set_refocus_policy                                         
c2249884  lv_group_set_wrap                                                   
c2248ff8  lv_group_swap_obj                                                   
c2209904  lv_img_buf_alloc                                                    
c2209aac  lv_img_buf_free                                                     
c2209b04  lv_img_buf_get_img_size                                             
c2208c18  lv_img_buf_get_px_alpha                                             
c2208860  lv_img_buf_get_px_color                                             
c22097f0  lv_img_buf_set_palette                                              
c2208fa0  lv_img_buf_set_px_alpha                                             
c220936c  lv_img_buf_set_px_color                                             
c2278734  lv_img_cache_invalidate_src                                         
c2278708  lv_img_cache_set_size                                               
c2259e10  lv_img_cf_get_px_size                                               
c2259f14  lv_img_cf_has_alpha                                                 
c2259eb0  lv_img_cf_is_chroma_keyed                                           
c22b83fc  lv_img_class                                                        
c221b528  lv_img_create                                                       
c222b574  lv_img_decoder_built_in_close                                       
c222aaa0  lv_img_decoder_built_in_info                                        
c222ad64  lv_img_decoder_built_in_open                                        
c222b384  lv_img_decoder_built_in_read_line                                   
c222a808  lv_img_decoder_close                                                
c222a8a0  lv_img_decoder_create                                               
c222a954  lv_img_decoder_delete                                               
c222a3a8  lv_img_decoder_get_info                                             
c222a4c4  lv_img_decoder_open                                                 
c222a770  lv_img_decoder_read_line                                            
c222aa60  lv_img_decoder_set_close_cb                                         
c222a9a0  lv_img_decoder_set_info_cb                                          
c222a9e0  lv_img_decoder_set_open_cb                                          
c222aa20  lv_img_decoder_set_read_line_cb                                     
c221c3a0  lv_img_get_angle                                                    
c221c46c  lv_img_get_antialias                                                
c221c320  lv_img_get_offset_x                                                 
c221c360  lv_img_get_offset_y                                                 
c221c3e0  lv_img_get_pivot                                                    
c221c4c8  lv_img_get_size_mode                                                
c221c2e4  lv_img_get_src                                                      
c221c42c  lv_img_get_zoom                                                     
c221ba84  lv_img_set_angle                                                    
c221c1a4  lv_img_set_antialias                                                
c221b9b4  lv_img_set_offset_x                                                 
c221ba20  lv_img_set_offset_y                                                 
c221bce4  lv_img_set_pivot                                                    
c221c244  lv_img_set_size_mode                                                
c221b574  lv_img_set_src                                                      
c221bf38  lv_img_set_zoom                                                     
c2259f90  lv_img_src_get_type                                                 
c2266b78  lv_indev_delete                                                     
c2266800  lv_indev_drv_init                                                   
c2266884  lv_indev_drv_register                                               
c22669b0  lv_indev_drv_update                                                 
c220e480  lv_indev_enable                                                     
c220e504  lv_indev_get_act                                                    
c220e9f4  lv_indev_get_gesture_dir                                            
c220ea30  lv_indev_get_key                                                    
c2266c94  lv_indev_get_next                                                   
c220ec94  lv_indev_get_obj_act                                                
c220e940  lv_indev_get_point                                                  
c220ecc4  lv_indev_get_read_timer                                             
c220ea88  lv_indev_get_scroll_dir                                             
c220eb18  lv_indev_get_scroll_obj                                             
c220e530  lv_indev_get_type                                                   
c220eba0  lv_indev_get_vect                                                   
c220e280  lv_indev_read_timer_cb                                              
c220e588  lv_indev_reset                                                      
c220e760  lv_indev_reset_long_press                                           
c223054c  lv_indev_scroll_get_snap_dist                                       
c2230434  lv_indev_scroll_throw_predict                                       
c220ed14  lv_indev_search_obj                                                 
c220e8ec  lv_indev_set_button_points                                          
c220e7b4  lv_indev_set_cursor                                                 
c220e884  lv_indev_set_group                                                  
c220ec38  lv_indev_wait_release                                               
c2216b2c  lv_init                                                             
c2216b00  lv_is_initialized                                                   
c22b8418  lv_keyboard_class                                                   
c2257b00  lv_keyboard_create                                                  
c2257e0c  lv_keyboard_def_event_cb                                            
c2257d78  lv_keyboard_get_mode                                                
c2257d40  lv_keyboard_get_textarea                                            
c2257cd0  lv_keyboard_set_map                                                 
c2257bc0  lv_keyboard_set_mode                                                
c2257c34  lv_keyboard_set_popovers                                            
c2257b4c  lv_keyboard_set_textarea                                            
c22b8434  lv_label_class                                                      
c21fc7c4  lv_label_create                                                     
c21fde8c  lv_label_cut_text                                                   
c21fd36c  lv_label_get_letter_on                                              
c21fcf30  lv_label_get_letter_pos                                             
c21fce8c  lv_label_get_long_mode                                              
c21fced4  lv_label_get_recolor                                                
c21fce4c  lv_label_get_text                                                   
c21fdca0  lv_label_get_text_selection_end                                     
c21fdc64  lv_label_get_text_selection_start                                   
c21fdce0  lv_label_ins_text                                                   
c21fd814  lv_label_is_char_under_pos                                          
c21fcbc8  lv_label_set_long_mode                                              
c21fccf8  lv_label_set_recolor                                                
c21fc80c  lv_label_set_text                                                   
c21fca04  lv_label_set_text_fmt                                               
c21fcdf8  lv_label_set_text_sel_end                                           
c21fcdac  lv_label_set_text_sel_start                                         
c21fcb2c  lv_label_set_text_static                                            
c21f2f54  lv_layout_register                                                  
c22b8450  lv_led_class                                                        
c225fc20  lv_led_create                                                       
c225fe40  lv_led_get_brightness                                               
c225fdac  lv_led_off                                                          
c225fd78  lv_led_on                                                           
c225fcc4  lv_led_set_brightness                                               
c225fc6c  lv_led_set_color                                                    
c225fde0  lv_led_toggle                                                       
c22b846c  lv_line_class                                                       
c22627e4  lv_line_create                                                      
c2262940  lv_line_get_y_invert                                                
c226282c  lv_line_set_points                                                  
c2262894  lv_line_set_y_invert                                                
c22b8488  lv_list_btn_class                                                   
c22b84a4  lv_list_class                                                       
c22b84c0  lv_list_text_class                                                  
c22736d0  lv_log                                                              
c22734e0  lv_log_register_print_cb                                            
c2261084  lv_map                                                              
c2242238  lv_mem_alloc                                                        
c21d6fa0  lv_mem_buf                                                          
c2242acc  lv_mem_buf_free_all                                                 
c2242630  lv_mem_buf_get                                                      
c22429e4  lv_mem_buf_release                                                  
c2242200  lv_mem_deinit                                                       
c2242334  lv_mem_free                                                         
c22421c0  lv_mem_init                                                         
c2242544  lv_mem_monitor                                                      
c22423b0  lv_mem_realloc                                                      
c2242498  lv_mem_test                                                         
c2242bb4  lv_memcpy                                                           
c22431cc  lv_memset                                                           
c22433b8  lv_memset_00                                                        
c2243548  lv_memset_ff                                                        
c22441cc  lv_menu_back_btn_is_root                                            
c22b84dc  lv_menu_class                                                       
c2244264  lv_menu_clear_history                                               
c22b84f8  lv_menu_cont_class                                                  
c2243830  lv_menu_cont_create                                                 
c2243780  lv_menu_create                                                      
c224404c  lv_menu_get_cur_main_page                                           
c224408c  lv_menu_get_cur_sidebar_page                                        
c22440cc  lv_menu_get_main_header                                             
c224410c  lv_menu_get_main_header_back_btn                                    
c224414c  lv_menu_get_sidebar_header                                          
c224418c  lv_menu_get_sidebar_header_back_btn                                 
c22b8514  lv_menu_main_cont_class                                             
c22b8530  lv_menu_main_header_cont_class                                      
c22b854c  lv_menu_page_class                                                  
c22437cc  lv_menu_page_create                                                 
c22b8568  lv_menu_section_class                                               
c2243880  lv_menu_section_create                                              
c22b8584  lv_menu_separator_class                                             
c22438cc  lv_menu_separator_create                                            
c2243f90  lv_menu_set_load_page_event                                         
c2243e60  lv_menu_set_mode_header                                             
c2243f08  lv_menu_set_mode_root_back_btn                                      
c22439a4  lv_menu_set_page                                                    
c2243c00  lv_menu_set_sidebar_page                                            
c22b85a0  lv_menu_sidebar_cont_class                                          
c22b85bc  lv_menu_sidebar_header_cont_class                                   
c22200e0  lv_meter_add_arc                                                    
c221fff4  lv_meter_add_needle_img                                             
c221ff00  lv_meter_add_needle_line                                            
c221fc54  lv_meter_add_scale                                                  
c22201d4  lv_meter_add_scale_lines                                            
c22b85d8  lv_meter_class                                                      
c221fc08  lv_meter_create                                                     
c2220494  lv_meter_set_indicator_end_value                                    
c22203e4  lv_meter_set_indicator_start_value                                  
c2220300  lv_meter_set_indicator_value                                        
c221fdec  lv_meter_set_scale_major_ticks                                      
c221fe84  lv_meter_set_scale_range                                            
c221fd68  lv_meter_set_scale_ticks                                            
c22b85f4  lv_msgbox_backdrop_class                                            
c22b8610  lv_msgbox_class                                                     
c223de08  lv_obj_add_event_cb                                                 
c2216d18  lv_obj_add_flag                                                     
c2216f00  lv_obj_add_state                                                    
c220b76c  lv_obj_add_style                                                    
c21f3070  lv_obj_align                                                        
c21f30d8  lv_obj_align_to                                                     
c2217198  lv_obj_allocate_spec_attr                                           
c21f4978  lv_obj_area_is_visible                                              
c22405a4  lv_obj_calculate_ext_draw_size                                      
c220ce68  lv_obj_calculate_style_text_align                                   
c2217294  lv_obj_check_type                                                   
c22b862c  lv_obj_class                                                        
c22655c0  lv_obj_class_create_obj                                             
c22657e0  lv_obj_class_init_obj                                               
c224d670  lv_obj_clean                                                        
c2216e04  lv_obj_clear_flag                                                   
c2216f78  lv_obj_clear_state                                                  
c2216ccc  lv_obj_create                                                       
c224d578  lv_obj_del                                                          
c224d78c  lv_obj_del_anim_ready_cb                                            
c224d7c4  lv_obj_del_async                                                    
c224d70c  lv_obj_del_delayed                                                  
c2240824  lv_obj_draw_dsc_init                                                
c224086c  lv_obj_draw_part_check_type                                         
c220bf10  lv_obj_enable_style_refresh                                         
c223dac8  lv_obj_event_base                                                   
c220cccc  lv_obj_fade_in                                                      
c220cd6c  lv_obj_fade_out                                                     
c224de68  lv_obj_get_child                                                    
c224df50  lv_obj_get_child_cnt                                                
c2217388  lv_obj_get_class                                                    
c21f4ca4  lv_obj_get_click_area                                               
c21f3c2c  lv_obj_get_content_coords                                           
c21f3ba8  lv_obj_get_content_height                                           
c21f3b24  lv_obj_get_content_width                                            
c21f3798  lv_obj_get_coords                                                   
c224dd30  lv_obj_get_disp                                                     
c223e614  lv_obj_get_event_user_data                                          
c2217148  lv_obj_get_group                                                    
c21f3ad4  lv_obj_get_height                                                   
c224dfa8  lv_obj_get_index                                                    
c220c154  lv_obj_get_local_style_prop                                         
c224de14  lv_obj_get_parent                                                   
c224dce8  lv_obj_get_screen                                                   
c2202d28  lv_obj_get_scroll_bottom                                            
c2202af4  lv_obj_get_scroll_dir                                               
c22032e0  lv_obj_get_scroll_end                                               
c2202ec4  lv_obj_get_scroll_left                                              
c22030ec  lv_obj_get_scroll_right                                             
c2202b54  lv_obj_get_scroll_snap_x                                            
c2202bb4  lv_obj_get_scroll_snap_y                                            
c2202ccc  lv_obj_get_scroll_top                                               
c2202c14  lv_obj_get_scroll_x                                                 
c2202c70  lv_obj_get_scroll_y                                                 
c2203c4c  lv_obj_get_scrollbar_area                                           
c2202a94  lv_obj_get_scrollbar_mode                                           
c21f3d74  lv_obj_get_self_height                                              
c21f3d24  lv_obj_get_self_width                                               
c22170b0  lv_obj_get_state                                                    
c220bf48  lv_obj_get_style_prop                                               
c21f3a8c  lv_obj_get_width                                                    
c21f37d8  lv_obj_get_x                                                        
c21f3888  lv_obj_get_x2                                                       
c21f39f8  lv_obj_get_x_aligned                                                
c21f38e8  lv_obj_get_y                                                        
c21f399c  lv_obj_get_y2                                                       
c21f3a44  lv_obj_get_y_aligned                                                
c221730c  lv_obj_has_class                                                    
c2216ff4  lv_obj_has_flag                                                     
c2217054  lv_obj_has_flag_any                                                 
c22170e4  lv_obj_has_state                                                    
c21f4d50  lv_obj_hit_test                                                     
c2240424  lv_obj_init_draw_arc_dsc                                            
c22400d8  lv_obj_init_draw_img_dsc                                            
c223ff50  lv_obj_init_draw_label_dsc                                          
c2240260  lv_obj_init_draw_line_dsc                                           
c223f9d0  lv_obj_init_draw_rect_dsc                                           
c21f48a8  lv_obj_invalidate                                                   
c21f4838  lv_obj_invalidate_area                                              
c2265944  lv_obj_is_editable                                                  
c22659f8  lv_obj_is_group_def                                                 
c21f2d60  lv_obj_is_layout_positioned                                         
c2203b6c  lv_obj_is_scrolling                                                 
c22173b4  lv_obj_is_valid                                                     
c21f4b98  lv_obj_is_visible                                                   
c21f2e10  lv_obj_mark_layout_as_dirty                                         
c21f4720  lv_obj_move_children_by                                             
c21f4440  lv_obj_move_to                                                      
c224da40  lv_obj_move_to_index                                                
c2204b38  lv_obj_readjust_scroll                                              
c21f3e54  lv_obj_refr_pos                                                     
c21f2474  lv_obj_refr_size                                                    
c22408e0  lv_obj_refresh_ext_draw_size                                        
c21f3dc8  lv_obj_refresh_self_size                                            
c220bd74  lv_obj_refresh_style                                                
c223dfa0  lv_obj_remove_event_cb                                              
c223e1b4  lv_obj_remove_event_cb_with_user_data                               
c223e40c  lv_obj_remove_event_dsc                                             
c220c264  lv_obj_remove_local_style_prop                                      
c220b974  lv_obj_remove_style                                                 
c220bcb8  lv_obj_report_style_change                                          
c2203604  lv_obj_scroll_by                                                    
c2203374  lv_obj_scroll_by_bounded                                            
c2203928  lv_obj_scroll_to                                                    
c2203a68  lv_obj_scroll_to_view                                               
c2203acc  lv_obj_scroll_to_view_recursive                                     
c2203980  lv_obj_scroll_to_x                                                  
c22039f0  lv_obj_scroll_to_y                                                  
c2204a8c  lv_obj_scrollbar_invalidate                                         
c21f3028  lv_obj_set_align                                                    
c21f2c8c  lv_obj_set_content_height                                           
c21f2c08  lv_obj_set_content_width                                            
c21f4c4c  lv_obj_set_ext_click_area                                           
c22264d8  lv_obj_set_flex_align                                               
c222648c  lv_obj_set_flex_flow                                                
c2226548  lv_obj_set_flex_grow                                                
c221dca0  lv_obj_set_grid_align                                               
c221dce8  lv_obj_set_grid_cell                                                
c221dc44  lv_obj_set_grid_dsc_array                                           
c21f2b80  lv_obj_set_height                                                   
c21f2d10  lv_obj_set_layout                                                   
c220c0f4  lv_obj_set_local_style_prop                                         
c224d800  lv_obj_set_parent                                                   
c21f2310  lv_obj_set_pos                                                      
c2202934  lv_obj_set_scroll_dir                                               
c22029c4  lv_obj_set_scroll_snap_x                                            
c2202a28  lv_obj_set_scroll_snap_y                                            
c220288c  lv_obj_set_scrollbar_mode                                           
c21f2aa0  lv_obj_set_size                                                     
c2235788  lv_obj_set_style_align                                              
c2236ff4  lv_obj_set_style_anim_speed                                         
c2236fac  lv_obj_set_style_anim_time                                          
c2236a68  lv_obj_set_style_arc_color                                          
c2236ab8  lv_obj_set_style_arc_color_filtered                                 
c2236b58  lv_obj_set_style_arc_img_src                                        
c2236b0c  lv_obj_set_style_arc_opa                                            
c2236a18  lv_obj_set_style_arc_rounded                                        
c22369c8  lv_obj_set_style_arc_width                                          
c2237128  lv_obj_set_style_base_dir                                           
c2235b98  lv_obj_set_style_bg_color                                           
c2235be8  lv_obj_set_style_bg_color_filtered                                  
c2235e68  lv_obj_set_style_bg_dither_mode                                     
c2235e20  lv_obj_set_style_bg_grad                                            
c2235c8c  lv_obj_set_style_bg_grad_color                                      
c2235ce0  lv_obj_set_style_bg_grad_color_filtered                             
c2235d34  lv_obj_set_style_bg_grad_dir                                        
c2235dd0  lv_obj_set_style_bg_grad_stop                                       
c2235f04  lv_obj_set_style_bg_img_opa                                         
c2235f50  lv_obj_set_style_bg_img_recolor                                     
c2235fa4  lv_obj_set_style_bg_img_recolor_filtered                            
c2235ff8  lv_obj_set_style_bg_img_recolor_opa                                 
c2235eb4  lv_obj_set_style_bg_img_src                                         
c2236048  lv_obj_set_style_bg_img_tiled                                       
c2235d84  lv_obj_set_style_bg_main_stop                                       
c2235c40  lv_obj_set_style_bg_opa                                             
c2237088  lv_obj_set_style_blend_mode                                         
c2236094  lv_obj_set_style_border_color                                       
c22360e4  lv_obj_set_style_border_color_filtered                              
c2236138  lv_obj_set_style_border_opa                                         
c2236228  lv_obj_set_style_border_post                                        
c22361d8  lv_obj_set_style_border_side                                        
c2236188  lv_obj_set_style_border_width                                       
c2236e74  lv_obj_set_style_clip_corner                                        
c2236f14  lv_obj_set_style_color_filter_dsc                                   
c2236f60  lv_obj_set_style_color_filter_opa                                   
c22267d0  lv_obj_set_style_flex_cross_place                                   
c222672c  lv_obj_set_style_flex_flow                                          
c2226874  lv_obj_set_style_flex_grow                                          
c2226780  lv_obj_set_style_flex_main_place                                    
c2226824  lv_obj_set_style_flex_track_place                                   
c221e1f8  lv_obj_set_style_grid_cell_column_pos                               
c221e250  lv_obj_set_style_grid_cell_column_span                              
c221e2a8  lv_obj_set_style_grid_cell_row_pos                                  
c221e300  lv_obj_set_style_grid_cell_row_span                                 
c221e354  lv_obj_set_style_grid_cell_x_align                                  
c221e3ac  lv_obj_set_style_grid_cell_y_align                                  
c221e1a8  lv_obj_set_style_grid_column_align                                  
c221e108  lv_obj_set_style_grid_column_dsc_array                              
c221e158  lv_obj_set_style_grid_row_align                                     
c221e0b8  lv_obj_set_style_grid_row_dsc_array                                 
c22355f4  lv_obj_set_style_height                                             
c2236650  lv_obj_set_style_img_opa                                            
c22366a0  lv_obj_set_style_img_recolor                                        
c22366f0  lv_obj_set_style_img_recolor_filtered                               
c2236748  lv_obj_set_style_img_recolor_opa                                    
c22370d4  lv_obj_set_style_layout                                             
c22368d0  lv_obj_set_style_line_color                                         
c2236924  lv_obj_set_style_line_color_filtered                                
c2236834  lv_obj_set_style_line_dash_gap                                      
c22367e8  lv_obj_set_style_line_dash_width                                    
c2236978  lv_obj_set_style_line_opa                                           
c2236884  lv_obj_set_style_line_rounded                                       
c2236794  lv_obj_set_style_line_width                                         
c2235698  lv_obj_set_style_max_height                                         
c22355a4  lv_obj_set_style_max_width                                          
c2235648  lv_obj_set_style_min_height                                         
c2235550  lv_obj_set_style_min_width                                          
c2236ec4  lv_obj_set_style_opa                                                
c22362c8  lv_obj_set_style_outline_color                                      
c2236318  lv_obj_set_style_outline_color_filtered                             
c223636c  lv_obj_set_style_outline_opa                                        
c22363c0  lv_obj_set_style_outline_pad                                        
c2236274  lv_obj_set_style_outline_width                                      
c2235a08  lv_obj_set_style_pad_bottom                                         
c2235b48  lv_obj_set_style_pad_column                                         
c2235a58  lv_obj_set_style_pad_left                                           
c2235aa8  lv_obj_set_style_pad_right                                          
c2235af8  lv_obj_set_style_pad_row                                            
c22359b8  lv_obj_set_style_pad_top                                            
c2236e28  lv_obj_set_style_radius                                             
c2236558  lv_obj_set_style_shadow_color                                       
c22365a8  lv_obj_set_style_shadow_color_filtered                              
c2236464  lv_obj_set_style_shadow_ofs_x                                       
c22364b4  lv_obj_set_style_shadow_ofs_y                                       
c2236600  lv_obj_set_style_shadow_opa                                         
c2236508  lv_obj_set_style_shadow_spread                                      
c2236410  lv_obj_set_style_shadow_width                                       
c2236dd8  lv_obj_set_style_text_align                                         
c2236ba4  lv_obj_set_style_text_color                                         
c2236bf8  lv_obj_set_style_text_color_filtered                                
c2236d88  lv_obj_set_style_text_decor                                         
c2236ca0  lv_obj_set_style_text_font                                          
c2236ce8  lv_obj_set_style_text_letter_space                                  
c2236d38  lv_obj_set_style_text_line_space                                    
c2236c4c  lv_obj_set_style_text_opa                                           
c2235968  lv_obj_set_style_transform_angle                                    
c2235828  lv_obj_set_style_transform_height                                   
c22357d8  lv_obj_set_style_transform_width                                    
c2235918  lv_obj_set_style_transform_zoom                                     
c2237040  lv_obj_set_style_transition                                         
c2235878  lv_obj_set_style_translate_x                                        
c22358c8  lv_obj_set_style_translate_y                                        
c2235500  lv_obj_set_style_width                                              
c22356e8  lv_obj_set_style_x                                                  
c2235738  lv_obj_set_style_y                                                  
c2266ecc  lv_obj_set_tile                                                     
c2266f58  lv_obj_set_tile_id                                                  
c21f2af0  lv_obj_set_width                                                    
c21f2364  lv_obj_set_x                                                        
c21f23ec  lv_obj_set_y                                                        
c220ce2c  lv_obj_style_get_selector_part                                      
c220ce04  lv_obj_style_get_selector_state                                     
c224dbe4  lv_obj_swap                                                         
c224e050  lv_obj_tree_walk                                                    
c21f2e94  lv_obj_update_layout                                                
c2203be8  lv_obj_update_snap                                                  
c22562d0  lv_palette_darken                                                   
c225620c  lv_palette_lighten                                                  
c22561a0  lv_palette_main                                                     
c2269350  lv_port_disp_init                                                   
c2276580  lv_port_indev_init                                                  
c2260fc0  lv_pow                                                              
c2261140  lv_rand                                                             
c2214a98  lv_refr_get_fps_avg                                                 
c2213f68  lv_refr_now                                                         
c2213fec  lv_refr_obj                                                         
c2214a58  lv_refr_reset_fps_counter                                           
c22b8648  lv_roller_class                                                     
c223398c  lv_roller_create                                                    
c2234024  lv_roller_get_option_cnt                                            
c2233fe0  lv_roller_get_options                                               
c2233df8  lv_roller_get_selected                                              
c2233e94  lv_roller_get_selected_str                                          
c22b8664  lv_roller_label_class                                               
c22339d8  lv_roller_set_options                                               
c2233c80  lv_roller_set_selected                                              
c2233d6c  lv_roller_set_visible_row_count                                     
c2250bac  lv_scr_load_anim                                                    
c22b8680  lv_slider_class                                                     
c223c348  lv_slider_create                                                    
c223c394  lv_slider_is_dragged                                                
c2247620  lv_snprintf                                                         
c22b869c  lv_spinbox_class                                                    
c224b2a0  lv_spinbox_create                                                   
c224bae0  lv_spinbox_decrement                                                
c224b980  lv_spinbox_get_rollover                                             
c224b80c  lv_spinbox_get_step                                                 
c224b7c8  lv_spinbox_get_value                                                
c224b9d0  lv_spinbox_increment                                                
c224b3d4  lv_spinbox_set_digit_format                                         
c224b764  lv_spinbox_set_digit_step_direction                                 
c224b670  lv_spinbox_set_pos                                                  
c224b5c8  lv_spinbox_set_range                                                
c224b380  lv_spinbox_set_rollover                                             
c224b574  lv_spinbox_set_step                                                 
c224b2ec  lv_spinbox_set_value                                                
c224b84c  lv_spinbox_step_next                                                
c224b8c4  lv_spinbox_step_prev                                                
c22b86b8  lv_spinner_class                                                    
c2270a90  lv_spinner_create                                                   
c2260cb0  lv_sqrt                                                             
c2254794  lv_style_get_prop                                                   
c2253ff8  lv_style_init                                                       
c2254a10  lv_style_is_empty                                                   
c2254878  lv_style_prop_get_default                                           
c22540c8  lv_style_register_prop                                              
c2254108  lv_style_remove_prop                                                
c225402c  lv_style_reset                                                      
c22373ec  lv_style_set_align                                                  
c2238ba4  lv_style_set_anim_speed                                             
c2238b60  lv_style_set_anim_time                                              
c2238640  lv_style_set_arc_color                                              
c2238690  lv_style_set_arc_color_filtered                                     
c2238730  lv_style_set_arc_img_src                                            
c22386e4  lv_style_set_arc_opa                                                
c22385f0  lv_style_set_arc_rounded                                            
c22385a4  lv_style_set_arc_width                                              
c2238cc8  lv_style_set_base_dir                                               
c22377e0  lv_style_set_bg_color                                               
c2237830  lv_style_set_bg_color_filtered                                      
c2237aa0  lv_style_set_bg_dither_mode                                         
c2237a58  lv_style_set_bg_grad                                                
c22378d0  lv_style_set_bg_grad_color                                          
c2237920  lv_style_set_bg_grad_color_filtered                                 
c2237970  lv_style_set_bg_grad_dir                                            
c2237a0c  lv_style_set_bg_grad_stop                                           
c2237b34  lv_style_set_bg_img_opa                                             
c2237b84  lv_style_set_bg_img_recolor                                         
c2237bd4  lv_style_set_bg_img_recolor_filtered                                
c2237c24  lv_style_set_bg_img_recolor_opa                                     
c2237aec  lv_style_set_bg_img_src                                             
c2237c70  lv_style_set_bg_img_tiled                                           
c22379c0  lv_style_set_bg_main_stop                                           
c2237884  lv_style_set_bg_opa                                                 
c2238c2c  lv_style_set_blend_mode                                             
c2237cc0  lv_style_set_border_color                                           
c2237d10  lv_style_set_border_color_filtered                                  
c2237d64  lv_style_set_border_opa                                             
c2237e4c  lv_style_set_border_post                                            
c2237e00  lv_style_set_border_side                                            
c2237db0  lv_style_set_border_width                                           
c2238a30  lv_style_set_clip_corner                                            
c2238acc  lv_style_set_color_filter_dsc                                       
c2238b10  lv_style_set_color_filter_opa                                       
c2226640  lv_style_set_flex_cross_place                                       
c22265a4  lv_style_set_flex_flow                                              
c22266d8  lv_style_set_flex_grow                                              
c22265f0  lv_style_set_flex_main_place                                        
c222668c  lv_style_set_flex_track_place                                       
c221decc  lv_style_set_grid_cell_column_pos                                   
c221df20  lv_style_set_grid_cell_column_span                                  
c221df70  lv_style_set_grid_cell_row_pos                                      
c221dfc4  lv_style_set_grid_cell_row_span                                     
c221e014  lv_style_set_grid_cell_x_align                                      
c221e068  lv_style_set_grid_cell_y_align                                      
c221de80  lv_style_set_grid_column_align                                      
c221dde4  lv_style_set_grid_column_dsc_array                                  
c221de30  lv_style_set_grid_row_align                                         
c221dd94  lv_style_set_grid_row_dsc_array                                     
c2237268  lv_style_set_height                                                 
c2238248  lv_style_set_img_opa                                                
c2238294  lv_style_set_img_recolor                                            
c22382e4  lv_style_set_img_recolor_filtered                                   
c2238334  lv_style_set_img_recolor_opa                                        
c2238c78  lv_style_set_layout                                                 
c22384b8  lv_style_set_line_color                                             
c2238508  lv_style_set_line_color_filtered                                    
c2238420  lv_style_set_line_dash_gap                                          
c22383d0  lv_style_set_line_dash_width                                        
c2238558  lv_style_set_line_opa                                               
c223846c  lv_style_set_line_rounded                                           
c2238384  lv_style_set_line_width                                             
c2237304  lv_style_set_max_height                                             
c2237218  lv_style_set_max_width                                              
c22372b4  lv_style_set_min_height                                             
c22371cc  lv_style_set_min_width                                              
c2238a80  lv_style_set_opa                                                    
c2237ee8  lv_style_set_outline_color                                          
c2237f38  lv_style_set_outline_color_filtered                                 
c2237f88  lv_style_set_outline_opa                                            
c2237fd4  lv_style_set_outline_pad                                            
c2237e98  lv_style_set_outline_width                                          
c2237658  lv_style_set_pad_bottom                                             
c2237790  lv_style_set_pad_column                                             
c22376a8  lv_style_set_pad_left                                               
c22376f4  lv_style_set_pad_right                                              
c2237744  lv_style_set_pad_row                                                
c223760c  lv_style_set_pad_top                                                
c2254428  lv_style_set_prop                                                   
c22389e4  lv_style_set_radius                                                 
c2238158  lv_style_set_shadow_color                                           
c22381a8  lv_style_set_shadow_color_filtered                                  
c2238070  lv_style_set_shadow_ofs_x                                           
c22380c0  lv_style_set_shadow_ofs_y                                           
c22381f8  lv_style_set_shadow_opa                                             
c223810c  lv_style_set_shadow_spread                                          
c2238024  lv_style_set_shadow_width                                           
c2238994  lv_style_set_text_align                                             
c2238774  lv_style_set_text_color                                             
c22387c4  lv_style_set_text_color_filtered                                    
c2238948  lv_style_set_text_decor                                             
c2238864  lv_style_set_text_font                                              
c22388ac  lv_style_set_text_letter_space                                      
c22388f8  lv_style_set_text_line_space                                        
c2238814  lv_style_set_text_opa                                               
c22375c0  lv_style_set_transform_angle                                        
c2237488  lv_style_set_transform_height                                       
c2237438  lv_style_set_transform_width                                        
c2237570  lv_style_set_transform_zoom                                         
c2238be8  lv_style_set_transition                                             
c22374d4  lv_style_set_translate_x                                            
c2237524  lv_style_set_translate_y                                            
c2237180  lv_style_set_width                                                  
c2237350  lv_style_set_x                                                      
c22373a0  lv_style_set_y                                                      
c22547e4  lv_style_transition_dsc_init                                        
c22b86d4  lv_switch_class                                                     
c225a7ac  lv_switch_create                                                    
c2200488  lv_table_add_cell_ctrl                                              
c22b86f0  lv_table_class                                                      
c2200638  lv_table_clear_cell_ctrl                                            
c21ff810  lv_table_create                                                     
c22007f4  lv_table_get_cell_value                                             
c2200918  lv_table_get_col_cnt                                                
c2200958  lv_table_get_col_width                                              
c22008d8  lv_table_get_row_cnt                                                
c2200ae4  lv_table_get_selected_cell                                          
c22009d0  lv_table_has_cell_ctrl                                              
c21ff860  lv_table_set_cell_value                                             
c21ffa6c  lv_table_set_cell_value_fmt                                         
c22000b4  lv_table_set_col_cnt                                                
c2200408  lv_table_set_col_width                                              
c21ffe20  lv_table_set_row_cnt                                                
c2257070  lv_tabview_add_tab                                                  
c22b870c  lv_tabview_class                                                    
c2257004  lv_tabview_create                                                   
c2257440  lv_tabview_get_content                                              
c2257400  lv_tabview_get_tab_act                                              
c2257480  lv_tabview_get_tab_btns                                             
c22572cc  lv_tabview_set_act                                                  
c21f5d6c  lv_textarea_add_char                                                
c21f6084  lv_textarea_add_text                                                
c22b8728  lv_textarea_class                                                   
c21f76a0  lv_textarea_clear_selection                                         
c21f5d24  lv_textarea_create                                                  
c21f77c4  lv_textarea_cursor_down                                             
c21f7770  lv_textarea_cursor_left                                             
c21f772c  lv_textarea_cursor_right                                            
c21f78c4  lv_textarea_cursor_up                                               
c21f63f8  lv_textarea_del_char                                                
c21f65f4  lv_textarea_del_char_forward                                        
c21f7508  lv_textarea_get_accepted_chars                                      
c21f73f4  lv_textarea_get_cursor_click_pos                                    
c21f73b4  lv_textarea_get_cursor_pos                                          
c21f7378  lv_textarea_get_label                                               
c21f7548  lv_textarea_get_max_length                                          
c21f74ac  lv_textarea_get_one_line                                            
c21f7450  lv_textarea_get_password_mode                                       
c21f7660  lv_textarea_get_password_show_time                                  
c21f7318  lv_textarea_get_placeholder_text                                    
c21f72b0  lv_textarea_get_text                                                
c21f7610  lv_textarea_get_text_selection                                      
c21f706c  lv_textarea_set_accepted_chars                                      
c21f7208  lv_textarea_set_align                                               
c21f6d00  lv_textarea_set_cursor_click_pos                                    
c21f6b00  lv_textarea_set_cursor_pos                                          
c21f7100  lv_textarea_set_insert_replace                                      
c21f70b4  lv_textarea_set_max_length                                          
c21f6f20  lv_textarea_set_one_line                                            
c21f6d70  lv_textarea_set_password_mode                                       
c21f71b8  lv_textarea_set_password_show_time                                  
c21f6968  lv_textarea_set_placeholder_text                                    
c21f6650  lv_textarea_set_text                                                
c21f7144  lv_textarea_set_text_selection                                      
c21f7588  lv_textarea_text_is_selected                                        
c226e450  lv_theme_apply                                                      
c21e6c04  lv_theme_default_get                                                
c21e6a90  lv_theme_default_init                                               
c21e6c54  lv_theme_default_is_inited                                          
c226e62c  lv_theme_get_color_primary                                          
c226e688  lv_theme_get_color_secondary                                        
c226e5d8  lv_theme_get_font_large                                             
c226e588  lv_theme_get_font_normal                                            
c226e534  lv_theme_get_font_small                                             
c226e3f4  lv_theme_get_from_obj                                               
c226e4f4  lv_theme_set_apply_cb                                               
c226e4b4  lv_theme_set_parent                                                 
c22799a8  lv_tick_elaps                                                       
c2279964  lv_tick_get                                                         
c2279920  lv_tick_inc                                                         
c2266e4c  lv_tileview_add_tile                                                
c22b8744  lv_tileview_class                                                   
c2266e00  lv_tileview_create                                                  
c2267080  lv_tileview_get_tile_act                                            
c22b8760  lv_tileview_tile_class                                              
c22604d8  lv_timer_create                                                     
c22604a4  lv_timer_create_basic                                               
c2260624  lv_timer_del                                                        
c22607f0  lv_timer_enable                                                     
c2260828  lv_timer_get_idle                                                   
c2260854  lv_timer_get_next                                                   
c2260258  lv_timer_handler                                                    
c2260670  lv_timer_pause                                                      
c2260734  lv_timer_ready                                                      
c22607b8  lv_timer_reset                                                      
c22606b4  lv_timer_resume                                                     
c22605e4  lv_timer_set_cb                                                     
c22606f4  lv_timer_set_period                                                 
c2260778  lv_timer_set_repeat_count                                           
c2207d94  lv_tlsf_add_pool                                                    
c2207cb0  lv_tlsf_align_size                                                  
c2207d68  lv_tlsf_alloc_overhead                                              
c2207bd4  lv_tlsf_block_size                                                  
c2207d0c  lv_tlsf_block_size_max                                              
c2207ce0  lv_tlsf_block_size_min                                              
c22075a8  lv_tlsf_check                                                       
c2207c28  lv_tlsf_check_pool                                                  
c220804c  lv_tlsf_create                                                      
c22080e8  lv_tlsf_create_with_pool                                            
c220814c  lv_tlsf_destroy                                                     
c2208388  lv_tlsf_free                                                        
c2208174  lv_tlsf_get_pool                                                    
c22081b0  lv_tlsf_malloc                                                      
c2208214  lv_tlsf_memalign                                                    
c2207d38  lv_tlsf_pool_overhead                                               
c2208440  lv_tlsf_realloc                                                     
c2207f04  lv_tlsf_remove_pool                                                 
c2207c84  lv_tlsf_size                                                        
c2207b18  lv_tlsf_walk_pool                                                   
c2260a40  lv_trigo_sin                                                        
c223a938  lv_txt_get_size                                                     
c223b150  lv_txt_get_width                                                    
c2247694  lv_vsnprintf                                                        
c227102c  lv_win_add_btn                                                      
c2270fc4  lv_win_add_title                                                    
c22b877c  lv_win_class                                                        
c2270f60  lv_win_create                                                       
c22710f0  lv_win_get_content                                                  
c22710b0  lv_win_get_header                                                   
c22754f0  main                                                                
c227ef80  malloc                                                              
c227efe0  memccpy                                                             
c227cf20  memcpy                                                              
c227ae20  memset                                                              
c22bb1d0  p_rx                                                                
c22bb1d4  p_tx                                                                
c22ba9c8  palette_32b                                                         
c21d73d8  parmbuf                                                             
c2263404  performFirmwareInit                                                 
c2262ee8  placeHbaInIdle                                                      
c21d71a0  pllcfg                                                              
c227af00  printf                                                              
c2274ee0  putc                                                                
c227cfc0  realloc                                                             
c227e7a0  remove                                                              
c21d6a68  rx_data                                                             
c22bb1d8  rx_len                                                              
c22bb23c  sataRegs                                                            
c2275260  scalbn                                                              
c2275260  scalbnl                                                             
c22632a0  setSataSpeed                                                        
c22755e0  setvbuf                                                             
c227de20  snprintf                                                            
c22bb26c  spi_flag                                                            
c2263104  spinUpDeviceAndWaitForInitToComplete                                
c227f040  sprintf                                                             
c227f0a0  sscanf                                                              
c227dea0  strcat                                                              
c227f100  strcmp                                                              
c227f160  strcpy                                                              
c22804c0  strlen                                                              
c227f1c0  strncmp                                                             
c225d6e0  strtod                                                              
c226d920  strtol                                                              
c225d6e0  strtold                                                             
c226a920  strtoll                                                             
c226fde0  strtoul                                                             
c226ade0  strtoull                                                            
c21bb824  swCtrlFeatures                                                      
c22bb240  temp                                                                
c227f280  ti_ndk_config_Global_stackThread                                    
c2282060  ti_ndk_config_global_taskCreateHook                                 
c2282080  ti_ndk_config_global_taskExitHook                                   
c22b7bfc  ti_sysbios_BIOS_Module__diagsEnabled__C                             
c22b7c34  ti_sysbios_BIOS_Module__diagsIncluded__C                            
c22b7d1c  ti_sysbios_BIOS_Module__diagsMask__C                                
c22958d6  ti_sysbios_BIOS_Module__id__C                                       
c22ba9e8  ti_sysbios_BIOS_Module__state__V                                    
c22820a0  ti_sysbios_BIOS_RtsGateProxy_enter__E                               
c22820c0  ti_sysbios_BIOS_RtsGateProxy_leave__E                               
c227f2e0  ti_sysbios_BIOS_errorRaiseHook__I                                   
c227f340  ti_sysbios_BIOS_exitFunc__I                                         
c2280500  ti_sysbios_BIOS_exit__E                                             
c2280540  ti_sysbios_BIOS_getCpuFreq__E                                       
c22820e0  ti_sysbios_BIOS_getThreadType__E                                    
c22b7f2c  ti_sysbios_BIOS_installedErrorHook__C                               
c2282100  ti_sysbios_BIOS_nullFunc__I                                         
c2280580  ti_sysbios_BIOS_registerRTSLock__I                                  
c22805c0  ti_sysbios_BIOS_removeRTSLock__I                                    
c227f3a0  ti_sysbios_BIOS_rtsLock__I                                          
c2279b20  ti_sysbios_BIOS_rtsUnlock__I                                        
c2280600  ti_sysbios_BIOS_setThreadType__E                                    
c2280640  ti_sysbios_BIOS_startFunc__I                                        
c2282120  ti_sysbios_BIOS_start__E                                            
c2282140  ti_sysbios_family_c62_TaskSupport_Module__startupDone__S            
c2280340  ti_sysbios_family_c62_TaskSupport_buildTaskStack                    
c2280680  ti_sysbios_family_c62_TaskSupport_checkStack__E                     
c2282160  ti_sysbios_family_c62_TaskSupport_getStackAlignment__E              
c2281f80  ti_sysbios_family_c62_TaskSupport_glue                              
c22b7f54  ti_sysbios_family_c62_TaskSupport_stackAlignment__C                 
c227d060  ti_sysbios_family_c62_TaskSupport_start__E                          
c227dda0  ti_sysbios_family_c62_TaskSupport_swap__E                           
c22b7f7c  ti_sysbios_family_c64p_Cache_EMIFA_BASE__C                          
c22b7fa4  ti_sysbios_family_c64p_Cache_EMIFA_CFG__C                           
c22b87b4  ti_sysbios_family_c64p_Cache_EMIFA_LENGTH__C                        
c22b87d4  ti_sysbios_family_c64p_Cache_EMIFB_BASE__C                          
c22b87f4  ti_sysbios_family_c64p_Cache_EMIFB_CFG__C                           
c22b8814  ti_sysbios_family_c64p_Cache_EMIFB_LENGTH__C                        
c22b8834  ti_sysbios_family_c64p_Cache_EMIFC_BASE__C                          
c22b8854  ti_sysbios_family_c64p_Cache_EMIFC_CFG__C                           
c22b8874  ti_sysbios_family_c64p_Cache_EMIFC_LENGTH__C                        
c22b8894  ti_sysbios_family_c64p_Cache_MAR0_31__C                             
c22b88b4  ti_sysbios_family_c64p_Cache_MAR128_159__C                          
c22b88d4  ti_sysbios_family_c64p_Cache_MAR160_191__C                          
c22b88f4  ti_sysbios_family_c64p_Cache_MAR192_223__C                          
c22b8914  ti_sysbios_family_c64p_Cache_MAR224_255__C                          
c22b8934  ti_sysbios_family_c64p_Cache_MAR32_63__C                            
c22b8954  ti_sysbios_family_c64p_Cache_MAR64_95__C                            
c22b8974  ti_sysbios_family_c64p_Cache_MAR96_127__C                           
c22baaa4  ti_sysbios_family_c64p_Cache_Module__state__V                       
c2282180  ti_sysbios_family_c64p_Cache_Module_startup__E                      
c227afe0  ti_sysbios_family_c64p_Cache_Module_startup__F                      
c227d100  ti_sysbios_family_c64p_Cache_all__I                                 
c2278fc0  ti_sysbios_family_c64p_Cache_block__I                               
c22b92cc  ti_sysbios_family_c64p_Cache_initSize__C                            
c22821a0  ti_sysbios_family_c64p_Cache_invL1pAll__E                           
c227d1a0  ti_sysbios_family_c64p_Cache_marInit__I                             
c227d240  ti_sysbios_family_c64p_Cache_setMar__E                              
c227df20  ti_sysbios_family_c64p_Cache_setSize__E                             
c227dfa0  ti_sysbios_family_c64p_Cache_wait__E                                
c22821c0  ti_sysbios_family_c64p_Cache_wbInvAll__E                            
c22806c0  ti_sysbios_family_c64p_Cache_wbInv__E                               
c22b91b8  ti_sysbios_family_c64p_EventCombiner_EVTMASK__C                     
c22b8994  ti_sysbios_family_c64p_EventCombiner_E_unpluggedEvent__C            
c22af3a6  ti_sysbios_family_c64p_EventCombiner_Module__id__C                  
c22b9c00  ti_sysbios_family_c64p_EventCombiner_Module__state__V               
c22821e0  ti_sysbios_family_c64p_EventCombiner_Module_startup__E              
c227e020  ti_sysbios_family_c64p_EventCombiner_Module_startup__F              
c2282200  ti_sysbios_family_c64p_EventCombiner_disableEvent__E                
c227e0a0  ti_sysbios_family_c64p_EventCombiner_disableEvent__F                
c2280700  ti_sysbios_family_c64p_EventCombiner_dispatchPlug__E                
c227f400  ti_sysbios_family_c64p_EventCombiner_dispatchPlug__F                
c2282220  ti_sysbios_family_c64p_EventCombiner_dispatch__E                    
c2279c20  ti_sysbios_family_c64p_EventCombiner_dispatch__F                    
c227e120  ti_sysbios_family_c64p_EventCombiner_enableEvent__F                 
c2282240  ti_sysbios_family_c64p_EventCombiner_unused__E                      
c227f460  ti_sysbios_family_c64p_EventCombiner_unused__F                      
c22b89b4  ti_sysbios_family_c64p_Exception_E_exceptionMax__C                  
c22b0ab6  ti_sysbios_family_c64p_Exception_Module__id__C                      
c22ba920  ti_sysbios_family_c64p_Exception_Module__state__V                   
c2282260  ti_sysbios_family_c64p_Exception_Module_startup__E                  
c2279d20  ti_sysbios_family_c64p_Exception_Module_startup__F                  
c22790e0  ti_sysbios_family_c64p_Exception_decodeMpfsr__I                     
c2276f00  ti_sysbios_family_c64p_Exception_dispatch__E                        
c2280740  ti_sysbios_family_c64p_Exception_evtEvtClear__E                     
c227f4c0  ti_sysbios_family_c64p_Exception_evtExpMaskEnable__E                
c22b89d4  ti_sysbios_family_c64p_Exception_exceptionHook__C                   
c2278760  ti_sysbios_family_c64p_Exception_externalHandler__I                 
c22b89f4  ti_sysbios_family_c64p_Exception_externalHook__C                    
c227e1a0  ti_sysbios_family_c64p_Exception_getLastStatus__E                   
c22611e0  ti_sysbios_family_c64p_Exception_handler__I                         
c2277080  ti_sysbios_family_c64p_Exception_internalHandler__I                 
c22b8e14  ti_sysbios_family_c64p_Exception_internalHook__C                    
c227f520  ti_sysbios_family_c64p_Exception_nmiHandler__I                      
c22b8e2c  ti_sysbios_family_c64p_Exception_nmiHook__C                         
c22b242e  ti_sysbios_family_c64p_Exception_useInternalBuffer__C               
c22bb400  ti_sysbios_family_c64p_Hwi0                                         
c22b8e44  ti_sysbios_family_c64p_Hwi_E_alreadyDefined__C                      
c22b8e5c  ti_sysbios_family_c64p_Hwi_E_handleNotFound__C                      
c21d7410  ti_sysbios_family_c64p_Hwi_Instance_State_0_hookEnv__A              
c21d7418  ti_sysbios_family_c64p_Hwi_Instance_State_1_hookEnv__A              
c21d7420  ti_sysbios_family_c64p_Hwi_Instance_State_2_hookEnv__A              
c21d7428  ti_sysbios_family_c64p_Hwi_Instance_State_3_hookEnv__A              
c21d7430  ti_sysbios_family_c64p_Hwi_Instance_State_4_hookEnv__A              
c22757a0  ti_sysbios_family_c64p_Hwi_Instance_finalize__F                     
c22788a0  ti_sysbios_family_c64p_Hwi_Instance_init__F                         
c22b8e74  ti_sysbios_family_c64p_Hwi_LD_end__C                                
c22b8e8c  ti_sysbios_family_c64p_Hwi_LM_begin__C                              
c22b8ea4  ti_sysbios_family_c64p_Hwi_Module__diagsEnabled__C                  
c22b8ebc  ti_sysbios_family_c64p_Hwi_Module__diagsIncluded__C                 
c22b8ed4  ti_sysbios_family_c64p_Hwi_Module__diagsMask__C                     
c22b4786  ti_sysbios_family_c64p_Hwi_Module__id__C                            
c22b4afa  ti_sysbios_family_c64p_Hwi_Module__loggerDefined__C                 
c22b8eec  ti_sysbios_family_c64p_Hwi_Module__loggerFxn1__C                    
c22b8f04  ti_sysbios_family_c64p_Hwi_Module__loggerFxn8__C                    
c22b8f1c  ti_sysbios_family_c64p_Hwi_Module__loggerObj__C                     
c22bab9c  ti_sysbios_family_c64p_Hwi_Module__root__V                          
c2280780  ti_sysbios_family_c64p_Hwi_Module__startupDone__F                   
c2282280  ti_sysbios_family_c64p_Hwi_Module__startupDone__S                   
c22ba680  ti_sysbios_family_c64p_Hwi_Module__state__V                         
c22822a0  ti_sysbios_family_c64p_Hwi_Module_startup__E                        
c2275960  ti_sysbios_family_c64p_Hwi_Module_startup__F                        
c22b7fe8  ti_sysbios_family_c64p_Hwi_Object__DESC__C                          
c22b7c68  ti_sysbios_family_c64p_Hwi_Object__PARAMS__C                        
c227b0c0  ti_sysbios_family_c64p_Hwi_Object__create__S                        
c22807c0  ti_sysbios_family_c64p_Hwi_Object__delete__S                        
c22b8f34  ti_sysbios_family_c64p_Hwi_Object__heap__C                          
c22ba478  ti_sysbios_family_c64p_Hwi_Object__table__V                         
c2280800  ti_sysbios_family_c64p_Hwi_Params__init__S                          
c2280840  ti_sysbios_family_c64p_Hwi_clearInterrupt__E                        
c227f580  ti_sysbios_family_c64p_Hwi_disableIER__E                            
c2280880  ti_sysbios_family_c64p_Hwi_disableInterrupt__E                      
c2273f80  ti_sysbios_family_c64p_Hwi_dispatchAlways                           
c22808c0  ti_sysbios_family_c64p_Hwi_dispatchC__I                             
c226cde0  ti_sysbios_family_c64p_Hwi_dispatchCore__I                          
c227f5e0  ti_sysbios_family_c64p_Hwi_enableIER__E                             
c2280900  ti_sysbios_family_c64p_Hwi_enableInterrupt__E                       
c227c240  ti_sysbios_family_c64p_Hwi_eventMap__E                              
c227e220  ti_sysbios_family_c64p_Hwi_getEventId__E                            
c2280940  ti_sysbios_family_c64p_Hwi_getIsrStackAddress__I                    
c227c300  ti_sysbios_family_c64p_Hwi_getStackInfo__E                          
c22b8e90  ti_sysbios_family_c64p_Hwi_hooks__A                                 
c22b9380  ti_sysbios_family_c64p_Hwi_hooks__C                                 
c22bb400  ti_sysbios_family_c64p_Hwi_int0                                     
c22bb420  ti_sysbios_family_c64p_Hwi_int1                                     
c22bb540  ti_sysbios_family_c64p_Hwi_int10                                    
c22bb560  ti_sysbios_family_c64p_Hwi_int11                                    
c22bb580  ti_sysbios_family_c64p_Hwi_int12                                    
c22bb5a0  ti_sysbios_family_c64p_Hwi_int13                                    
c22bb5c0  ti_sysbios_family_c64p_Hwi_int14                                    
c22bb5e0  ti_sysbios_family_c64p_Hwi_int15                                    
c22bb440  ti_sysbios_family_c64p_Hwi_int2                                     
c22bb460  ti_sysbios_family_c64p_Hwi_int3                                     
c22bb480  ti_sysbios_family_c64p_Hwi_int4                                     
c22bb4a0  ti_sysbios_family_c64p_Hwi_int5                                     
c22bb4c0  ti_sysbios_family_c64p_Hwi_int6                                     
c22bb4e0  ti_sysbios_family_c64p_Hwi_int7                                     
c22bb500  ti_sysbios_family_c64p_Hwi_int8                                     
c22bb520  ti_sysbios_family_c64p_Hwi_int9                                     
c227cc00  ti_sysbios_family_c64p_Hwi_plug__E                                  
c227b1a0  ti_sysbios_family_c64p_Hwi_postInit__I                              
c2275b20  ti_sysbios_family_c64p_Hwi_reconfig__E                              
c22822c0  ti_sysbios_family_c64p_Hwi_startup__E                               
c227ee60  ti_sysbios_family_c64p_Hwi_switchAndDispatch__I                     
c22822e0  ti_sysbios_family_c64p_Hwi_switchFromBootStack__E                   
c2282300  ti_sysbios_family_c64p_Hwi_unPluggedInterrupt__I                    
c2282320  ti_sysbios_family_c64p_TimestampProvider_Module_startup__E          
c2282340  ti_sysbios_family_c64p_TimestampProvider_Module_startup__F          
c2282360  ti_sysbios_family_c64p_TimestampProvider_get32__E                   
c2280980  ti_sysbios_family_c64p_TimestampProvider_get64__E                   
c2282380  ti_sysbios_family_c64p_TimestampProvider_getFreq__E                 
c22baba8  ti_sysbios_family_c64p_primus_TimerSupport_Module_State_0_suspSrc__A
c22baac4  ti_sysbios_family_c64p_primus_TimerSupport_Module__state__V         
c227d2e0  ti_sysbios_family_c64p_primus_TimerSupport_enable__E                
c227eec0  ti_sysbios_family_xxx_Hwi_switchAndRunFunc                          
c2280380  ti_sysbios_family_xxx_Hwi_switchToIsrStack                          
c2281fa0  ti_sysbios_family_xxx_Hwi_switchToTaskStack                         
c227f640  ti_sysbios_gates_GateHwi_Handle__label__S                           
c22823a0  ti_sysbios_gates_GateHwi_Instance_init__F                           
c22b7e54  ti_sysbios_gates_GateHwi_Module__FXNS__C                            
c22babb0  ti_sysbios_gates_GateHwi_Module__root__V                            
c22b8008  ti_sysbios_gates_GateHwi_Object__DESC__C                            
c22b8b18  ti_sysbios_gates_GateHwi_Object__PARAMS__C                          
c227e2a0  ti_sysbios_gates_GateHwi_Object__create__S                          
c22809c0  ti_sysbios_gates_GateHwi_Object__delete__S                          
c22babb8  ti_sysbios_gates_GateHwi_Object__table__V                           
c2280a00  ti_sysbios_gates_GateHwi_enter__E                                   
c22823c0  ti_sysbios_gates_GateHwi_leave__E                                   
c22823e0  ti_sysbios_gates_GateHwi_query__E                                   
c2282400  ti_sysbios_gates_GateHwi_query__F                                   
c22b8f4c  ti_sysbios_gates_GateMutex_A_badContext__C                          
c227f6a0  ti_sysbios_gates_GateMutex_Handle__label__S                         
c22b8f64  ti_sysbios_gates_GateMutex_Instance_State_sem__O                    
c2280a80  ti_sysbios_gates_GateMutex_Instance_finalize__F                     
c2280ac0  ti_sysbios_gates_GateMutex_Instance_init__F                         
c22b7e78  ti_sysbios_gates_GateMutex_Module__FXNS__C                          
c22b8f7c  ti_sysbios_gates_GateMutex_Module__diagsEnabled__C                  
c22b8f94  ti_sysbios_gates_GateMutex_Module__diagsIncluded__C                 
c22b8fac  ti_sysbios_gates_GateMutex_Module__diagsMask__C                     
c22b5982  ti_sysbios_gates_GateMutex_Module__id__C                            
c22babc0  ti_sysbios_gates_GateMutex_Module__root__V                          
c22b8028  ti_sysbios_gates_GateMutex_Object__DESC__C                          
c22b8b30  ti_sysbios_gates_GateMutex_Object__PARAMS__C                        
c227e320  ti_sysbios_gates_GateMutex_Object__create__S                        
c2280b00  ti_sysbios_gates_GateMutex_Object__delete__S                        
c22ba748  ti_sysbios_gates_GateMutex_Object__table__V                         
c2276720  ti_sysbios_gates_GateMutex_enter__E                                 
c2280b40  ti_sysbios_gates_GateMutex_leave__E                                 
c2282420  ti_sysbios_gates_GateMutex_query__E                                 
c2282440  ti_sysbios_gates_GateMutex_query__F                                 
c22b8fc4  ti_sysbios_hal_Hwi_E_stackOverflow__C                               
c2282460  ti_sysbios_hal_Hwi_HwiProxy_Module__startupDone__S                  
c2280b80  ti_sysbios_hal_Hwi_HwiProxy_Object__create__S                       
c2282480  ti_sysbios_hal_Hwi_HwiProxy_Object__delete__S                       
c22824a0  ti_sysbios_hal_Hwi_HwiProxy_clearInterrupt__E                       
c22824e0  ti_sysbios_hal_Hwi_HwiProxy_disableInterrupt__E                     
c2282500  ti_sysbios_hal_Hwi_HwiProxy_enableInterrupt__E                      
c2280c00  ti_sysbios_hal_Hwi_HwiProxy_getStackInfo__E                         
c2282520  ti_sysbios_hal_Hwi_HwiProxy_startup__E                              
c2282540  ti_sysbios_hal_Hwi_HwiProxy_switchFromBootStack__E                  
c2280c40  ti_sysbios_hal_Hwi_Instance_finalize__F                             
c227f700  ti_sysbios_hal_Hwi_Instance_init__F                                 
c22b66ae  ti_sysbios_hal_Hwi_Module__id__C                                    
c22babc8  ti_sysbios_hal_Hwi_Module__root__V                                  
c2282560  ti_sysbios_hal_Hwi_Module_startup__E                                
c2282580  ti_sysbios_hal_Hwi_Module_startup__F                                
c22b8048  ti_sysbios_hal_Hwi_Object__DESC__C                                  
c22b7cc4  ti_sysbios_hal_Hwi_Object__PARAMS__C                                
c227b280  ti_sysbios_hal_Hwi_Object__create__S                                
c2280c80  ti_sysbios_hal_Hwi_Object__delete__S                                
c22bab50  ti_sysbios_hal_Hwi_Object__table__V                                 
c2280cc0  ti_sysbios_hal_Hwi_Params__init__S                                  
c227f760  ti_sysbios_hal_Hwi_checkStack                                       
c22825c0  ti_sysbios_hal_Hwi_clearInterrupt__E                                
c2282600  ti_sysbios_hal_Hwi_disableInterrupt__E                              
c2282620  ti_sysbios_hal_Hwi_enableInterrupt__E                               
c2280d80  ti_sysbios_hal_Hwi_getStackInfo__E                                  
c227f7c0  ti_sysbios_hal_Hwi_initStack                                        
c2282640  ti_sysbios_hal_Hwi_startup__E                                       
c2282660  ti_sysbios_hal_Hwi_switchFromBootStack__E                           
c2280dc0  ti_sysbios_hal_Timer_Module__startupDone__F                         
c2282680  ti_sysbios_hal_Timer_Module__startupDone__S                         
c22826a0  ti_sysbios_hal_Timer_Module_startup__E                              
c22826c0  ti_sysbios_hal_Timer_Module_startup__F                              
c22bab60  ti_sysbios_hal_Timer_Object__table__V                               
c22826e0  ti_sysbios_hal_Timer_TimerProxy_Module__startupDone__S              
c2282700  ti_sysbios_hal_Timer_TimerProxy_getPeriod__E                        
c2282720  ti_sysbios_hal_Timer_TimerProxy_startup__E                          
c2282740  ti_sysbios_hal_Timer_getPeriod__E                                   
c2282760  ti_sysbios_hal_Timer_startup__E                                     
c22b8fdc  ti_sysbios_heaps_HeapMem_A_align__C                                 
c22b8ff4  ti_sysbios_heaps_HeapMem_A_heapSize__C                              
c22b900c  ti_sysbios_heaps_HeapMem_A_invalidFree__C                           
c22b9024  ti_sysbios_heaps_HeapMem_A_zeroBlock__C                             
c22b903c  ti_sysbios_heaps_HeapMem_E_memory__C                                
c227f820  ti_sysbios_heaps_HeapMem_Handle__label__S                           
c0000000  ti_sysbios_heaps_HeapMem_Instance_State_0_buf__A                    
c226d1a0  ti_sysbios_heaps_HeapMem_Instance_init__F                           
c2282780  ti_sysbios_heaps_HeapMem_Module_GateProxy_enter__E                  
c22827a0  ti_sysbios_heaps_HeapMem_Module_GateProxy_leave__E                  
c22827c0  ti_sysbios_heaps_HeapMem_Module_GateProxy_query__E                  
c22b7d48  ti_sysbios_heaps_HeapMem_Module__FXNS__C                            
c22b9054  ti_sysbios_heaps_HeapMem_Module__diagsEnabled__C                    
c22b906c  ti_sysbios_heaps_HeapMem_Module__diagsIncluded__C                   
c22b9084  ti_sysbios_heaps_HeapMem_Module__diagsMask__C                       
c22b909c  ti_sysbios_heaps_HeapMem_Module__gateObj__C                         
c22b6766  ti_sysbios_heaps_HeapMem_Module__id__C                              
c22babd0  ti_sysbios_heaps_HeapMem_Module__root__V                            
c22b8068  ti_sysbios_heaps_HeapMem_Object__DESC__C                            
c22b7e9c  ti_sysbios_heaps_HeapMem_Object__PARAMS__C                          
c22b90b4  ti_sysbios_heaps_HeapMem_Object__count__C                           
c227e3a0  ti_sysbios_heaps_HeapMem_Object__create__S                          
c2280e00  ti_sysbios_heaps_HeapMem_Object__delete__S                          
c227f880  ti_sysbios_heaps_HeapMem_Object__get__S                             
c22b90cc  ti_sysbios_heaps_HeapMem_Object__table__C                           
c22baac8  ti_sysbios_heaps_HeapMem_Object__table__V                           
c2265be0  ti_sysbios_heaps_HeapMem_alloc__E                                   
c22620a0  ti_sysbios_heaps_HeapMem_free__E                                    
c227b360  ti_sysbios_heaps_HeapMem_getStats__E                                
c227d380  ti_sysbios_heaps_HeapMem_init__I                                    
c2282800  ti_sysbios_heaps_HeapMem_isBlocking__E                              
c22b90e4  ti_sysbios_heaps_HeapMem_reqAlign__C                                
c2280e40  ti_sysbios_heaps_HeapMem_restore__E                                 
c22b92e4  ti_sysbios_knl_Clock_A_badThreadType__C                             
c22b92f4  ti_sysbios_knl_Clock_A_clockDisabled__C                             
c226e760  ti_sysbios_knl_Clock_Instance_init__F                               
c22b9304  ti_sysbios_knl_Clock_LM_begin__C                                    
c22b9314  ti_sysbios_knl_Clock_LM_tick__C                                     
c22b9324  ti_sysbios_knl_Clock_LW_delayed__C                                  
c22b9334  ti_sysbios_knl_Clock_Module_State_clockQ__O                         
c22b9344  ti_sysbios_knl_Clock_Module__diagsEnabled__C                        
c22b9364  ti_sysbios_knl_Clock_Module__diagsIncluded__C                       
c22b93d4  ti_sysbios_knl_Clock_Module__diagsMask__C                           
c22b6b66  ti_sysbios_knl_Clock_Module__id__C                                  
c22b6c06  ti_sysbios_knl_Clock_Module__loggerDefined__C                       
c22b93dc  ti_sysbios_knl_Clock_Module__loggerFxn1__C                          
c22b93e4  ti_sysbios_knl_Clock_Module__loggerFxn2__C                          
c22b93e8  ti_sysbios_knl_Clock_Module__loggerObj__C                           
c22babd8  ti_sysbios_knl_Clock_Module__root__V                                
c22ba950  ti_sysbios_knl_Clock_Module__state__V                               
c2282820  ti_sysbios_knl_Clock_Module_startup__E                              
c2280f00  ti_sysbios_knl_Clock_Module_startup__F                              
c22b8088  ti_sysbios_knl_Clock_Object__DESC__C                                
c22b7ec0  ti_sysbios_knl_Clock_Object__PARAMS__C                              
c227d420  ti_sysbios_knl_Clock_Object__create__S                              
c2280f40  ti_sysbios_knl_Clock_Params__init__S                                
c227f8e0  ti_sysbios_knl_Clock_addI__E                                        
c227f940  ti_sysbios_knl_Clock_doTick__I                                      
c2282860  ti_sysbios_knl_Clock_getTicks__E                                    
c227b440  ti_sysbios_knl_Clock_logTick__E                                     
c22828c0  ti_sysbios_knl_Clock_removeI__E                                     
c2280fc0  ti_sysbios_knl_Clock_startI__E                                      
c2279e20  ti_sysbios_knl_Clock_start__E                                       
c2271a00  ti_sysbios_knl_Clock_workFunc__E                                    
c22b92d8  ti_sysbios_knl_Idle_coreList__A                                     
c22b9388  ti_sysbios_knl_Idle_coreList__C                                     
c22b92e8  ti_sysbios_knl_Idle_funcList__A                                     
c22b9390  ti_sysbios_knl_Idle_funcList__C                                     
c22828e0  ti_sysbios_knl_Idle_loop__E                                         
c227d4c0  ti_sysbios_knl_Idle_run__E                                          
c2282900  ti_sysbios_knl_Queue_Instance_init__F                               
c22babe0  ti_sysbios_knl_Queue_Module__root__V                                
c22b80a8  ti_sysbios_knl_Queue_Object__DESC__C                                
c22b8b48  ti_sysbios_knl_Queue_Object__PARAMS__C                              
c227e420  ti_sysbios_knl_Queue_Object__create__S                              
c2281000  ti_sysbios_knl_Queue_Object__destruct__S                            
c2281040  ti_sysbios_knl_Queue_Object__get__S                                 
c22810c0  ti_sysbios_knl_Queue_dequeue__E                                     
c2282980  ti_sysbios_knl_Queue_elemClear__E                                   
c2281100  ti_sysbios_knl_Queue_empty__E                                       
c2281140  ti_sysbios_knl_Queue_enqueue__E                                     
c22829a0  ti_sysbios_knl_Queue_head__E                                        
c22829c0  ti_sysbios_knl_Queue_insert__E                                      
c22829e0  ti_sysbios_knl_Queue_next__E                                        
c227f9a0  ti_sysbios_knl_Queue_put__E                                         
c2281180  ti_sysbios_knl_Queue_remove__E                                      
c22b93ec  ti_sysbios_knl_Semaphore_A_badContext__C                            
c22b93f0  ti_sysbios_knl_Semaphore_A_noEvents__C                              
c22b93f4  ti_sysbios_knl_Semaphore_A_overflow__C                              
c22b93f8  ti_sysbios_knl_Semaphore_A_pendTaskDisabled__C                      
c22b93fc  ti_sysbios_knl_Semaphore_Instance_State_pendQ__O                    
c2281200  ti_sysbios_knl_Semaphore_Instance_finalize__F                       
c2275ce0  ti_sysbios_knl_Semaphore_Instance_init__F                           
c22b9400  ti_sysbios_knl_Semaphore_LM_pend__C                                 
c22b9404  ti_sysbios_knl_Semaphore_LM_post__C                                 
c22b9408  ti_sysbios_knl_Semaphore_Module__diagsEnabled__C                    
c22b940c  ti_sysbios_knl_Semaphore_Module__diagsIncluded__C                   
c22b9410  ti_sysbios_knl_Semaphore_Module__diagsMask__C                       
c22b7dbe  ti_sysbios_knl_Semaphore_Module__id__C                              
c22b7de6  ti_sysbios_knl_Semaphore_Module__loggerDefined__C                   
c22b9414  ti_sysbios_knl_Semaphore_Module__loggerFxn2__C                      
c22b9418  ti_sysbios_knl_Semaphore_Module__loggerFxn4__C                      
c22b941c  ti_sysbios_knl_Semaphore_Module__loggerObj__C                       
c22babe8  ti_sysbios_knl_Semaphore_Module__root__V                            
c22b80c8  ti_sysbios_knl_Semaphore_Object__DESC__C                            
c22b7ee4  ti_sysbios_knl_Semaphore_Object__PARAMS__C                          
c227d560  ti_sysbios_knl_Semaphore_Object__create__S                          
c2281240  ti_sysbios_knl_Semaphore_Object__destruct__S                        
c2281280  ti_sysbios_knl_Semaphore_Params__init__S                            
c227e4a0  ti_sysbios_knl_Semaphore_pendTimeout__I                             
c2263540  ti_sysbios_knl_Semaphore_pend__E                                    
c22700e0  ti_sysbios_knl_Semaphore_post__E                                    
c22b9420  ti_sysbios_knl_Swi_A_badPriority__C                                 
c22b9424  ti_sysbios_knl_Swi_A_swiDisabled__C                                 
c21d7438  ti_sysbios_knl_Swi_Instance_State_0_hookEnv__A                      
c2275ea0  ti_sysbios_knl_Swi_Instance_finalize__F                             
c226eac0  ti_sysbios_knl_Swi_Instance_init__F                                 
c22b9428  ti_sysbios_knl_Swi_LD_end__C                                        
c22b942c  ti_sysbios_knl_Swi_LM_begin__C                                      
c22b9430  ti_sysbios_knl_Swi_LM_post__C                                       
c22ba508  ti_sysbios_knl_Swi_Module_State_0_readyQ__A                         
c22b9434  ti_sysbios_knl_Swi_Module__diagsEnabled__C                          
c22b9438  ti_sysbios_knl_Swi_Module__diagsIncluded__C                         
c22b943c  ti_sysbios_knl_Swi_Module__diagsMask__C                             
c22b7f2a  ti_sysbios_knl_Swi_Module__id__C                                    
c22b7f52  ti_sysbios_knl_Swi_Module__loggerDefined__C                         
c22b9440  ti_sysbios_knl_Swi_Module__loggerFxn1__C                            
c22b9444  ti_sysbios_knl_Swi_Module__loggerFxn4__C                            
c22b9448  ti_sysbios_knl_Swi_Module__loggerObj__C                             
c22babf0  ti_sysbios_knl_Swi_Module__root__V                                  
c22baae4  ti_sysbios_knl_Swi_Module__state__V                                 
c2282a60  ti_sysbios_knl_Swi_Module_startup__E                                
c2277a80  ti_sysbios_knl_Swi_Module_startup__F                                
c22b80e8  ti_sysbios_knl_Swi_Object__DESC__C                                  
c22b7d70  ti_sysbios_knl_Swi_Object__PARAMS__C                                
c22b944c  ti_sysbios_knl_Swi_Object__count__C                                 
c227b520  ti_sysbios_knl_Swi_Object__create__S                                
c227fa00  ti_sysbios_knl_Swi_Object__get__S                                   
c22b9450  ti_sysbios_knl_Swi_Object__heap__C                                  
c22b9454  ti_sysbios_knl_Swi_Object__table__C                                 
c22ba8b8  ti_sysbios_knl_Swi_Object__table__V                                 
c2281300  ti_sysbios_knl_Swi_Params__init__S                                  
c2281340  ti_sysbios_knl_Swi_disable__E                                       
c2282aa0  ti_sysbios_knl_Swi_enabled__E                                       
c22b8b60  ti_sysbios_knl_Swi_hooks__A                                         
c22b9398  ti_sysbios_knl_Swi_hooks__C                                         
c22b9458  ti_sysbios_knl_Swi_numConstructedSwis__C                            
c227b600  ti_sysbios_knl_Swi_postInit__I                                      
c2274180  ti_sysbios_knl_Swi_post__E                                          
c2279f20  ti_sysbios_knl_Swi_restoreHwi__E                                    
c227e520  ti_sysbios_knl_Swi_restore__E                                       
c227b6e0  ti_sysbios_knl_Swi_runLoop__I                                       
c226dcc0  ti_sysbios_knl_Swi_run__I                                           
c227b7c0  ti_sysbios_knl_Swi_schedule__I                                      
c2282ac0  ti_sysbios_knl_Swi_startup__E                                       
c22b945c  ti_sysbios_knl_Task_A_badPriority__C                                
c22b9460  ti_sysbios_knl_Task_A_badTaskState__C                               
c22b9464  ti_sysbios_knl_Task_A_badThreadType__C                              
c22b9468  ti_sysbios_knl_Task_A_badTimeout__C                                 
c22b946c  ti_sysbios_knl_Task_A_noPendElem__C                                 
c22b9470  ti_sysbios_knl_Task_A_sleepTaskDisabled__C                          
c22b9474  ti_sysbios_knl_Task_A_taskDisabled__C                               
c22b9478  ti_sysbios_knl_Task_E_deleteNotAllowed__C                           
c22b947c  ti_sysbios_knl_Task_E_spOutOfBounds__C                              
c22b9480  ti_sysbios_knl_Task_E_stackOverflow__C                              
c21d73a8  ti_sysbios_knl_Task_Instance_State_0_hookEnv__A                     
c21d3528  ti_sysbios_knl_Task_Instance_State_0_stack__A                       
c21d73b8  ti_sysbios_knl_Task_Instance_State_1_hookEnv__A                     
c21d5528  ti_sysbios_knl_Task_Instance_State_1_stack__A                       
c2263be0  ti_sysbios_knl_Task_Instance_finalize__F                            
c2267400  ti_sysbios_knl_Task_Instance_init__F                                
c22b9484  ti_sysbios_knl_Task_LD_block__C                                     
c22b9488  ti_sysbios_knl_Task_LD_exit__C                                      
c22b948c  ti_sysbios_knl_Task_LD_ready__C                                     
c22b9490  ti_sysbios_knl_Task_LM_sleep__C                                     
c22b9494  ti_sysbios_knl_Task_LM_switch__C                                    
c22bac20  ti_sysbios_knl_Task_Module_State_0_idleTask__A                      
c22ba588  ti_sysbios_knl_Task_Module_State_0_readyQ__A                        
c22b9498  ti_sysbios_knl_Task_Module_State_inactiveQ__O                       
c22b949c  ti_sysbios_knl_Task_Module_State_terminatedQ__O                     
c22b94a0  ti_sysbios_knl_Task_Module__diagsEnabled__C                         
c22b94a4  ti_sysbios_knl_Task_Module__diagsIncluded__C                        
c22b94a8  ti_sysbios_knl_Task_Module__diagsMask__C                            
c22b7f7a  ti_sysbios_knl_Task_Module__id__C                                   
c22b7fa2  ti_sysbios_knl_Task_Module__loggerDefined__C                        
c22b94ac  ti_sysbios_knl_Task_Module__loggerFxn2__C                           
c22b94b0  ti_sysbios_knl_Task_Module__loggerFxn4__C                           
c22b94b4  ti_sysbios_knl_Task_Module__loggerObj__C                            
c22babf8  ti_sysbios_knl_Task_Module__root__V                                 
c22ba838  ti_sysbios_knl_Task_Module__state__V                                
c2282ae0  ti_sysbios_knl_Task_Module_startup__E                               
c2277be0  ti_sysbios_knl_Task_Module_startup__F                               
c22b8108  ti_sysbios_knl_Task_Object__DESC__C                                 
c22b7b54  ti_sysbios_knl_Task_Object__PARAMS__C                               
c22b94b8  ti_sysbios_knl_Task_Object__count__C                                
c227b8a0  ti_sysbios_knl_Task_Object__create__S                               
c2281400  ti_sysbios_knl_Task_Object__delete__S                               
c2281440  ti_sysbios_knl_Task_Object__first__S                                
c2281480  ti_sysbios_knl_Task_Object__get__S                                  
c22b94bc  ti_sysbios_knl_Task_Object__heap__C                                 
c22814c0  ti_sysbios_knl_Task_Object__next__S                                 
c22b94c0  ti_sysbios_knl_Task_Object__table__C                                
c22ba340  ti_sysbios_knl_Task_Object__table__V                                
c2281500  ti_sysbios_knl_Task_Params__init__S                                 
c2282b60  ti_sysbios_knl_Task_SupportProxy_Module__startupDone__S             
c2282b80  ti_sysbios_knl_Task_SupportProxy_checkStack__E                      
c2282ba0  ti_sysbios_knl_Task_SupportProxy_getStackAlignment__E               
c2282bc0  ti_sysbios_knl_Task_SupportProxy_start__E                           
c2282be0  ti_sysbios_knl_Task_SupportProxy_swap__E                            
c22b94c4  ti_sysbios_knl_Task_allBlockedFunc__C                               
c227c3c0  ti_sysbios_knl_Task_allBlockedFunction__I                           
c2277200  ti_sysbios_knl_Task_blockI__E                                       
c2277380  ti_sysbios_knl_Task_checkStacks__E                                  
c22b94c8  ti_sysbios_knl_Task_defaultStackHeap__C                             
c22b94cc  ti_sysbios_knl_Task_defaultStackSize__C                             
c227e5a0  ti_sysbios_knl_Task_deleteTerminatedTasksFunc__I                    
c2281540  ti_sysbios_knl_Task_disable__E                                      
c2281580  ti_sysbios_knl_Task_enabled__E                                      
c22815c0  ti_sysbios_knl_Task_enter__I                                        
c2274380  ti_sysbios_knl_Task_exit__E                                         
c2282c20  ti_sysbios_knl_Task_getHookContext__E                               
c2282c40  ti_sysbios_knl_Task_getIdleTask__E                                  
c227fa60  ti_sysbios_knl_Task_getMode__E                                      
c2282c60  ti_sysbios_knl_Task_getPri__E                                       
c22b7a90  ti_sysbios_knl_Task_hooks__A                                        
c22b93a0  ti_sysbios_knl_Task_hooks__C                                        
c22b81a6  ti_sysbios_knl_Task_initStackFlag__C                                
c22b94d0  ti_sysbios_knl_Task_numConstructedTasks__C                          
c2274960  ti_sysbios_knl_Task_postInit__I                                     
c227fac0  ti_sysbios_knl_Task_processVitalTaskFlag__I                         
c2281600  ti_sysbios_knl_Task_restoreHwi__E                                   
c227fb20  ti_sysbios_knl_Task_restore__E                                      
c2271f20  ti_sysbios_knl_Task_schedule__I                                     
c2282ca0  ti_sysbios_knl_Task_self__E                                         
c2281640  ti_sysbios_knl_Task_setHookContext__E                               
c227fb80  ti_sysbios_knl_Task_sleepTimeout__I                                 
c226b220  ti_sysbios_knl_Task_sleep__E                                        
c22721a0  ti_sysbios_knl_Task_startCore__E                                    
c2282cc0  ti_sysbios_knl_Task_startup__E                                      
c2274b40  ti_sysbios_knl_Task_unblockI__E                                     
c2281680  ti_sysbios_knl_Task_unblock__E                                      
c22b94d4  ti_sysbios_timers_timer64_Timer_A_notAvailable__C                   
c22b94d8  ti_sysbios_timers_timer64_Timer_E_cannotSupport__C                  
c22b94dc  ti_sysbios_timers_timer64_Timer_E_invalidTimer__C                   
c22b94e0  ti_sysbios_timers_timer64_Timer_E_notAvailable__C                   
c227c480  ti_sysbios_timers_timer64_Timer_Instance_finalize__F                
c226d560  ti_sysbios_timers_timer64_Timer_Instance_init__F                    
c22ba6e8  ti_sysbios_timers_timer64_Timer_Module_State_0_device__A            
c22baa08  ti_sysbios_timers_timer64_Timer_Module_State_0_gctrl__A             
c22baa28  ti_sysbios_timers_timer64_Timer_Module_State_0_handles__A           
c22baa48  ti_sysbios_timers_timer64_Timer_Module_State_0_intFreqs__A          
c22b94e4  ti_sysbios_timers_timer64_Timer_Module__diagsEnabled__C             
c22b94e8  ti_sysbios_timers_timer64_Timer_Module__diagsIncluded__C            
c22b94ec  ti_sysbios_timers_timer64_Timer_Module__diagsMask__C                
c22b81c6  ti_sysbios_timers_timer64_Timer_Module__id__C                       
c22bac00  ti_sysbios_timers_timer64_Timer_Module__root__V                     
c22816c0  ti_sysbios_timers_timer64_Timer_Module__startupDone__F              
c2282ce0  ti_sysbios_timers_timer64_Timer_Module__startupDone__S              
c22bab14  ti_sysbios_timers_timer64_Timer_Module__state__V                    
c2282d00  ti_sysbios_timers_timer64_Timer_Module_startup__E                   
c2269f80  ti_sysbios_timers_timer64_Timer_Module_startup__F                   
c22b8128  ti_sysbios_timers_timer64_Timer_Object__DESC__C                     
c22b75a0  ti_sysbios_timers_timer64_Timer_Object__PARAMS__C                   
c227a020  ti_sysbios_timers_timer64_Timer_Object__create__S                   
c22ba798  ti_sysbios_timers_timer64_Timer_Object__table__V                    
c2281700  ti_sysbios_timers_timer64_Timer_Params__init__S                     
c2282d20  ti_sysbios_timers_timer64_Timer_TimerSupportProxy_enable__E         
c22b94f0  ti_sysbios_timers_timer64_Timer_anyMask__C                          
c2281740  ti_sysbios_timers_timer64_Timer_checkOverflow__I                    
c22b94f4  ti_sysbios_timers_timer64_Timer_defaultHalf__C                      
c226ee20  ti_sysbios_timers_timer64_Timer_deviceConfig__I                     
c22b94f8  ti_sysbios_timers_timer64_Timer_freqDivisor__C                      
c22768c0  ti_sysbios_timers_timer64_Timer_getFreq__E                          
c227d600  ti_sysbios_timers_timer64_Timer_getPeriod__E                        
c2277d40  ti_sysbios_timers_timer64_Timer_initDevice__I                       
c226f4c0  ti_sysbios_timers_timer64_Timer_initObj__I                          
c22b94fc  ti_sysbios_timers_timer64_Timer_numLocalTimers__C                   
c22b9500  ti_sysbios_timers_timer64_Timer_numTimerDevices__C                  
c2281780  ti_sysbios_timers_timer64_Timer_postInit__I                         
c2273720  ti_sysbios_timers_timer64_Timer_setPeriodMicroSecs__E               
c2272de0  ti_sysbios_timers_timer64_Timer_start__E                            
c22b81e6  ti_sysbios_timers_timer64_Timer_startupNeeded__C                    
c227d6a0  ti_sysbios_timers_timer64_Timer_startup__E                          
c227b980  ti_sysbios_timers_timer64_Timer_stop__E                             
c22b9504  ti_sysbios_utils_Load_LS_cpuLoad__C                                 
c22b9508  ti_sysbios_utils_Load_LS_hwiLoad__C                                 
c22b950c  ti_sysbios_utils_Load_LS_swiLoad__C                                 
c22b9510  ti_sysbios_utils_Load_LS_taskLoad__C                                
c22bac28  ti_sysbios_utils_Load_Module_State_0_runningTask__A                 
c22ba880  ti_sysbios_utils_Load_Module_State_0_taskEnv__A                     
c22bac30  ti_sysbios_utils_Load_Module_State_0_taskStartTime__A               
c22b9514  ti_sysbios_utils_Load_Module_State_taskList__O                      
c22b9518  ti_sysbios_utils_Load_Module__diagsEnabled__C                       
c22b951c  ti_sysbios_utils_Load_Module__diagsIncluded__C                      
c22b9520  ti_sysbios_utils_Load_Module__diagsMask__C                          
c22b8832  ti_sysbios_utils_Load_Module__id__C                                 
c22b8852  ti_sysbios_utils_Load_Module__loggerDefined__C                      
c22b9524  ti_sysbios_utils_Load_Module__loggerFxn1__C                         
c22b9528  ti_sysbios_utils_Load_Module__loggerFxn2__C                         
c22b952c  ti_sysbios_utils_Load_Module__loggerFxn4__C                         
c22b9530  ti_sysbios_utils_Load_Module__loggerObj__C                          
c22ba3e0  ti_sysbios_utils_Load_Module__state__V                              
c227c540  ti_sysbios_utils_Load_addTask__E                                    
c22b8872  ti_sysbios_utils_Load_autoAddTasks__C                               
c2282d40  ti_sysbios_utils_Load_getCPULoad__E                                 
c227e620  ti_sysbios_utils_Load_getGlobalHwiLoad__E                           
c227fbe0  ti_sysbios_utils_Load_getGlobalSwiLoad__E                           
c227e6a0  ti_sysbios_utils_Load_getTaskLoad__E                                
c22789e0  ti_sysbios_utils_Load_hwiBeginHook__E                               
c22b8892  ti_sysbios_utils_Load_hwiEnabled__C                                 
c227c600  ti_sysbios_utils_Load_hwiEndHook__E                                 
c2276060  ti_sysbios_utils_Load_idleFxn__E                                    
c227c6c0  ti_sysbios_utils_Load_logCPULoad__I                                 
c22703e0  ti_sysbios_utils_Load_logLoads__I                                   
c22b9534  ti_sysbios_utils_Load_postUpdate__C                                 
c227e720  ti_sysbios_utils_Load_removeTask__E                                 
c227a120  ti_sysbios_utils_Load_swiBeginHook__E                               
c227d740  ti_sysbios_utils_Load_swiEndHook__E                                 
c227a220  ti_sysbios_utils_Load_taskCreateHook__E                             
c227d7e0  ti_sysbios_utils_Load_taskDeleteHook__E                             
c2282d60  ti_sysbios_utils_Load_taskRegHook__E                                
c227a320  ti_sysbios_utils_Load_taskSwitchHook__E                             
c2276a60  ti_sysbios_utils_Load_updateCurrentThreadTime__E                    
c22b88b2  ti_sysbios_utils_Load_updateInIdle__C                               
c2273940  ti_sysbios_utils_Load_updateLoads__E                                
c2272420  ti_sysbios_utils_Load_updateThreadContexts__E                       
c2282d80  ti_sysbios_utils_Load_update__E                                     
c22b9538  ti_sysbios_utils_Load_windowInMs__C                                 
c2282da0  tolower                                                             
c21d6b70  tx_data                                                             
c22bb1dc  tx_len                                                              
c22ba7e8  ulDataPatternTable                                                  
c227e7a0  unlink                                                              
c21d6c78  vrf_data                                                            
c2281800  vsprintf                                                            
c2263034  waitForXms                                                          
c2281840  wcslen                                                              
c227fc40  write                                                               
c22b953c  xdc_runtime_Assert_E_assertFailed__C                                
c227d880  xdc_runtime_Assert_raise__I                                         
c22b9540  xdc_runtime_Core_A_initializedParams__C                             
c22b9544  xdc_runtime_Core_Module__diagsEnabled__C                            
c22b9548  xdc_runtime_Core_Module__diagsIncluded__C                           
c22b954c  xdc_runtime_Core_Module__diagsMask__C                               
c22b88d2  xdc_runtime_Core_Module__id__C                                      
c227e820  xdc_runtime_Core_assignLabel__I                                     
c227e8a0  xdc_runtime_Core_assignParams__I                                    
c2273b60  xdc_runtime_Core_createObject__I                                    
c227a420  xdc_runtime_Core_deleteObject__I                                    
c22b9550  xdc_runtime_Error_E_memory__C                                       
c22b9554  xdc_runtime_Error_Module__diagsEnabled__C                           
c22b9558  xdc_runtime_Error_Module__diagsIncluded__C                          
c22b955c  xdc_runtime_Error_Module__diagsMask__C                              
c22b88f2  xdc_runtime_Error_Module__loggerDefined__C                          
c22b9560  xdc_runtime_Error_Module__loggerFxn8__C                             
c22b9564  xdc_runtime_Error_Module__loggerObj__C                              
c22baba6  xdc_runtime_Error_Module__state__V                                  
c2282de0  xdc_runtime_Error_check__E                                          
c2281880  xdc_runtime_Error_check__F                                          
c2282e00  xdc_runtime_Error_init__E                                           
c22818c0  xdc_runtime_Error_init__F                                           
c22b8912  xdc_runtime_Error_maxDepth__C                                       
c22b9568  xdc_runtime_Error_policy__C                                         
c2282e20  xdc_runtime_Error_print__E                                          
c227ba60  xdc_runtime_Error_print__F                                          
c22b956c  xdc_runtime_Error_raiseHook__C                                      
c227fca0  xdc_runtime_Error_raiseX__E                                         
c22726a0  xdc_runtime_Error_raiseX__F                                         
c2282e40  xdc_runtime_Gate_enterSystem__E                                     
c2282e60  xdc_runtime_Gate_enterSystem__F                                     
c2282e80  xdc_runtime_Gate_leaveSystem__E                                     
c2282ea0  xdc_runtime_Gate_leaveSystem__F                                     
c22b9570  xdc_runtime_IGateProvider_Interface__BASE__C                        
c22b9574  xdc_runtime_IHeap_Interface__BASE__C                                
c22b9578  xdc_runtime_ILogger_Interface__BASE__C                              
c22b957c  xdc_runtime_IModule_Interface__BASE__C                              
c22b9580  xdc_runtime_Log_L_error__C                                          
c2282ec0  xdc_runtime_Log_doPrint__E                                          
c2274580  xdc_runtime_Log_doPrint__F                                          
c227fd00  xdc_runtime_LoggerSys_Handle__label__S                              
c2282ee0  xdc_runtime_LoggerSys_Instance_init__F                              
c22b7bc8  xdc_runtime_LoggerSys_Module__FXNS__C                               
c22bac08  xdc_runtime_LoggerSys_Module__root__V                               
c22b8148  xdc_runtime_LoggerSys_Object__DESC__C                               
c22b8b78  xdc_runtime_LoggerSys_Object__PARAMS__C                             
c227e920  xdc_runtime_LoggerSys_Object__create__S                             
c2281980  xdc_runtime_LoggerSys_Object__delete__S                             
c22bab70  xdc_runtime_LoggerSys_Object__table__V                              
c2282f00  xdc_runtime_LoggerSys_TimestampProxy_get64__E                       
c2282f20  xdc_runtime_LoggerSys_disable__E                                    
c2282f40  xdc_runtime_LoggerSys_disable__F                                    
c2282f60  xdc_runtime_LoggerSys_enable__E                                     
c2282f80  xdc_runtime_LoggerSys_enable__F                                     
c22819c0  xdc_runtime_LoggerSys_write0__E                                     
c227fd60  xdc_runtime_LoggerSys_write0__F                                     
c2281a00  xdc_runtime_LoggerSys_write1__E                                     
c227fdc0  xdc_runtime_LoggerSys_write1__F                                     
c2281a40  xdc_runtime_LoggerSys_write2__E                                     
c2281a80  xdc_runtime_LoggerSys_write2__F                                     
c227fe20  xdc_runtime_LoggerSys_write4__E                                     
c2281ac0  xdc_runtime_LoggerSys_write4__F                                     
c227e9a0  xdc_runtime_LoggerSys_write8__E                                     
c227bb40  xdc_runtime_LoggerSys_write8__F                                     
c2282fa0  xdc_runtime_Memory_HeapProxy_alloc__E                               
c2282fc0  xdc_runtime_Memory_HeapProxy_free__E                                
c22b8932  xdc_runtime_Memory_Module__id__C                                    
c22bab5c  xdc_runtime_Memory_Module__state__V                                 
c2282fe0  xdc_runtime_Memory_alloc__E                                         
c227bc20  xdc_runtime_Memory_alloc__F                                         
c2283000  xdc_runtime_Memory_calloc__E                                        
c227fe80  xdc_runtime_Memory_calloc__F                                        
c22b9584  xdc_runtime_Memory_defaultHeapInstance__C                           
c2283020  xdc_runtime_Memory_free__E                                          
c2281b00  xdc_runtime_Memory_free__F                                          
c22bac10  xdc_runtime_Registry_Module__state__V                               
c2283040  xdc_runtime_Registry_findById__E                                    
c2281b40  xdc_runtime_Registry_findById__F                                    
c22bac18  xdc_runtime_Startup_Module__state__V                                
00000001  xdc_runtime_Startup__EXECFXN__C                                     
00000001  xdc_runtime_Startup__RESETFXN__C                                    
c22b9588  xdc_runtime_Startup_execImpl__C                                     
c2283060  xdc_runtime_Startup_exec__E                                         
c227a520  xdc_runtime_Startup_exec__F                                         
c2281b80  xdc_runtime_Startup_exec__I                                         
c22b93a8  xdc_runtime_Startup_firstFxns__A                                    
c22b93b0  xdc_runtime_Startup_firstFxns__C                                    
c22b9590  xdc_runtime_Startup_lastFxns__A                                     
c22b93b8  xdc_runtime_Startup_lastFxns__C                                     
c22b958c  xdc_runtime_Startup_maxPasses__C                                    
c2283080  xdc_runtime_Startup_reset__I                                        
c22b88b8  xdc_runtime_Startup_sfxnRts__A                                      
c22b9594  xdc_runtime_Startup_sfxnRts__C                                      
c22b7c00  xdc_runtime_Startup_sfxnTab__A                                      
c22b9598  xdc_runtime_Startup_sfxnTab__C                                      
c22b959c  xdc_runtime_Startup_startModsFxn__C                                 
c2273040  xdc_runtime_Startup_startMods__I                                    
c21d6528  xdc_runtime_SysMin_Module_State_0_outbuf__A                         
c22bab7c  xdc_runtime_SysMin_Module__state__V                                 
c22830a0  xdc_runtime_SysMin_Module_startup__E                                
c227fee0  xdc_runtime_SysMin_Module_startup__F                                
c22830c0  xdc_runtime_SysMin_abort__E                                         
c227d920  xdc_runtime_SysMin_abort__F                                         
c22b95a0  xdc_runtime_SysMin_bufSize__C                                       
c22830e0  xdc_runtime_SysMin_exit__E                                          
c227ff40  xdc_runtime_SysMin_exit__F                                          
c22b8952  xdc_runtime_SysMin_flushAtExit__C                                   
c227d9c0  xdc_runtime_SysMin_flush__F                                         
c22b95a4  xdc_runtime_SysMin_outputFunc__C                                    
c2283100  xdc_runtime_SysMin_output__I                                        
c2283120  xdc_runtime_SysMin_putch__E                                         
c227da60  xdc_runtime_SysMin_putch__F                                         
c2283140  xdc_runtime_SysMin_ready__E                                         
c2283160  xdc_runtime_SysMin_ready__F                                         
c2283180  xdc_runtime_System_Module_GateProxy_enter__E                        
c22831a0  xdc_runtime_System_Module_GateProxy_leave__E                        
c22baa68  xdc_runtime_System_Module_State_0_atexitHandlers__A                 
c22b95a8  xdc_runtime_System_Module__gateObj__C                               
c22bab88  xdc_runtime_System_Module__state__V                                 
c22831c0  xdc_runtime_System_Module_startup__E                                
c22831e0  xdc_runtime_System_Module_startup__F                                
c2283200  xdc_runtime_System_SupportProxy_abort__E                            
c2283220  xdc_runtime_System_SupportProxy_exit__E                             
c2283240  xdc_runtime_System_SupportProxy_putch__E                            
c2283260  xdc_runtime_System_SupportProxy_ready__E                            
c2283280  xdc_runtime_System_abort__E                                         
c2281bc0  xdc_runtime_System_abort__F                                         
c2281c00  xdc_runtime_System_aprintf__E                                       
c227ffa0  xdc_runtime_System_aprintf_va__F                                    
c22832a0  xdc_runtime_System_atexit__E                                        
c227ea20  xdc_runtime_System_atexit__F                                        
c227ffa0  xdc_runtime_System_avprintf__F                                      
c225e900  xdc_runtime_System_doPrint__I                                       
c22832c0  xdc_runtime_System_exit__E                                          
c22832e0  xdc_runtime_System_exit__F                                          
c22b95ac  xdc_runtime_System_extendFxn__C                                     
c227c780  xdc_runtime_System_formatNum__I                                     
c2283300  xdc_runtime_System_lastFxn__I                                       
c22b95b0  xdc_runtime_System_maxAtexitHandlers__C                             
c226f180  xdc_runtime_System_printfExtend__I                                  
c2281c40  xdc_runtime_System_printf__E                                        
c2280000  xdc_runtime_System_printf_va__F                                     
c2283320  xdc_runtime_System_putch__E                                         
c2281c80  xdc_runtime_System_putch__F                                         
c227eaa0  xdc_runtime_System_putchar__I                                       
c227eb20  xdc_runtime_System_rtsExit__I                                       
c2283360  xdc_runtime_System_snprintf_va__F                                   
c2280000  xdc_runtime_System_vprintf__F                                       
c2283340  xdc_runtime_System_vsnprintf__E                                     
c2283360  xdc_runtime_System_vsnprintf__F                                     
c22b8972  xdc_runtime_Text_charCnt__C                                         
c22af3a8  xdc_runtime_Text_charTab__A                                         
c22b95b4  xdc_runtime_Text_charTab__C                                         
c2283380  xdc_runtime_Text_cordText__E                                        
c2280060  xdc_runtime_Text_cordText__F                                        
c22b8992  xdc_runtime_Text_isLoaded__C                                        
c22b95b8  xdc_runtime_Text_nameEmpty__C                                       
c22b95bc  xdc_runtime_Text_nameStatic__C                                      
c22b95c0  xdc_runtime_Text_nameUnknown__C                                     
c22b5b78  xdc_runtime_Text_nodeTab__A                                         
c22b95c4  xdc_runtime_Text_nodeTab__C                                         
c227eba0  xdc_runtime_Text_printVisFxn__I                                     
c22833a0  xdc_runtime_Text_putLab__E                                          
c2278b20  xdc_runtime_Text_putLab__F                                          
c2281cc0  xdc_runtime_Text_putMod__E                                          
c2279200  xdc_runtime_Text_putMod__F                                          
c22833c0  xdc_runtime_Text_putSite__E                                         
c2276220  xdc_runtime_Text_putSite__F                                         
c22b89b2  xdc_runtime_Text_registryModsLastId__C                              
c22833e0  xdc_runtime_Text_ropeText__E                                        
c2281d00  xdc_runtime_Text_ropeText__F                                        
c22b89d2  xdc_runtime_Text_unnamedModsLastId__C                               
c227a620  xdc_runtime_Text_visitRope2__I                                      
c22b95c8  xdc_runtime_Text_visitRopeFxn__C                                    
c2281d40  xdc_runtime_Text_visitRope__I                                       
c227db00  xdc_runtime_Text_xprintf__I                                         
c2283400  xdc_runtime_Timestamp_SupportProxy_get32__E                         
c2283420  xdc_runtime_Timestamp_SupportProxy_getFreq__E                       
c2283440  xdc_runtime_Timestamp_get32__E                                      
c2283400  xdc_runtime_Timestamp_get32__F                                      
c2283460  xdc_runtime_Timestamp_getFreq__E                                    
c2283420  xdc_runtime_Timestamp_getFreq__F                                    
c2269240  your_test_function                                                  
c22bb294  zh_cn_pinyin_dict                                                   


GLOBAL SYMBOLS: SORTED BY Symbol Address 

address   name                                                                
-------   ----                                                                
00000000  _argsize                                                            
00000001  xdc_runtime_Startup__EXECFXN__C                                     
00000001  xdc_runtime_Startup__RESETFXN__C                                    
00004000  __TI_STACK_SIZE                                                     
00800000  _stack                                                              
00804000  __TI_STACK_END                                                      
80000000  LEDNixieVal                                                         
c0000000  __ASM__                                                             
c0000000  ti_sysbios_heaps_HeapMem_Instance_State_0_buf__A                    
c0000060  __ISA__                                                             
c0000078  __PLAT__                                                            
c00000a8  __TARG__                                                            
c00000d0  __TRDR__                                                            
c2100000  g_pucBuffer                                                         
c21bb824  swCtrlFeatures                                                      
c21bb828  buff                                                                
c21d3528  ti_sysbios_knl_Task_Instance_State_0_stack__A                       
c21d5528  ti_sysbios_knl_Task_Instance_State_1_stack__A                       
c21d5d28  CmdHistory                                                          
c21d6528  xdc_runtime_SysMin_Module_State_0_outbuf__A                         
c21d6928  __TI_tmpnams                                                        
c21d6a68  rx_data                                                             
c21d6b70  tx_data                                                             
c21d6c78  vrf_data                                                            
c21d6e80  _lv_draw_mask_list                                                  
c21d6f00  RcvFis                                                              
c21d6fa0  lv_mem_buf                                                          
c21d70a0  _lv_circle_cache                                                    
c21d7160  g_cCmdBuf                                                           
c21d71a0  pllcfg                                                              
c21d71d0  _lv_img_cache_single                                                
c21d71fc  TouchInfo                                                           
c21d7228  RTCTime                                                             
c21d7348  _lv_anim_ll                                                         
c21d7354  _lv_disp_ll                                                         
c21d7360  _lv_fsdrv_ll                                                        
c21d736c  _lv_group_ll                                                        
c21d7378  _lv_img_decoder_ll                                                  
c21d7384  _lv_indev_ll                                                        
c21d7390  _lv_obj_style_trans_ll                                              
c21d739c  _lv_timer_ll                                                        
c21d73a8  ti_sysbios_knl_Task_Instance_State_0_hookEnv__A                     
c21d73b8  ti_sysbios_knl_Task_Instance_State_1_hookEnv__A                     
c21d73c8  I2CData                                                             
c21d73d8  parmbuf                                                             
c21d7410  ti_sysbios_family_c64p_Hwi_Instance_State_0_hookEnv__A              
c21d7418  ti_sysbios_family_c64p_Hwi_Instance_State_1_hookEnv__A              
c21d7420  ti_sysbios_family_c64p_Hwi_Instance_State_2_hookEnv__A              
c21d7428  ti_sysbios_family_c64p_Hwi_Instance_State_3_hookEnv__A              
c21d7430  ti_sysbios_family_c64p_Hwi_Instance_State_4_hookEnv__A              
c21d7438  ti_sysbios_knl_Swi_Instance_State_0_hookEnv__A                      
c21d7440  cJSON_GetErrorPtr                                                   
c21d7480  cJSON_GetStringValue                                                
c21d74d4  cJSON_GetNumberValue                                                
c21d7530  cJSON_Version                                                       
c21d772c  cJSON_InitHooks                                                     
c21d78a8  cJSON_Delete                                                        
c21d7c38  cJSON_SetNumberHelper                                               
c21d7d00  cJSON_SetValuestring                                                
c21d918c  cJSON_ParseWithOpts                                                 
c21d9200  cJSON_ParseWithLengthOpts                                           
c21d93c0  cJSON_Parse                                                         
c21d9400  cJSON_ParseWithLength                                               
c21d95c8  cJSON_Print                                                         
c21d9610  cJSON_PrintUnformatted                                              
c21d9660  cJSON_PrintBuffered                                                 
c21d97a0  cJSON_PrintPreallocated                                             
c21daa2c  cJSON_GetArraySize                                                  
c21dab34  cJSON_GetArrayItem                                                  
c21dac98  cJSON_GetObjectItem                                                 
c21dace4  cJSON_GetObjectItemCaseSensitive                                    
c21dad2c  cJSON_HasObjectItem                                                 
c21daf60  cJSON_AddItemToArray                                                
c21db100  cJSON_AddItemToObject                                               
c21db154  cJSON_AddItemToObjectCS                                             
c21db1ac  cJSON_AddItemReferenceToArray                                       
c21db228  cJSON_AddItemReferenceToObject                                      
c21db2b4  cJSON_AddNullToObject                                               
c21db330  cJSON_AddTrueToObject                                               
c21db3ac  cJSON_AddFalseToObject                                              
c21db428  cJSON_AddBoolToObject                                               
c21db4a8  cJSON_AddNumberToObject                                             
c21db530  cJSON_AddStringToObject                                             
c21db5b0  cJSON_AddRawToObject                                                
c21db630  cJSON_AddObjectToObject                                             
c21db6ac  cJSON_AddArrayToObject                                              
c21db728  cJSON_DetachItemViaPointer                                          
c21db814  cJSON_DetachItemFromArray                                           
c21db888  cJSON_DeleteItemFromArray                                           
c21db8cc  cJSON_DetachItemFromObject                                          
c21db914  cJSON_DetachItemFromObjectCaseSensitive                             
c21db960  cJSON_DeleteItemFromObject                                          
c21db9a4  cJSON_DeleteItemFromObjectCaseSensitive                             
c21db9e8  cJSON_InsertItemInArray                                             
c21dbac8  cJSON_ReplaceItemViaPointer                                         
c21dbc20  cJSON_ReplaceItemInArray                                            
c21dbd50  cJSON_ReplaceItemInObject                                           
c21dbda0  cJSON_ReplaceItemInObjectCaseSensitive                              
c21dbdec  cJSON_CreateNull                                                    
c21dbe38  cJSON_CreateTrue                                                    
c21dbe88  cJSON_CreateFalse                                                   
c21dbed4  cJSON_CreateBool                                                    
c21dbf40  cJSON_CreateNumber                                                  
c21dc020  cJSON_CreateString                                                  
c21dc0b8  cJSON_CreateStringReference                                         
c21dc120  cJSON_CreateObjectReference                                         
c21dc180  cJSON_CreateArrayReference                                          
c21dc1e0  cJSON_CreateRaw                                                     
c21dc278  cJSON_CreateArray                                                   
c21dc2c8  cJSON_CreateObject                                                  
c21dc314  cJSON_CreateIntArray                                                
c21dc44c  cJSON_CreateFloatArray                                              
c21dc584  cJSON_CreateDoubleArray                                             
c21dc6ac  cJSON_CreateStringArray                                             
c21dc7d8  cJSON_Duplicate                                                     
c21dcc6c  cJSON_Minify                                                        
c21dcda0  cJSON_IsInvalid                                                     
c21dcdf4  cJSON_IsFalse                                                       
c21dce4c  cJSON_IsTrue                                                        
c21dcea4  cJSON_IsBool                                                        
c21dcf04  cJSON_IsNull                                                        
c21dcf58  cJSON_IsNumber                                                      
c21dcfb0  cJSON_IsString                                                      
c21dd010  cJSON_IsArray                                                       
c21dd070  cJSON_IsObject                                                      
c21dd0d0  cJSON_IsRaw                                                         
c21dd130  cJSON_Compare                                                       
c21dd594  cJSON_malloc                                                        
c21dd5e4  cJSON_free                                                          
c21dd814  lv_chart_create                                                     
c21dd864  lv_chart_set_type                                                   
c21dda44  lv_chart_set_point_count                                            
c21ddb70  lv_chart_set_range                                                  
c21ddcb0  lv_chart_set_update_mode                                            
c21ddd50  lv_chart_set_div_line_count                                         
c21dde04  lv_chart_set_zoom_x                                                 
c21dde90  lv_chart_set_zoom_y                                                 
c21ddf20  lv_chart_get_zoom_x                                                 
c21ddf60  lv_chart_get_zoom_y                                                 
c21ddfa0  lv_chart_set_axis_tick                                              
c21de0b4  lv_chart_get_type                                                   
c21de104  lv_chart_get_point_count                                            
c21de148  lv_chart_get_x_start_point                                          
c21de1d0  lv_chart_get_point_pos_by_id                                        
c21de664  lv_chart_refresh                                                    
c21de6a0  lv_chart_add_series                                                 
c21de9b0  lv_chart_remove_series                                              
c21dea80  lv_chart_hide_series                                                
c21deb38  lv_chart_set_series_color                                           
c21debd0  lv_chart_set_x_start_point                                          
c21dec94  lv_chart_get_series_next                                            
c21ded0c  lv_chart_add_cursor                                                 
c21dee18  lv_chart_set_cursor_pos                                             
c21deecc  lv_chart_set_cursor_point                                           
c21def8c  lv_chart_get_cursor_point                                           
c21df014  lv_chart_set_all_value                                              
c21df10c  lv_chart_set_next_value                                             
c21df1f0  lv_chart_set_next_value2                                            
c21df320  lv_chart_set_value_by_id                                            
c21df3f4  lv_chart_set_value_by_id2                                           
c21df514  lv_chart_set_ext_y_array                                            
c21df5d8  lv_chart_set_ext_x_array                                            
c21df698  lv_chart_get_y_array                                                
c21df724  lv_chart_get_x_array                                                
c21df7ac  lv_chart_get_pressed_point                                          
c21e3674  get_tick_gsc                                                        
c21e6a90  lv_theme_default_init                                               
c21e6c04  lv_theme_default_get                                                
c21e6c54  lv_theme_default_is_inited                                          
c21e8bf8  lv_draw_mask_add                                                    
c21e8ce4  lv_draw_mask_apply                                                  
c21e8dd8  lv_draw_mask_apply_ids                                              
c21e8f18  lv_draw_mask_remove_id                                              
c21e8fac  lv_draw_mask_remove_custom                                          
c21e9064  lv_draw_mask_free_param                                             
c21e9120  _lv_draw_mask_cleanup                                               
c21e91d8  lv_draw_mask_get_cnt                                                
c21e9278  lv_draw_mask_is_any                                                 
c21e93f4  lv_draw_mask_line_points_init                                       
c21e984c  lv_draw_mask_line_angle_init                                        
c21e9900  lv_draw_mask_angle_init                                             
c21e9c24  lv_draw_mask_radius_init                                            
c21ea078  lv_draw_mask_fade_init                                              
c21ea12c  lv_draw_mask_map_init                                               
c21ea1a0  lv_draw_mask_polygon_init                                           
c21edc20  lv_draw_sw_rect                                                     
c21edc98  lv_draw_sw_bg                                                       
c21f128c  draw_border_generic                                                 
c21f2310  lv_obj_set_pos                                                      
c21f2364  lv_obj_set_x                                                        
c21f23ec  lv_obj_set_y                                                        
c21f2474  lv_obj_refr_size                                                    
c21f2aa0  lv_obj_set_size                                                     
c21f2af0  lv_obj_set_width                                                    
c21f2b80  lv_obj_set_height                                                   
c21f2c08  lv_obj_set_content_width                                            
c21f2c8c  lv_obj_set_content_height                                           
c21f2d10  lv_obj_set_layout                                                   
c21f2d60  lv_obj_is_layout_positioned                                         
c21f2e10  lv_obj_mark_layout_as_dirty                                         
c21f2e94  lv_obj_update_layout                                                
c21f2f54  lv_layout_register                                                  
c21f3028  lv_obj_set_align                                                    
c21f3070  lv_obj_align                                                        
c21f30d8  lv_obj_align_to                                                     
c21f3798  lv_obj_get_coords                                                   
c21f37d8  lv_obj_get_x                                                        
c21f3888  lv_obj_get_x2                                                       
c21f38e8  lv_obj_get_y                                                        
c21f399c  lv_obj_get_y2                                                       
c21f39f8  lv_obj_get_x_aligned                                                
c21f3a44  lv_obj_get_y_aligned                                                
c21f3a8c  lv_obj_get_width                                                    
c21f3ad4  lv_obj_get_height                                                   
c21f3b24  lv_obj_get_content_width                                            
c21f3ba8  lv_obj_get_content_height                                           
c21f3c2c  lv_obj_get_content_coords                                           
c21f3d24  lv_obj_get_self_width                                               
c21f3d74  lv_obj_get_self_height                                              
c21f3dc8  lv_obj_refresh_self_size                                            
c21f3e54  lv_obj_refr_pos                                                     
c21f4440  lv_obj_move_to                                                      
c21f4720  lv_obj_move_children_by                                             
c21f4838  lv_obj_invalidate_area                                              
c21f48a8  lv_obj_invalidate                                                   
c21f4978  lv_obj_area_is_visible                                              
c21f4b98  lv_obj_is_visible                                                   
c21f4c4c  lv_obj_set_ext_click_area                                           
c21f4ca4  lv_obj_get_click_area                                               
c21f4d50  lv_obj_hit_test                                                     
c21f4e64  lv_clamp_width                                                      
c21f5014  lv_clamp_height                                                     
c21f5d24  lv_textarea_create                                                  
c21f5d6c  lv_textarea_add_char                                                
c21f6084  lv_textarea_add_text                                                
c21f63f8  lv_textarea_del_char                                                
c21f65f4  lv_textarea_del_char_forward                                        
c21f6650  lv_textarea_set_text                                                
c21f6968  lv_textarea_set_placeholder_text                                    
c21f6b00  lv_textarea_set_cursor_pos                                          
c21f6d00  lv_textarea_set_cursor_click_pos                                    
c21f6d70  lv_textarea_set_password_mode                                       
c21f6f20  lv_textarea_set_one_line                                            
c21f706c  lv_textarea_set_accepted_chars                                      
c21f70b4  lv_textarea_set_max_length                                          
c21f7100  lv_textarea_set_insert_replace                                      
c21f7144  lv_textarea_set_text_selection                                      
c21f71b8  lv_textarea_set_password_show_time                                  
c21f7208  lv_textarea_set_align                                               
c21f72b0  lv_textarea_get_text                                                
c21f7318  lv_textarea_get_placeholder_text                                    
c21f7378  lv_textarea_get_label                                               
c21f73b4  lv_textarea_get_cursor_pos                                          
c21f73f4  lv_textarea_get_cursor_click_pos                                    
c21f7450  lv_textarea_get_password_mode                                       
c21f74ac  lv_textarea_get_one_line                                            
c21f7508  lv_textarea_get_accepted_chars                                      
c21f7548  lv_textarea_get_max_length                                          
c21f7588  lv_textarea_text_is_selected                                        
c21f7610  lv_textarea_get_text_selection                                      
c21f7660  lv_textarea_get_password_show_time                                  
c21f76a0  lv_textarea_clear_selection                                         
c21f772c  lv_textarea_cursor_right                                            
c21f7770  lv_textarea_cursor_left                                             
c21f77c4  lv_textarea_cursor_down                                             
c21f78c4  lv_textarea_cursor_up                                               
c21f9280  lv_btnmatrix_create                                                 
c21f92cc  lv_btnmatrix_set_map                                                
c21f9720  lv_btnmatrix_set_ctrl_map                                           
c21f9784  lv_btnmatrix_set_selected_btn                                       
c21f982c  lv_btnmatrix_set_btn_ctrl                                           
c21f990c  lv_btnmatrix_clear_btn_ctrl                                         
c21f99c0  lv_btnmatrix_set_btn_ctrl_all                                       
c21f9a58  lv_btnmatrix_clear_btn_ctrl_all                                     
c21f9af4  lv_btnmatrix_set_btn_width                                          
c21f9bc4  lv_btnmatrix_set_one_checked                                        
c21f9c2c  lv_btnmatrix_get_map                                                
c21f9c6c  lv_btnmatrix_get_selected_btn                                       
c21f9cac  lv_btnmatrix_get_btn_text                                           
c21f9e04  lv_btnmatrix_has_btn_ctrl                                           
c21f9ea8  lv_btnmatrix_get_one_checked                                        
c21fc7c4  lv_label_create                                                     
c21fc80c  lv_label_set_text                                                   
c21fca04  lv_label_set_text_fmt                                               
c21fcb2c  lv_label_set_text_static                                            
c21fcbc8  lv_label_set_long_mode                                              
c21fccf8  lv_label_set_recolor                                                
c21fcdac  lv_label_set_text_sel_start                                         
c21fcdf8  lv_label_set_text_sel_end                                           
c21fce4c  lv_label_get_text                                                   
c21fce8c  lv_label_get_long_mode                                              
c21fced4  lv_label_get_recolor                                                
c21fcf30  lv_label_get_letter_pos                                             
c21fd36c  lv_label_get_letter_on                                              
c21fd814  lv_label_is_char_under_pos                                          
c21fdc64  lv_label_get_text_selection_start                                   
c21fdca0  lv_label_get_text_selection_end                                     
c21fdce0  lv_label_ins_text                                                   
c21fde8c  lv_label_cut_text                                                   
c21ff810  lv_table_create                                                     
c21ff860  lv_table_set_cell_value                                             
c21ffa6c  lv_table_set_cell_value_fmt                                         
c21ffe20  lv_table_set_row_cnt                                                
c22000b4  lv_table_set_col_cnt                                                
c2200408  lv_table_set_col_width                                              
c2200488  lv_table_add_cell_ctrl                                              
c2200638  lv_table_clear_cell_ctrl                                            
c22007f4  lv_table_get_cell_value                                             
c22008d8  lv_table_get_row_cnt                                                
c2200918  lv_table_get_col_cnt                                                
c2200958  lv_table_get_col_width                                              
c22009d0  lv_table_has_cell_ctrl                                              
c2200ae4  lv_table_get_selected_cell                                          
c220288c  lv_obj_set_scrollbar_mode                                           
c2202934  lv_obj_set_scroll_dir                                               
c22029c4  lv_obj_set_scroll_snap_x                                            
c2202a28  lv_obj_set_scroll_snap_y                                            
c2202a94  lv_obj_get_scrollbar_mode                                           
c2202af4  lv_obj_get_scroll_dir                                               
c2202b54  lv_obj_get_scroll_snap_x                                            
c2202bb4  lv_obj_get_scroll_snap_y                                            
c2202c14  lv_obj_get_scroll_x                                                 
c2202c70  lv_obj_get_scroll_y                                                 
c2202ccc  lv_obj_get_scroll_top                                               
c2202d28  lv_obj_get_scroll_bottom                                            
c2202ec4  lv_obj_get_scroll_left                                              
c22030ec  lv_obj_get_scroll_right                                             
c22032e0  lv_obj_get_scroll_end                                               
c2203374  lv_obj_scroll_by_bounded                                            
c2203604  lv_obj_scroll_by                                                    
c2203928  lv_obj_scroll_to                                                    
c2203980  lv_obj_scroll_to_x                                                  
c22039f0  lv_obj_scroll_to_y                                                  
c2203a68  lv_obj_scroll_to_view                                               
c2203acc  lv_obj_scroll_to_view_recursive                                     
c2203b6c  lv_obj_is_scrolling                                                 
c2203be8  lv_obj_update_snap                                                  
c2203c4c  lv_obj_get_scrollbar_area                                           
c2204a8c  lv_obj_scrollbar_invalidate                                         
c2204b38  lv_obj_readjust_scroll                                              
c22075a8  lv_tlsf_check                                                       
c2207b18  lv_tlsf_walk_pool                                                   
c2207bd4  lv_tlsf_block_size                                                  
c2207c28  lv_tlsf_check_pool                                                  
c2207c84  lv_tlsf_size                                                        
c2207cb0  lv_tlsf_align_size                                                  
c2207ce0  lv_tlsf_block_size_min                                              
c2207d0c  lv_tlsf_block_size_max                                              
c2207d38  lv_tlsf_pool_overhead                                               
c2207d68  lv_tlsf_alloc_overhead                                              
c2207d94  lv_tlsf_add_pool                                                    
c2207f04  lv_tlsf_remove_pool                                                 
c220804c  lv_tlsf_create                                                      
c22080e8  lv_tlsf_create_with_pool                                            
c220814c  lv_tlsf_destroy                                                     
c2208174  lv_tlsf_get_pool                                                    
c22081b0  lv_tlsf_malloc                                                      
c2208214  lv_tlsf_memalign                                                    
c2208388  lv_tlsf_free                                                        
c2208440  lv_tlsf_realloc                                                     
c2208860  lv_img_buf_get_px_color                                             
c2208c18  lv_img_buf_get_px_alpha                                             
c2208fa0  lv_img_buf_set_px_alpha                                             
c220936c  lv_img_buf_set_px_color                                             
c22097f0  lv_img_buf_set_palette                                              
c2209904  lv_img_buf_alloc                                                    
c2209aac  lv_img_buf_free                                                     
c2209b04  lv_img_buf_get_img_size                                             
c2209dac  _lv_img_buf_transform_init                                          
c220a0e8  _lv_img_buf_get_transformed_area                                    
c220a794  _lv_img_buf_transform                                               
c220ac6c  _lv_img_buf_transform_anti_alias                                    
c220b734  _lv_obj_style_init                                                  
c220b76c  lv_obj_add_style                                                    
c220b974  lv_obj_remove_style                                                 
c220bcb8  lv_obj_report_style_change                                          
c220bd74  lv_obj_refresh_style                                                
c220bf10  lv_obj_enable_style_refresh                                         
c220bf48  lv_obj_get_style_prop                                               
c220c0f4  lv_obj_set_local_style_prop                                         
c220c154  lv_obj_get_local_style_prop                                         
c220c264  lv_obj_remove_local_style_prop                                      
c220c384  _lv_obj_style_create_transition                                     
c220c728  _lv_obj_style_state_compare                                         
c220cccc  lv_obj_fade_in                                                      
c220cd6c  lv_obj_fade_out                                                     
c220ce04  lv_obj_style_get_selector_state                                     
c220ce2c  lv_obj_style_get_selector_part                                      
c220ce68  lv_obj_calculate_style_text_align                                   
c220e280  lv_indev_read_timer_cb                                              
c220e480  lv_indev_enable                                                     
c220e504  lv_indev_get_act                                                    
c220e530  lv_indev_get_type                                                   
c220e588  lv_indev_reset                                                      
c220e760  lv_indev_reset_long_press                                           
c220e7b4  lv_indev_set_cursor                                                 
c220e884  lv_indev_set_group                                                  
c220e8ec  lv_indev_set_button_points                                          
c220e940  lv_indev_get_point                                                  
c220e9f4  lv_indev_get_gesture_dir                                            
c220ea30  lv_indev_get_key                                                    
c220ea88  lv_indev_get_scroll_dir                                             
c220eb18  lv_indev_get_scroll_obj                                             
c220eba0  lv_indev_get_vect                                                   
c220ec38  lv_indev_wait_release                                               
c220ec94  lv_indev_get_obj_act                                                
c220ecc4  lv_indev_get_read_timer                                             
c220ed14  lv_indev_search_obj                                                 
c22111b8  lv_dropdown_create                                                  
c2211208  lv_dropdown_set_text                                                
c2211274  lv_dropdown_set_options                                             
c221148c  lv_dropdown_set_options_static                                      
c2211610  lv_dropdown_add_option                                              
c2211a0c  lv_dropdown_clear_options                                           
c2211ac0  lv_dropdown_set_selected                                            
c2211b68  lv_dropdown_set_dir                                                 
c2211c08  lv_dropdown_set_symbol                                              
c2211c54  lv_dropdown_set_selected_highlight                                  
c2211cd0  lv_dropdown_get_list                                                
c2211d0c  lv_dropdown_get_text                                                
c2211d4c  lv_dropdown_get_options                                             
c2211da4  lv_dropdown_get_selected                                            
c2211de4  lv_dropdown_get_option_cnt                                          
c2211e24  lv_dropdown_get_selected_str                                        
c2211f8c  lv_dropdown_get_symbol                                              
c2211fcc  lv_dropdown_get_selected_highlight                                  
c2212020  lv_dropdown_get_dir                                                 
c2212068  lv_dropdown_open                                                    
c2212560  lv_dropdown_close                                                   
c22125cc  lv_dropdown_is_open                                                 
c2213f20  _lv_refr_init                                                       
c2213f68  lv_refr_now                                                         
c2213fec  lv_refr_obj                                                         
c22141f0  _lv_inv_area                                                        
c2214484  _lv_refr_get_disp_refreshing                                        
c22144b0  _lv_refr_set_disp_refreshing                                        
c22144e8  _lv_disp_refr_timer                                                 
c2214a58  lv_refr_reset_fps_counter                                           
c2214a98  lv_refr_get_fps_avg                                                 
c2216b00  lv_is_initialized                                                   
c2216b2c  lv_init                                                             
c2216c80  lv_deinit                                                           
c2216ccc  lv_obj_create                                                       
c2216d18  lv_obj_add_flag                                                     
c2216e04  lv_obj_clear_flag                                                   
c2216f00  lv_obj_add_state                                                    
c2216f78  lv_obj_clear_state                                                  
c2216ff4  lv_obj_has_flag                                                     
c2217054  lv_obj_has_flag_any                                                 
c22170b0  lv_obj_get_state                                                    
c22170e4  lv_obj_has_state                                                    
c2217148  lv_obj_get_group                                                    
c2217198  lv_obj_allocate_spec_attr                                           
c2217294  lv_obj_check_type                                                   
c221730c  lv_obj_has_class                                                    
c2217388  lv_obj_get_class                                                    
c22173b4  lv_obj_is_valid                                                     
c2218e40  lv_arc_create                                                       
c2218e8c  lv_arc_set_start_angle                                              
c2219018  lv_arc_set_end_angle                                                
c22191a4  lv_arc_set_angles                                                   
c22191f4  lv_arc_set_bg_start_angle                                           
c2219370  lv_arc_set_bg_end_angle                                             
c22194f0  lv_arc_set_bg_angles                                                
c2219544  lv_arc_set_rotation                                                 
c2219598  lv_arc_set_mode                                                     
c22196f0  lv_arc_set_value                                                    
c22197ec  lv_arc_set_range                                                    
c22198e8  lv_arc_set_change_rate                                              
c2219938  lv_arc_get_angle_start                                              
c221996c  lv_arc_get_angle_end                                                
c22199a0  lv_arc_get_bg_angle_start                                           
c22199d0  lv_arc_get_bg_angle_end                                             
c2219a04  lv_arc_get_value                                                    
c2219a34  lv_arc_get_min_value                                                
c2219a68  lv_arc_get_max_value                                                
c2219a98  lv_arc_get_mode                                                     
c221b528  lv_img_create                                                       
c221b574  lv_img_set_src                                                      
c221b9b4  lv_img_set_offset_x                                                 
c221ba20  lv_img_set_offset_y                                                 
c221ba84  lv_img_set_angle                                                    
c221bce4  lv_img_set_pivot                                                    
c221bf38  lv_img_set_zoom                                                     
c221c1a4  lv_img_set_antialias                                                
c221c244  lv_img_set_size_mode                                                
c221c2e4  lv_img_get_src                                                      
c221c320  lv_img_get_offset_x                                                 
c221c360  lv_img_get_offset_y                                                 
c221c3a0  lv_img_get_angle                                                    
c221c3e0  lv_img_get_pivot                                                    
c221c42c  lv_img_get_zoom                                                     
c221c46c  lv_img_get_antialias                                                
c221c4c8  lv_img_get_size_mode                                                
c221db80  lv_grid_init                                                        
c221dc44  lv_obj_set_grid_dsc_array                                           
c221dca0  lv_obj_set_grid_align                                               
c221dce8  lv_obj_set_grid_cell                                                
c221dd94  lv_style_set_grid_row_dsc_array                                     
c221dde4  lv_style_set_grid_column_dsc_array                                  
c221de30  lv_style_set_grid_row_align                                         
c221de80  lv_style_set_grid_column_align                                      
c221decc  lv_style_set_grid_cell_column_pos                                   
c221df20  lv_style_set_grid_cell_column_span                                  
c221df70  lv_style_set_grid_cell_row_pos                                      
c221dfc4  lv_style_set_grid_cell_row_span                                     
c221e014  lv_style_set_grid_cell_x_align                                      
c221e068  lv_style_set_grid_cell_y_align                                      
c221e0b8  lv_obj_set_style_grid_row_dsc_array                                 
c221e108  lv_obj_set_style_grid_column_dsc_array                              
c221e158  lv_obj_set_style_grid_row_align                                     
c221e1a8  lv_obj_set_style_grid_column_align                                  
c221e1f8  lv_obj_set_style_grid_cell_column_pos                               
c221e250  lv_obj_set_style_grid_cell_column_span                              
c221e2a8  lv_obj_set_style_grid_cell_row_pos                                  
c221e300  lv_obj_set_style_grid_cell_row_span                                 
c221e354  lv_obj_set_style_grid_cell_x_align                                  
c221e3ac  lv_obj_set_style_grid_cell_y_align                                  
c221fc08  lv_meter_create                                                     
c221fc54  lv_meter_add_scale                                                  
c221fd68  lv_meter_set_scale_ticks                                            
c221fdec  lv_meter_set_scale_major_ticks                                      
c221fe84  lv_meter_set_scale_range                                            
c221ff00  lv_meter_add_needle_line                                            
c221fff4  lv_meter_add_needle_img                                             
c22200e0  lv_meter_add_arc                                                    
c22201d4  lv_meter_add_scale_lines                                            
c2220300  lv_meter_set_indicator_value                                        
c22203e4  lv_meter_set_indicator_start_value                                  
c2220494  lv_meter_set_indicator_end_value                                    
c2222404  lv_draw_sw_blend                                                    
c22224b8  lv_draw_sw_blend_basic                                              
c2224000  __TI_printfi                                                        
c2226418  lv_flex_init                                                        
c222648c  lv_obj_set_flex_flow                                                
c22264d8  lv_obj_set_flex_align                                               
c2226548  lv_obj_set_flex_grow                                                
c22265a4  lv_style_set_flex_flow                                              
c22265f0  lv_style_set_flex_main_place                                        
c2226640  lv_style_set_flex_cross_place                                       
c222668c  lv_style_set_flex_track_place                                       
c22266d8  lv_style_set_flex_grow                                              
c222672c  lv_obj_set_style_flex_flow                                          
c2226780  lv_obj_set_style_flex_main_place                                    
c22267d0  lv_obj_set_style_flex_cross_place                                   
c2226824  lv_obj_set_style_flex_track_place                                   
c2226874  lv_obj_set_style_flex_grow                                          
c2228160  __TI_scanfi                                                         
c222a2c4  _lv_img_decoder_init                                                
c222a3a8  lv_img_decoder_get_info                                             
c222a4c4  lv_img_decoder_open                                                 
c222a770  lv_img_decoder_read_line                                            
c222a808  lv_img_decoder_close                                                
c222a8a0  lv_img_decoder_create                                               
c222a954  lv_img_decoder_delete                                               
c222a9a0  lv_img_decoder_set_info_cb                                          
c222a9e0  lv_img_decoder_set_open_cb                                          
c222aa20  lv_img_decoder_set_read_line_cb                                     
c222aa60  lv_img_decoder_set_close_cb                                         
c222aaa0  lv_img_decoder_built_in_info                                        
c222ad64  lv_img_decoder_built_in_open                                        
c222b384  lv_img_decoder_built_in_read_line                                   
c222b574  lv_img_decoder_built_in_close                                       
c222c2ac  lv_colorwheel_create                                                
c222c30c  lv_colorwheel_set_hsv                                               
c222c414  lv_colorwheel_set_rgb                                               
c222c478  lv_colorwheel_set_mode                                              
c222c4e8  lv_colorwheel_set_mode_fixed                                        
c222c544  lv_colorwheel_get_hsv                                               
c222c580  lv_colorwheel_get_rgb                                               
c222c5d4  lv_colorwheel_get_color_mode                                        
c222c624  lv_colorwheel_get_color_mode_fixed                                  
c222dee0  lv_draw_sw_arc                                                      
c222fd44  _lv_indev_scroll_handler                                            
c222ffc0  _lv_indev_scroll_throw_handler                                      
c2230434  lv_indev_scroll_throw_predict                                       
c223054c  lv_indev_scroll_get_snap_dist                                       
c2231f2c  lv_disp_drv_init                                                    
c2232034  lv_disp_draw_buf_init                                               
c22320a0  lv_disp_drv_register                                                
c2232430  lv_disp_drv_update                                                  
c2232624  lv_disp_remove                                                      
c2232790  lv_disp_set_default                                                 
c22327c8  lv_disp_get_default                                                 
c22327f4  lv_disp_get_hor_res                                                 
c22328a4  lv_disp_get_ver_res                                                 
c2232950  lv_disp_get_physical_hor_res                                        
c2232a44  lv_disp_get_physical_ver_res                                        
c2232b38  lv_disp_get_offset_x                                                
c2232c6c  lv_disp_get_offset_y                                                
c2232da0  lv_disp_get_antialiasing                                            
c2232e24  lv_disp_get_dpi                                                     
c2232e88  lv_disp_flush_ready                                                 
c2232ecc  lv_disp_flush_is_last                                               
c2232f20  lv_disp_get_next                                                    
c2232fa0  lv_disp_get_draw_buf                                                
c2232fd0  lv_disp_set_rotation                                                
c2233068  lv_disp_get_rotation                                                
c22330cc  lv_disp_drv_use_generic_set_px_cb                                   
c223398c  lv_roller_create                                                    
c22339d8  lv_roller_set_options                                               
c2233c80  lv_roller_set_selected                                              
c2233d6c  lv_roller_set_visible_row_count                                     
c2233df8  lv_roller_get_selected                                              
c2233e94  lv_roller_get_selected_str                                          
c2233fe0  lv_roller_get_options                                               
c2234024  lv_roller_get_option_cnt                                            
c2235500  lv_obj_set_style_width                                              
c2235550  lv_obj_set_style_min_width                                          
c22355a4  lv_obj_set_style_max_width                                          
c22355f4  lv_obj_set_style_height                                             
c2235648  lv_obj_set_style_min_height                                         
c2235698  lv_obj_set_style_max_height                                         
c22356e8  lv_obj_set_style_x                                                  
c2235738  lv_obj_set_style_y                                                  
c2235788  lv_obj_set_style_align                                              
c22357d8  lv_obj_set_style_transform_width                                    
c2235828  lv_obj_set_style_transform_height                                   
c2235878  lv_obj_set_style_translate_x                                        
c22358c8  lv_obj_set_style_translate_y                                        
c2235918  lv_obj_set_style_transform_zoom                                     
c2235968  lv_obj_set_style_transform_angle                                    
c22359b8  lv_obj_set_style_pad_top                                            
c2235a08  lv_obj_set_style_pad_bottom                                         
c2235a58  lv_obj_set_style_pad_left                                           
c2235aa8  lv_obj_set_style_pad_right                                          
c2235af8  lv_obj_set_style_pad_row                                            
c2235b48  lv_obj_set_style_pad_column                                         
c2235b98  lv_obj_set_style_bg_color                                           
c2235be8  lv_obj_set_style_bg_color_filtered                                  
c2235c40  lv_obj_set_style_bg_opa                                             
c2235c8c  lv_obj_set_style_bg_grad_color                                      
c2235ce0  lv_obj_set_style_bg_grad_color_filtered                             
c2235d34  lv_obj_set_style_bg_grad_dir                                        
c2235d84  lv_obj_set_style_bg_main_stop                                       
c2235dd0  lv_obj_set_style_bg_grad_stop                                       
c2235e20  lv_obj_set_style_bg_grad                                            
c2235e68  lv_obj_set_style_bg_dither_mode                                     
c2235eb4  lv_obj_set_style_bg_img_src                                         
c2235f04  lv_obj_set_style_bg_img_opa                                         
c2235f50  lv_obj_set_style_bg_img_recolor                                     
c2235fa4  lv_obj_set_style_bg_img_recolor_filtered                            
c2235ff8  lv_obj_set_style_bg_img_recolor_opa                                 
c2236048  lv_obj_set_style_bg_img_tiled                                       
c2236094  lv_obj_set_style_border_color                                       
c22360e4  lv_obj_set_style_border_color_filtered                              
c2236138  lv_obj_set_style_border_opa                                         
c2236188  lv_obj_set_style_border_width                                       
c22361d8  lv_obj_set_style_border_side                                        
c2236228  lv_obj_set_style_border_post                                        
c2236274  lv_obj_set_style_outline_width                                      
c22362c8  lv_obj_set_style_outline_color                                      
c2236318  lv_obj_set_style_outline_color_filtered                             
c223636c  lv_obj_set_style_outline_opa                                        
c22363c0  lv_obj_set_style_outline_pad                                        
c2236410  lv_obj_set_style_shadow_width                                       
c2236464  lv_obj_set_style_shadow_ofs_x                                       
c22364b4  lv_obj_set_style_shadow_ofs_y                                       
c2236508  lv_obj_set_style_shadow_spread                                      
c2236558  lv_obj_set_style_shadow_color                                       
c22365a8  lv_obj_set_style_shadow_color_filtered                              
c2236600  lv_obj_set_style_shadow_opa                                         
c2236650  lv_obj_set_style_img_opa                                            
c22366a0  lv_obj_set_style_img_recolor                                        
c22366f0  lv_obj_set_style_img_recolor_filtered                               
c2236748  lv_obj_set_style_img_recolor_opa                                    
c2236794  lv_obj_set_style_line_width                                         
c22367e8  lv_obj_set_style_line_dash_width                                    
c2236834  lv_obj_set_style_line_dash_gap                                      
c2236884  lv_obj_set_style_line_rounded                                       
c22368d0  lv_obj_set_style_line_color                                         
c2236924  lv_obj_set_style_line_color_filtered                                
c2236978  lv_obj_set_style_line_opa                                           
c22369c8  lv_obj_set_style_arc_width                                          
c2236a18  lv_obj_set_style_arc_rounded                                        
c2236a68  lv_obj_set_style_arc_color                                          
c2236ab8  lv_obj_set_style_arc_color_filtered                                 
c2236b0c  lv_obj_set_style_arc_opa                                            
c2236b58  lv_obj_set_style_arc_img_src                                        
c2236ba4  lv_obj_set_style_text_color                                         
c2236bf8  lv_obj_set_style_text_color_filtered                                
c2236c4c  lv_obj_set_style_text_opa                                           
c2236ca0  lv_obj_set_style_text_font                                          
c2236ce8  lv_obj_set_style_text_letter_space                                  
c2236d38  lv_obj_set_style_text_line_space                                    
c2236d88  lv_obj_set_style_text_decor                                         
c2236dd8  lv_obj_set_style_text_align                                         
c2236e28  lv_obj_set_style_radius                                             
c2236e74  lv_obj_set_style_clip_corner                                        
c2236ec4  lv_obj_set_style_opa                                                
c2236f14  lv_obj_set_style_color_filter_dsc                                   
c2236f60  lv_obj_set_style_color_filter_opa                                   
c2236fac  lv_obj_set_style_anim_time                                          
c2236ff4  lv_obj_set_style_anim_speed                                         
c2237040  lv_obj_set_style_transition                                         
c2237088  lv_obj_set_style_blend_mode                                         
c22370d4  lv_obj_set_style_layout                                             
c2237128  lv_obj_set_style_base_dir                                           
c2237180  lv_style_set_width                                                  
c22371cc  lv_style_set_min_width                                              
c2237218  lv_style_set_max_width                                              
c2237268  lv_style_set_height                                                 
c22372b4  lv_style_set_min_height                                             
c2237304  lv_style_set_max_height                                             
c2237350  lv_style_set_x                                                      
c22373a0  lv_style_set_y                                                      
c22373ec  lv_style_set_align                                                  
c2237438  lv_style_set_transform_width                                        
c2237488  lv_style_set_transform_height                                       
c22374d4  lv_style_set_translate_x                                            
c2237524  lv_style_set_translate_y                                            
c2237570  lv_style_set_transform_zoom                                         
c22375c0  lv_style_set_transform_angle                                        
c223760c  lv_style_set_pad_top                                                
c2237658  lv_style_set_pad_bottom                                             
c22376a8  lv_style_set_pad_left                                               
c22376f4  lv_style_set_pad_right                                              
c2237744  lv_style_set_pad_row                                                
c2237790  lv_style_set_pad_column                                             
c22377e0  lv_style_set_bg_color                                               
c2237830  lv_style_set_bg_color_filtered                                      
c2237884  lv_style_set_bg_opa                                                 
c22378d0  lv_style_set_bg_grad_color                                          
c2237920  lv_style_set_bg_grad_color_filtered                                 
c2237970  lv_style_set_bg_grad_dir                                            
c22379c0  lv_style_set_bg_main_stop                                           
c2237a0c  lv_style_set_bg_grad_stop                                           
c2237a58  lv_style_set_bg_grad                                                
c2237aa0  lv_style_set_bg_dither_mode                                         
c2237aec  lv_style_set_bg_img_src                                             
c2237b34  lv_style_set_bg_img_opa                                             
c2237b84  lv_style_set_bg_img_recolor                                         
c2237bd4  lv_style_set_bg_img_recolor_filtered                                
c2237c24  lv_style_set_bg_img_recolor_opa                                     
c2237c70  lv_style_set_bg_img_tiled                                           
c2237cc0  lv_style_set_border_color                                           
c2237d10  lv_style_set_border_color_filtered                                  
c2237d64  lv_style_set_border_opa                                             
c2237db0  lv_style_set_border_width                                           
c2237e00  lv_style_set_border_side                                            
c2237e4c  lv_style_set_border_post                                            
c2237e98  lv_style_set_outline_width                                          
c2237ee8  lv_style_set_outline_color                                          
c2237f38  lv_style_set_outline_color_filtered                                 
c2237f88  lv_style_set_outline_opa                                            
c2237fd4  lv_style_set_outline_pad                                            
c2238024  lv_style_set_shadow_width                                           
c2238070  lv_style_set_shadow_ofs_x                                           
c22380c0  lv_style_set_shadow_ofs_y                                           
c223810c  lv_style_set_shadow_spread                                          
c2238158  lv_style_set_shadow_color                                           
c22381a8  lv_style_set_shadow_color_filtered                                  
c22381f8  lv_style_set_shadow_opa                                             
c2238248  lv_style_set_img_opa                                                
c2238294  lv_style_set_img_recolor                                            
c22382e4  lv_style_set_img_recolor_filtered                                   
c2238334  lv_style_set_img_recolor_opa                                        
c2238384  lv_style_set_line_width                                             
c22383d0  lv_style_set_line_dash_width                                        
c2238420  lv_style_set_line_dash_gap                                          
c223846c  lv_style_set_line_rounded                                           
c22384b8  lv_style_set_line_color                                             
c2238508  lv_style_set_line_color_filtered                                    
c2238558  lv_style_set_line_opa                                               
c22385a4  lv_style_set_arc_width                                              
c22385f0  lv_style_set_arc_rounded                                            
c2238640  lv_style_set_arc_color                                              
c2238690  lv_style_set_arc_color_filtered                                     
c22386e4  lv_style_set_arc_opa                                                
c2238730  lv_style_set_arc_img_src                                            
c2238774  lv_style_set_text_color                                             
c22387c4  lv_style_set_text_color_filtered                                    
c2238814  lv_style_set_text_opa                                               
c2238864  lv_style_set_text_font                                              
c22388ac  lv_style_set_text_letter_space                                      
c22388f8  lv_style_set_text_line_space                                        
c2238948  lv_style_set_text_decor                                             
c2238994  lv_style_set_text_align                                             
c22389e4  lv_style_set_radius                                                 
c2238a30  lv_style_set_clip_corner                                            
c2238a80  lv_style_set_opa                                                    
c2238acc  lv_style_set_color_filter_dsc                                       
c2238b10  lv_style_set_color_filter_opa                                       
c2238b60  lv_style_set_anim_time                                              
c2238ba4  lv_style_set_anim_speed                                             
c2238be8  lv_style_set_transition                                             
c2238c2c  lv_style_set_blend_mode                                             
c2238c78  lv_style_set_layout                                                 
c2238cc8  lv_style_set_base_dir                                               
c2238fa4  lv_bar_create                                                       
c2238fec  lv_bar_set_value                                                    
c22390f0  lv_bar_set_start_value                                              
c22391f8  lv_bar_set_range                                                    
c22392f0  lv_bar_set_mode                                                     
c2239380  lv_bar_get_value                                                    
c22393d8  lv_bar_get_start_value                                              
c2239468  lv_bar_get_min_value                                                
c22394a8  lv_bar_get_max_value                                                
c22394e8  lv_bar_get_mode                                                     
c223a938  lv_txt_get_size                                                     
c223ae8c  _lv_txt_get_next_line                                               
c223b150  lv_txt_get_width                                                    
c223b2cc  _lv_txt_is_cmd                                                      
c223b3a8  _lv_txt_ins                                                         
c223b4c4  _lv_txt_cut                                                         
c223b5ac  _lv_txt_set_text_vfmt                                               
c223b694  _lv_txt_encoded_letter_next_2                                       
c223c348  lv_slider_create                                                    
c223c394  lv_slider_is_dragged                                                
c223da00  lv_event_send                                                       
c223dac8  lv_obj_event_base                                                   
c223dbd0  lv_event_get_target                                                 
c223dc00  lv_event_get_current_target                                         
c223dc2c  lv_event_get_code                                                   
c223dc6c  lv_event_get_param                                                  
c223dc98  lv_event_get_user_data                                              
c223dcc8  lv_event_stop_bubbling                                              
c223dd08  lv_event_stop_processing                                            
c223dd48  lv_event_register_id                                                
c223dd88  _lv_event_mark_deleted                                              
c223de08  lv_obj_add_event_cb                                                 
c223dfa0  lv_obj_remove_event_cb                                              
c223e1b4  lv_obj_remove_event_cb_with_user_data                               
c223e40c  lv_obj_remove_event_dsc                                             
c223e614  lv_obj_get_event_user_data                                          
c223e724  lv_event_get_indev                                                  
c223e868  lv_event_get_draw_part_dsc                                          
c223e8d8  lv_event_get_draw_ctx                                               
c223e998  lv_event_get_old_size                                               
c223ea00  lv_event_get_key                                                    
c223ea88  lv_event_get_scroll_anim                                            
c223eaec  lv_event_set_ext_draw_size                                          
c223eb60  lv_event_get_self_size_info                                         
c223ebc4  lv_event_get_hit_test_info                                          
c223ec28  lv_event_get_cover_area                                             
c223ec94  lv_event_set_cover_res                                              
c223f9d0  lv_obj_init_draw_rect_dsc                                           
c223ff50  lv_obj_init_draw_label_dsc                                          
c22400d8  lv_obj_init_draw_img_dsc                                            
c2240260  lv_obj_init_draw_line_dsc                                           
c2240424  lv_obj_init_draw_arc_dsc                                            
c22405a4  lv_obj_calculate_ext_draw_size                                      
c2240824  lv_obj_draw_dsc_init                                                
c224086c  lv_obj_draw_part_check_type                                         
c22408e0  lv_obj_refresh_ext_draw_size                                        
c22409ac  _lv_obj_get_ext_draw_size                                           
c2240a20  RTCRun                                                              
c2240a64  RTCStop                                                             
c2240ae0  RTCWriteProtectEnable                                               
c2240b08  RTCWriteProtectDisable                                              
c2240b3c  RTCIntAlarmEnable                                                   
c2240b84  RTCIntAlarmDisable                                                  
c2240bcc  RTCIntTimerEnable                                                   
c2240c40  RTCIntTimerDisable                                                  
c2240c88  RTCBusyStatusGet                                                    
c2240ca4  RTCRunStatusGet                                                     
c2240cc0  RTCAlarmIntStatusGet                                                
c2240ce0  RTCAlarmIntStatusClear                                              
c2240d00  RTCEventUpdateGet                                                   
c2240d20  RTCMinRoundingEnable                                                
c2240d64  RTCMinRoundingDisable                                               
c2240db8  RTCAutoCompEnable                                                   
c2240e00  RTCAutoCompDisable                                                  
c2240e58  RTCHourModeSet                                                      
c2240ecc  RTCHourModeGet                                                      
c2240ee8  RTCSet32CounterEnable                                               
c2240f54  RTCSet32CounterDisable                                              
c2240fd4  RTCDisable                                                          
c2241014  RTCEnable                                                           
c2241078  RTCEnableStatus                                                     
c2241098  RTCSplitPwrEnable                                                   
c22410b8  RTCSplitPwrDisable                                                  
c22410d8  RTCSecondSet                                                        
c2241124  RTCSecondGet                                                        
c2241140  RTCMinuteSet                                                        
c224118c  RTCMinuteGet                                                        
c22411a8  RTCHourSet                                                          
c22411f4  RTCHourGet                                                          
c2241210  RTCMeridiemSet                                                      
c2241264  RTCMeridiemGet                                                      
c2241284  RTCDayOfMonthSet                                                    
c22412d0  RTCDayOfMonthGet                                                    
c22412ec  RTCMonthSet                                                         
c2241334  RTCMonthGet                                                         
c2241350  RTCYearSet                                                          
c2241394  RTCYearGet                                                          
c22413ac  RTCDayOfTheWeekSet                                                  
c22413f4  RTCDayOfTheWeekGet                                                  
c2241410  RTCTimeSet                                                          
c22414a0  RTCTimeGet                                                          
c2241524  RTCCalendarSet                                                      
c2241598  RTCCalendarGet                                                      
c2241610  RTCAlarmSecondSet                                                   
c2241658  RTCAlarmSecondGet                                                   
c2241674  RTCAlarmMinuteSet                                                   
c22416c0  RTCAlarmMinuteGet                                                   
c22416d8  RTCAlarmHourSet                                                     
c2241724  RTCAlarmHourGet                                                     
c2241740  RTCAlarmHourMeridiemSet                                             
c2241798  RTCAlarmHourMeridiemGet                                             
c22417b8  RTCAlarmTimeSet                                                     
c224182c  RTCAlarmTimeGet                                                     
c22418d4  RTCAlarmDayOfMonthSet                                               
c2241920  RTCAlarmDayOfMonthGet                                               
c2241938  RTCAlarmMonthSet                                                    
c2241984  RTCAlarmMonthGet                                                    
c22419a0  RTCAlarmYearSet                                                     
c22419e8  RTCAlarmYearGet                                                     
c2241a00  RTCAlarmCalendarSet                                                 
c2241a68  RTCAlarmCalendarGet                                                 
c2241ac0  RTCCompensationSet                                                  
c2241b24  RTCCompensationGet                                                  
c2241b60  RTCScratchPadSet                                                    
c2241b88  RTCScratchPadGet                                                    
c2241bac  RTCSoftwareReset                                                    
c2241bcc  RTCRevisionIDGet                                                    
c2241be4  RTCIdleModeConfigure                                                
c2241c30  RTCWakeUpAlarmEventControl                                          
c2241c80  RTCWakeUpTimerEventControl                                          
c2241ccc  RTCTestModeControl                                                  
c2241d18  RTC32KClkSourceSelect                                               
c2241d8c  RTC32KClkClockControl                                               
c2241dd8  RTCOscillatorStateControl                                           
c2241e20  RTCFeedbackResistanceSelect                                         
c2241e6c  RTCConfigPmicPowerEnable                                            
c2241eac  RTCConfigPmicExtWakePolarity                                        
c2241f1c  RTCConfigPmicExtWake                                                
c2241f78  RTCConfigPmicExtWakeDebounce                                        
c2241fe8  RTCPmicExtWakeStatusClear                                           
c224201c  RTCIntAlarm2Enable                                                  
c2242060  RTCAlarm2IntStatusGet                                               
c2242080  RTCAlarm2IntStatusClear                                             
c22420a0  RTCAlarm2TimeSet                                                    
c2242128  RTCAlarm2CalendarSet                                                
c22421c0  lv_mem_init                                                         
c2242200  lv_mem_deinit                                                       
c2242238  lv_mem_alloc                                                        
c2242334  lv_mem_free                                                         
c22423b0  lv_mem_realloc                                                      
c2242498  lv_mem_test                                                         
c2242544  lv_mem_monitor                                                      
c2242630  lv_mem_buf_get                                                      
c22429e4  lv_mem_buf_release                                                  
c2242acc  lv_mem_buf_free_all                                                 
c2242bb4  lv_memcpy                                                           
c22431cc  lv_memset                                                           
c22433b8  lv_memset_00                                                        
c2243548  lv_memset_ff                                                        
c2243780  lv_menu_create                                                      
c22437cc  lv_menu_page_create                                                 
c2243830  lv_menu_cont_create                                                 
c2243880  lv_menu_section_create                                              
c22438cc  lv_menu_separator_create                                            
c22439a4  lv_menu_set_page                                                    
c2243c00  lv_menu_set_sidebar_page                                            
c2243e60  lv_menu_set_mode_header                                             
c2243f08  lv_menu_set_mode_root_back_btn                                      
c2243f90  lv_menu_set_load_page_event                                         
c224404c  lv_menu_get_cur_main_page                                           
c224408c  lv_menu_get_cur_sidebar_page                                        
c22440cc  lv_menu_get_main_header                                             
c224410c  lv_menu_get_main_header_back_btn                                    
c224414c  lv_menu_get_sidebar_header                                          
c224418c  lv_menu_get_sidebar_header_back_btn                                 
c22441cc  lv_menu_back_btn_is_root                                            
c2244264  lv_menu_clear_history                                               
c2244d20  _lv_fs_init                                                         
c2244d54  lv_fs_is_ready                                                      
c2244dec  lv_fs_open                                                          
c2244fb8  lv_fs_close                                                         
c2245418  lv_fs_read                                                          
c2245514  lv_fs_write                                                         
c22455ec  lv_fs_seek                                                          
c224584c  lv_fs_tell                                                          
c2245938  lv_fs_dir_open                                                      
c2245a74  lv_fs_dir_read                                                      
c2245b38  lv_fs_dir_close                                                     
c2245bf4  lv_fs_drv_init                                                      
c2245c24  lv_fs_drv_register                                                  
c2245cd8  lv_fs_get_drv                                                       
c2245d84  lv_fs_get_letters                                                   
c2245e44  lv_fs_get_ext                                                       
c2245f2c  lv_fs_up                                                            
c224606c  lv_fs_get_last                                                      
c2247620  lv_snprintf                                                         
c2247694  lv_vsnprintf                                                        
c2247750  lv_area_set                                                         
c22477c8  lv_area_set_width                                                   
c2247814  lv_area_set_height                                                  
c2247860  _lv_area_set_pos                                                    
c22478e8  lv_area_get_size                                                    
c2247948  lv_area_increase                                                    
c22479cc  lv_area_move                                                        
c2247a50  _lv_area_intersect                                                  
c2247b68  _lv_area_join                                                       
c2247c40  _lv_area_is_point_on                                                
c2247ff0  _lv_area_is_on                                                      
c2248090  _lv_area_is_in                                                      
c2248284  _lv_area_is_out                                                     
c2248464  _lv_area_is_equal                                                   
c2248500  lv_area_align                                                       
c2248ba0  _lv_group_init                                                      
c2248bd4  lv_group_create                                                     
c2248cf0  lv_group_del                                                        
c2248e0c  lv_group_set_default                                                
c2248e44  lv_group_get_default                                                
c2248e70  lv_group_add_obj                                                    
c2248ff8  lv_group_swap_obj                                                   
c2249128  lv_group_remove_obj                                                 
c22492b0  lv_group_remove_all_objs                                            
c2249370  lv_group_focus_obj                                                  
c2249558  lv_group_focus_next                                                 
c2249598  lv_group_focus_prev                                                 
c22495d8  lv_group_focus_freeze                                               
c2249644  lv_group_send_data                                                  
c22496c4  lv_group_set_focus_cb                                               
c2249704  lv_group_set_editing                                                
c2249830  lv_group_set_refocus_policy                                         
c2249884  lv_group_set_wrap                                                   
c22498e8  lv_group_get_focused                                                
c2249960  lv_group_get_focus_cb                                               
c22499b0  lv_group_get_editing                                                
c2249a24  lv_group_get_wrap                                                   
c2249a94  lv_group_get_obj_count                                              
c2249fa8  lv_draw_sw_line                                                     
c224b2a0  lv_spinbox_create                                                   
c224b2ec  lv_spinbox_set_value                                                
c224b380  lv_spinbox_set_rollover                                             
c224b3d4  lv_spinbox_set_digit_format                                         
c224b574  lv_spinbox_set_step                                                 
c224b5c8  lv_spinbox_set_range                                                
c224b670  lv_spinbox_set_pos                                                  
c224b764  lv_spinbox_set_digit_step_direction                                 
c224b7c8  lv_spinbox_get_value                                                
c224b80c  lv_spinbox_get_step                                                 
c224b84c  lv_spinbox_step_next                                                
c224b8c4  lv_spinbox_step_prev                                                
c224b980  lv_spinbox_get_rollover                                             
c224b9d0  lv_spinbox_increment                                                
c224bae0  lv_spinbox_decrement                                                
c224c420  _lv_anim_core_init                                                  
c224c478  lv_anim_init                                                        
c224c500  lv_anim_start                                                       
c224c6c8  lv_anim_get_playtime                                                
c224c7e4  lv_anim_del                                                         
c224c8c4  lv_anim_del_all                                                     
c224c900  lv_anim_get                                                         
c224c9b8  lv_anim_count_running                                               
c224ca4c  lv_anim_speed_to_time                                               
c224cac8  lv_anim_refr_now                                                    
c224caf4  lv_anim_path_linear                                                 
c224cb78  lv_anim_path_ease_in                                                
c224cc10  lv_anim_path_ease_out                                               
c224ccac  lv_anim_path_ease_in_out                                            
c224cd44  lv_anim_path_overshoot                                              
c224cde0  lv_anim_path_bounce                                                 
c224cfc4  lv_anim_path_step                                                   
c224d578  lv_obj_del                                                          
c224d670  lv_obj_clean                                                        
c224d70c  lv_obj_del_delayed                                                  
c224d78c  lv_obj_del_anim_ready_cb                                            
c224d7c4  lv_obj_del_async                                                    
c224d800  lv_obj_set_parent                                                   
c224da40  lv_obj_move_to_index                                                
c224dbe4  lv_obj_swap                                                         
c224dce8  lv_obj_get_screen                                                   
c224dd30  lv_obj_get_disp                                                     
c224de14  lv_obj_get_parent                                                   
c224de68  lv_obj_get_child                                                    
c224df50  lv_obj_get_child_cnt                                                
c224dfa8  lv_obj_get_index                                                    
c224e050  lv_obj_tree_walk                                                    
c224e564  lv_calendar_create                                                  
c224e5ac  lv_calendar_set_day_names                                           
c224e624  lv_calendar_set_today_date                                          
c224e690  lv_calendar_set_highlighted_dates                                   
c224e734  lv_calendar_set_showed_date                                         
c224eb14  lv_calendar_get_btnmatrix                                           
c224eb50  lv_calendar_get_today_date                                          
c224eb90  lv_calendar_get_showed_date                                         
c224ebd0  lv_calendar_get_highlighted_dates                                   
c224ec0c  lv_calendar_get_highlighted_dates_num                               
c224ec4c  lv_calendar_get_pressed_date                                        
c224f698  lv_draw_label_dsc_init                                              
c224f730  lv_draw_label                                                       
c22503d8  lv_draw_letter                                                      
c2250634  lv_disp_get_scr_act                                                 
c2250694  lv_disp_get_scr_prev                                                
c22506f4  lv_disp_load_scr                                                    
c22507cc  lv_disp_get_layer_top                                               
c225082c  lv_disp_get_layer_sys                                               
c225088c  lv_disp_set_theme                                                   
c2250938  lv_disp_get_theme                                                   
c2250978  lv_disp_set_bg_color                                                
c2250a34  lv_disp_set_bg_image                                                
c2250aec  lv_disp_set_bg_opa                                                  
c2250bac  lv_scr_load_anim                                                    
c2251110  lv_disp_get_inactive_time                                           
c22511c4  lv_disp_trig_activity                                               
c225122c  lv_disp_clean_dcache                                                
c22512ac  _lv_disp_get_refr_timer                                             
c22514e0  RasterClkConfig                                                     
c2251520  RasterIdGet                                                         
c2251534  RasterAutoUnderFlowEnable                                           
c2251554  RasterAutoUnderFlowDisable                                          
c2251574  RasterEnable                                                        
c2251598  RasterDisable                                                       
c22515c0  RasterModeConfig                                                    
c2251660  RasterLSBDataOrderSelect                                            
c2251680  RasterMSBDataOrderSelect                                            
c22516a0  RasterIntEnable                                                     
c2251708  RasterIntDisable                                                    
c2251760  RasterNibbleModeEnable                                              
c2251780  RasterNibbleModeDisable                                             
c22517a0  RasterFIFODMADelayConfig                                            
c22517e8  RasterHparamConfig                                                  
c22518c4  RasterVparamConfig                                                  
c22519b4  RasterTiming2Configure                                              
c2251a28  RasterDMAConfig                                                     
c2251a64  RasterByteSwapEnable                                                
c2251a88  RasterByteSwapDisable                                               
c2251aac  RasterEndOfFrameIntEnable                                           
c2251ad0  RasterEndOfFrameIntDisable                                          
c2251af4  RasterIntStatus                                                     
c2251b54  RasterIntRawStatus                                                  
c2251ba0  RasterIntRawStatusSet                                               
c2251bcc  RasterDMAFBConfig                                                   
c2251c14  RasterClearGetIntStatus                                             
c2251c8c  RasterSubPanelEnable                                                
c2251cac  RasterSubPanelDisable                                               
c2251cd0  RasterSubPanelConfig                                                
c2251e74  RasterClocksEnable                                                  
c2251e90  RasterSoftWareClkEnable                                             
c2251eb4  RasterSoftWareClkDisable                                            
c2251ed8  RasterDMASoftWareClkEnable                                          
c2251f00  RasterDMASoftWareClkDisable                                         
c2251f24  RasterSoftWareResetControlEnable                                    
c2251f94  RasterSoftWareResetControlDisable                                   
c2252008  RasterDmaMasterPrioritySet                                          
c2252050  RasterStandbyModeConfig                                             
c2252098  RasterIdleModeConfig                                                
c22520e4  RasterContextSave                                                   
c22521cc  RasterContextRestore                                                
c22522e0  EHRPWMTimebaseClkConfig                                             
c22523a0  EHRPWMPWMOpFreqSet                                                  
c2252444  EHRPWMTBEmulationModeSet                                            
c2252478  EHRPWMTimebaseSyncEnable                                            
c22524d0  EHRPWMTimebaseSyncDisable                                           
c22524f0  EHRPWMTriggerSWSync                                                 
c225250c  EHRPWMSyncOutModeSet                                                
c2252538  EHRPWMWriteTBCount                                                  
c2252550  EHRPWMReadTBCount                                                   
c2252568  EHRPWMTBStatusGet                                                   
c2252588  EHRPWMTBClearStatus                                                 
c22525b4  EHRPWMLoadCMPA                                                      
c2252654  EHRPWMLoadCMPB                                                      
c2252700  EHRPWMConfigureAQActionOnA                                          
c22527b4  EHRPWMConfigureAQActionOnB                                          
c2252868  EHRPWMSWForceA                                                      
c225288c  EHRPWMSWForceB                                                      
c22528ac  EHRPWMAQContSWForceOnA                                              
c2252908  EHRPWMAQContSWForceOnB                                              
c2252964  EHRPWMDBSourceSelect                                                
c2252998  EHRPWMDBPolaritySelect                                              
c22529cc  EHRPWMDBOutput                                                      
c22529fc  EHRPWMDBConfigureRED                                                
c2252a2c  EHRPWMDBConfigureFED                                                
c2252a60  EHRPWMConfigureChopperDuty                                          
c2252a98  EHRPWMConfigureChopperFreq                                          
c2252ae0  EHRPWMConfigureChopperOSPW                                          
c2252b14  EHRPWMChopperEnable                                                 
c2252b38  EHRPWMChopperDisable                                                
c2252b60  EHRPWMTZTripEventEnable                                             
c2252bb8  EHRPWMTZTripEventDisable                                            
c2252c14  EHRPWMTZForceAOnTrip                                                
c2252c48  EHRPWMTZForceBOnTrip                                                
c2252c7c  EHRPWMTZIntEnable                                                   
c2252cd8  EHRPWMTZIntDisable                                                  
c2252d38  EHRPWMTZFlagGet                                                     
c2252d60  EHRPWMTZFlagClear                                                   
c2252d80  EHRPWMTZSWFrcEvent                                                  
c2252dc8  EHRPWMETIntDisable                                                  
c2252dec  EHRPWMETIntEnable                                                   
c2252e10  EHRPWMETIntSourceSelect                                             
c2252e44  EHRPWMETIntPrescale                                                 
c2252e74  EHRPWMETEventCount                                                  
c2252e94  EHRPWMETIntStatus                                                   
c2252eb4  EHRPWMETIntClear                                                    
c2252ed8  EHRPWMETIntSWForce                                                  
c2252f00  EHRPWMLoadTBPHSHR                                                   
c2252f34  EHRPWMLoadCMPAHR                                                    
c2252f98  EHRPWMConfigHR                                                      
c2253004  EHRPWMHRDisable                                                     
c2253028  EHRPWMClockEnable                                                   
c2253044  EHRPWMClockDisable                                                  
c2253060  EHRPWMClockEnableStatusGet                                          
c2253080  EHRPWMClockDisableStatusGet                                         
c22537f0  lv_gradient_free_cache                                              
c2253838  lv_gradient_set_cache_size                                          
c22538e4  lv_gradient_get                                                     
c2253a94  lv_gradient_calculate                                               
c2253db8  lv_gradient_cleanup                                                 
c2253ff8  lv_style_init                                                       
c225402c  lv_style_reset                                                      
c22540c8  lv_style_register_prop                                              
c2254108  lv_style_remove_prop                                                
c2254428  lv_style_set_prop                                                   
c2254794  lv_style_get_prop                                                   
c22547e4  lv_style_transition_dsc_init                                        
c2254878  lv_style_prop_get_default                                           
c2254a10  lv_style_is_empty                                                   
c2254a58  _lv_style_get_prop_group                                            
c2254d40  lv_draw_sw_img_decoded                                              
c2255920  lv_color_fill                                                       
c2255a84  lv_color_lighten                                                    
c2255ad8  lv_color_darken                                                     
c2255b30  lv_color_change_lightness                                           
c2255bf8  lv_color_hsv_to_rgb                                                 
c2255e84  lv_color_rgb_to_hsv                                                 
c2256144  lv_color_to_hsv                                                     
c22561a0  lv_palette_main                                                     
c225620c  lv_palette_lighten                                                  
c22562d0  lv_palette_darken                                                   
c2256434  lv_draw_arc_dsc_init                                                
c225648c  lv_draw_arc                                                         
c2256564  lv_draw_arc_get_area                                                
c2257004  lv_tabview_create                                                   
c2257070  lv_tabview_add_tab                                                  
c22572cc  lv_tabview_set_act                                                  
c2257400  lv_tabview_get_tab_act                                              
c2257440  lv_tabview_get_content                                              
c2257480  lv_tabview_get_tab_btns                                             
c2257b00  lv_keyboard_create                                                  
c2257b4c  lv_keyboard_set_textarea                                            
c2257bc0  lv_keyboard_set_mode                                                
c2257c34  lv_keyboard_set_popovers                                            
c2257cd0  lv_keyboard_set_map                                                 
c2257d40  lv_keyboard_get_textarea                                            
c2257d78  lv_keyboard_get_mode                                                
c2257db8  lv_btnmatrix_get_popovers                                           
c2257e0c  lv_keyboard_def_event_cb                                            
c2258600  lv_font_get_bitmap_fmt_txt                                          
c22586d0  lv_font_get_glyph_dsc_fmt_txt                                       
c225888c  _lv_font_clean_up_fmt_txt                                           
c22592d8  lv_checkbox_create                                                  
c2259328  lv_checkbox_set_text                                                
c22593e0  lv_checkbox_set_text_static                                         
c2259464  lv_checkbox_get_text                                                
c2259ca8  lv_draw_img_dsc_init                                                
c2259d14  lv_draw_img                                                         
c2259e10  lv_img_cf_get_px_size                                               
c2259eb0  lv_img_cf_is_chroma_keyed                                           
c2259f14  lv_img_cf_has_alpha                                                 
c2259f90  lv_img_src_get_type                                                 
c225a050  lv_draw_img_decoded                                                 
c225a7ac  lv_switch_create                                                    
c225b078  SPI1CSPinMuxSet                                                     
c225b820  SPIHwi                                                              
c225b980  SPIFlashTest                                                        
c225b9c8  SPIFlashInit                                                        
c225bbe4  UARTConsoleHwi                                                      
c225bd4c  UARTprintf                                                          
c225bde4  ReadLine                                                            
c225c1e4  UARTConsoleTask                                                     
c225c364  UARTConsoleInit                                                     
c225c434  lv_draw_sw_letter                                                   
c225cd60  Cmd_Help                                                            
c225ce00  Cmd_LED                                                             
c225cef8  Cmd_SPIFlash                                                        
c225cf54  Cmd_EEPROM                                                          
c225cfac  Cmd_OV2640                                                          
c225d040  Cmd_PRULoad                                                         
c225d094  Cmd_DDR2                                                            
c225d104  Cmd_EHRPWM                                                          
c225d1d0  Cmd_SATA                                                            
c225d228  Cmd_Buzzer                                                          
c225d2e8  Cmd_Date                                                            
c225d394  Cmd_RTC                                                             
c225d620  Cmd_WIFI                                                            
c225d6e0  strtod                                                              
c225d6e0  strtold                                                             
c225e000  _lv_ll_init                                                         
c225e054  _lv_ll_ins_head                                                     
c225e0f0  _lv_ll_ins_prev                                                     
c225e1f8  _lv_ll_ins_tail                                                     
c225e294  _lv_ll_remove                                                       
c225e384  _lv_ll_clear                                                        
c225e3f0  _lv_ll_chg_list                                                     
c225e4e8  _lv_ll_get_head                                                     
c225e538  _lv_ll_get_tail                                                     
c225e58c  _lv_ll_get_next                                                     
c225e5d8  _lv_ll_get_prev                                                     
c225e62c  _lv_ll_get_len                                                      
c225e690  _lv_ll_move_before                                                  
c225e778  _lv_ll_is_empty                                                     
c225e900  xdc_runtime_System_doPrint__I                                       
c225f1a0  lv_draw_sw_polygon                                                  
c225fc20  lv_led_create                                                       
c225fc6c  lv_led_set_color                                                    
c225fcc4  lv_led_set_brightness                                               
c225fd78  lv_led_on                                                           
c225fdac  lv_led_off                                                          
c225fde0  lv_led_toggle                                                       
c225fe40  lv_led_get_brightness                                               
c2260220  _lv_timer_core_init                                                 
c2260258  lv_timer_handler                                                    
c22604a4  lv_timer_create_basic                                               
c22604d8  lv_timer_create                                                     
c22605e4  lv_timer_set_cb                                                     
c2260624  lv_timer_del                                                        
c2260670  lv_timer_pause                                                      
c22606b4  lv_timer_resume                                                     
c22606f4  lv_timer_set_period                                                 
c2260734  lv_timer_ready                                                      
c2260778  lv_timer_set_repeat_count                                           
c22607b8  lv_timer_reset                                                      
c22607f0  lv_timer_enable                                                     
c2260828  lv_timer_get_idle                                                   
c2260854  lv_timer_get_next                                                   
c2260a40  lv_trigo_sin                                                        
c2260ba4  lv_bezier3                                                          
c2260cb0  lv_sqrt                                                             
c2260d4c  lv_atan2                                                            
c2260fc0  lv_pow                                                              
c2261084  lv_map                                                              
c2261140  lv_rand                                                             
c22611e0  ti_sysbios_family_c64p_Exception_handler__I                         
c22619c8  lv_chinese_ime_create                                               
c2261a20  lv_chinese_ime_del                                                  
c2261a50  lv_chinese_ime_set_dict                                             
c2261a88  lv_chinese_ime_set_text_font                                        
c22620a0  ti_sysbios_heaps_HeapMem_free__E                                    
c22627e4  lv_line_create                                                      
c226282c  lv_line_set_points                                                  
c2262894  lv_line_set_y_invert                                                
c2262940  lv_line_get_y_invert                                                
c2262ee8  placeHbaInIdle                                                      
c2263034  waitForXms                                                          
c22630a8  enableRcvFis                                                        
c2263104  spinUpDeviceAndWaitForInitToComplete                                
c22632a0  setSataSpeed                                                        
c226330c  invokeHBAReset                                                      
c2263374  cfgDmaSetting                                                       
c22633b4  initBaseAddresses                                                   
c2263404  performFirmwareInit                                                 
c2263500  initPhyAndDmaPars                                                   
c2263540  ti_sysbios_knl_Semaphore_pend__E                                    
c2263be0  ti_sysbios_knl_Task_Instance_finalize__F                            
c22642e4  I2CSendBlocking                                                     
c22643f0  I2CRcvBlocking                                                      
c2264500  I2CRegWrite                                                         
c2264568  I2CHWRegWrite                                                       
c22645e0  I2CRegRead                                                          
c2264688  I2CHWRegRead                                                        
c2264748  I2CRegBitSet                                                        
c22647e8  I2CRegBitClr                                                        
c2264880  I2CInit                                                             
c2264a58  TouchXYGet                                                          
c2264c2c  TouchHwi                                                            
c2264ce0  TouchInit                                                           
c22655c0  lv_obj_class_create_obj                                             
c22657e0  lv_obj_class_init_obj                                               
c22658c0  _lv_obj_destruct                                                    
c2265944  lv_obj_is_editable                                                  
c22659f8  lv_obj_is_group_def                                                 
c2265be0  ti_sysbios_heaps_HeapMem_alloc__E                                   
c2266200  __c6xabi_divd                                                       
c2266800  lv_indev_drv_init                                                   
c2266884  lv_indev_drv_register                                               
c22669b0  lv_indev_drv_update                                                 
c2266b78  lv_indev_delete                                                     
c2266c94  lv_indev_get_next                                                   
c2266d10  _lv_indev_read                                                      
c2266e00  lv_tileview_create                                                  
c2266e4c  lv_tileview_add_tile                                                
c2266ecc  lv_obj_set_tile                                                     
c2266f58  lv_obj_set_tile_id                                                  
c2267080  lv_tileview_get_tile_act                                            
c2267400  ti_sysbios_knl_Task_Instance_init__F                                
c2267a00  MEM_FillTest                                                        
c2267b54  MEM_AddrTest                                                        
c2267cac  MEM_Bit_Walking                                                     
c2267df8  DSP_core_MEM_Test                                                   
c2267fc0  SPIClkConfigure                                                     
c2268008  SPIEnable                                                           
c2268024  SPIReset                                                            
c2268040  SPIOutOfReset                                                       
c2268054  SPIModeConfigure                                                    
c2268078  SPIPinControl                                                       
c22680c4  SPIDelayConfigure                                                   
c2268184  SPIDefaultCSSet                                                     
c22681a8  SPIDat1Config                                                       
c226820c  SPITransmitData1                                                    
c2268238  SPICSTimerDisable                                                   
c2268260  SPICSTimerEnable                                                    
c2268288  SPICharLengthSet                                                    
c22682d8  SPIConfigClkFormat                                                  
c226830c  SPIShiftMsbFirst                                                    
c2268334  SPIShiftLsbFirst                                                    
c2268360  SPIParityEnable                                                     
c22683b4  SPIParityDisable                                                    
c22683e0  SPIWdelaySet                                                        
c2268410  SPIWaitEnable                                                       
c2268438  SPIWaitDisable                                                      
c2268464  SPIIntLevelSet                                                      
c226848c  SPIIntEnable                                                        
c22684b0  SPIIntDisable                                                       
c22684d4  SPIIntStatusClear                                                   
c22684ec  SPIIntStatus                                                        
c2268510  SPIDataReceive                                                      
c226852c  SPIInterruptVectorGet                                               
c2268560  GPIODirModeSet                                                      
c22685f8  GPIODirModeGet                                                      
c2268658  GPIOPinWrite                                                        
c22686d8  GPIOPinRead                                                         
c2268738  GPIOIntTypeSet                                                      
c22688a4  GPIOIntTypeGet                                                      
c226892c  GPIOPinIntStatus                                                    
c226898c  GPIOPinIntClear                                                     
c22689d4  GPIOBankIntEnable                                                   
c2268a04  GPIOBankIntDisable                                                  
c2268a30  GPIOBankPinsWrite                                                   
c2268ae0  UARTConfigSetExpClk                                                 
c2268b74  UARTConfigGetExpClk                                                 
c2268c08  UARTFIFOLevelSet                                                    
c2268c2c  UARTDMAEnable                                                       
c2268c4c  UARTDMADisable                                                      
c2268c6c  UARTParityModeSet                                                   
c2268cb4  UARTParityModeGet                                                   
c2268cd8  UARTEnable                                                          
c2268cf4  UARTDisable                                                         
c2268d20  UARTFIFOEnable                                                      
c2268d34  UARTFIFODisable                                                     
c2268d4c  UARTSpaceAvail                                                      
c2268d78  UARTCharsAvail                                                      
c2268da8  UARTRxErrorGet                                                      
c2268dc8  UARTCharPutNonBlocking                                              
c2268e08  UARTCharGetNonBlocking                                              
c2268e34  UARTCharGet                                                         
c2268e70  UARTCharPut                                                         
c2268ec8  UARTIntEnable                                                       
c2268ef0  UARTIntDisable                                                      
c2268f18  UARTIntStatus                                                       
c2268f44  UARTBreakCtl                                                        
c2268f78  UARTModemControlSet                                                 
c2268fd0  UARTModemControlClear                                               
c2269004  UARTModemControlGet                                                 
c2269024  UARTModemStatusGet                                                  
c2269120  LVGLTick                                                            
c2269240  your_test_function                                                  
c2269314  LVGLTask                                                            
c2269350  lv_port_disp_init                                                   
c22696c8  LCDBacklightEnable                                                  
c2269714  LCDBacklightDisable                                                 
c2269764  LCDHwi                                                              
c2269824  LCDTask                                                             
c2269854  LCDVersionGet                                                       
c2269884  LCDInit                                                             
c2269af8  bcd2dec                                                             
c2269b34  dec2bcd                                                             
c2269b80  RTCSet                                                              
c2269c84  RTCHwi                                                              
c2269e90  Delay                                                               
c2269ed4  RtcVersionGet                                                       
c2269f04  RTCInit                                                             
c2269f80  ti_sysbios_timers_timer64_Timer_Module_startup__F                   
c226a460  I2CMasterInitExpClk                                                 
c226a500  I2CMasterEnable                                                     
c226a538  I2CMasterDisable                                                    
c226a558  I2CMasterIntEnableEx                                                
c226a580  I2CSlaveIntEnableEx                                                 
c226a5a4  I2CMasterIntDisableEx                                               
c226a5c8  I2CSlaveIntDisableEx                                                
c226a5ec  I2CMasterIntStatus                                                  
c226a608  I2CSlaveIntStatus                                                   
c226a624  I2CSlaveIntStatusEx                                                 
c226a644  I2CMasterIntClearEx                                                 
c226a658  I2CSlaveIntClearEx                                                  
c226a670  I2CMasterSlaveAddrSet                                               
c226a688  I2CMasterBusBusy                                                    
c226a6ac  I2CMasterIsBusy                                                     
c226a6d0  I2CMasterControl                                                    
c226a6f8  I2CMasterStart                                                      
c226a718  I2CMasterStop                                                       
c226a738  I2CStatusClear                                                      
c226a750  I2CMasterErr                                                        
c226a778  I2CMasterDataPut                                                    
c226a7a0  I2CMasterDataGet                                                    
c226a7b8  I2CSlaveDataPut                                                     
c226a7e0  I2CSlaveDataGet                                                     
c226a7f8  I2CSetDataCount                                                     
c226a810  I2COwnAddressSet                                                    
c226a828  I2CInterruptVectorGet                                               
c226a844  I2CSlaveAddressGet                                                  
c226a860  I2CDMATxRxEventDisable                                              
c226a874  I2CDMATxEventEnable                                                 
c226a898  I2CDMARxEventEnable                                                 
c226a8c0  I2CDMATxEventDisable                                                
c226a8e4  I2CDMARxEventDisable                                                
c226a920  strtoll                                                             
c226ade0  strtoull                                                            
c226b220  TaskSleep                                                           
c226b220  ti_sysbios_knl_Task_sleep__E                                        
c226b640  EEPROMTest                                                          
c226b870  EEPROMByteWrite                                                     
c226b8c8  EEPROMPageWrite                                                     
c226b954  EEPROMPageRead                                                      
c226b9e4  EEPROMRandomRead                                                    
c226bbd4  LEDControl                                                          
c226bcd8  LEDTask                                                             
c226bdf0  LEDInit                                                             
c226c3a8  KEY4Swi                                                             
c226c400  KEY6Swi                                                             
c226c4cc  KEY4Hwi                                                             
c226c528  KEY6Hwi                                                             
c226c5d8  KEYInit                                                             
c226c620  PLLClockGet                                                         
c226c998  PLLClockOut                                                         
c226ca44  lv_calendar_header_arrow_create                                     
c226cde0  ti_sysbios_family_c64p_Hwi_dispatchCore__I                          
c226d1a0  ti_sysbios_heaps_HeapMem_Instance_init__F                           
c226d560  ti_sysbios_timers_timer64_Timer_Instance_init__F                    
c226d920  strtol                                                              
c226dcc0  ti_sysbios_knl_Swi_run__I                                           
c226e1d4  UART1Hwi                                                            
c226e2d8  UART1Puts                                                           
c226e390  UART1Init                                                           
c226e3f4  lv_theme_get_from_obj                                               
c226e450  lv_theme_apply                                                      
c226e4b4  lv_theme_set_parent                                                 
c226e4f4  lv_theme_set_apply_cb                                               
c226e534  lv_theme_get_font_small                                             
c226e588  lv_theme_get_font_normal                                            
c226e5d8  lv_theme_get_font_large                                             
c226e62c  lv_theme_get_color_primary                                          
c226e688  lv_theme_get_color_secondary                                        
c226e760  ti_sysbios_knl_Clock_Instance_init__F                               
c226eac0  ti_sysbios_knl_Swi_Instance_init__F                                 
c226ee20  ti_sysbios_timers_timer64_Timer_deviceConfig__I                     
c226f180  xdc_runtime_System_printfExtend__I                                  
c226f4c0  ti_sysbios_timers_timer64_Timer_initObj__I                          
c226f7e0  GPIOBankPinMuxSet                                                   
c226f874  PWM1ABasic                                                          
c226fa14  ChopperWaveform                                                     
c226fa80  PWMInit                                                             
c226fae0  lv_calendar_header_dropdown_create                                  
c226fde0  strtoul                                                             
c22700e0  ti_sysbios_knl_Semaphore_post__E                                    
c22703e0  ti_sysbios_utils_Load_logLoads__I                                   
c22706e0  fputs                                                               
c2270a90  lv_spinner_create                                                   
c2270ca0  CRC8                                                                
c2270d70  TempSensorGet                                                       
c2270ef0  TempSensorInit                                                      
c2270f60  lv_win_create                                                       
c2270fc4  lv_win_add_title                                                    
c227102c  lv_win_add_btn                                                      
c22710b0  lv_win_get_header                                                   
c22710f0  lv_win_get_content                                                  
c22713c8  SATATest                                                            
c2271a00  ti_sysbios_knl_Clock_workFunc__E                                    
c2271ca0  lv_font_get_glyph_bitmap                                            
c2271d40  lv_font_get_glyph_dsc                                               
c2271e58  lv_font_get_glyph_width                                             
c2271f20  ti_sysbios_knl_Task_schedule__I                                     
c22721a0  ti_sysbios_knl_Task_startCore__E                                    
c2272420  ti_sysbios_utils_Load_updateThreadContexts__E                       
c22726a0  xdc_runtime_Error_raiseX__F                                         
c2272920  __c6xabi_divull                                                     
c2272c80  lv_draw_rect_dsc_init                                               
c2272d60  lv_draw_rect                                                        
c2272de0  ti_sysbios_timers_timer64_Timer_start__E                            
c2273040  xdc_runtime_Startup_startMods__I                                    
c22732a0  ExceptionHook                                                       
c2273438  InternalExceptionHook                                               
c2273470  ExternalExceptionHook                                               
c22734a8  ExceptionReturnHook                                                 
c22734e0  lv_log_register_print_cb                                            
c2273514  _lv_log_add                                                         
c22736d0  lv_log                                                              
c2273720  ti_sysbios_timers_timer64_Timer_setPeriodMicroSecs__E               
c2273940  ti_sysbios_utils_Load_updateLoads__E                                
c2273b60  xdc_runtime_Core_createObject__I                                    
c2273f80  ti_sysbios_family_c64p_Hwi_dispatchAlways                           
c2274180  ti_sysbios_knl_Swi_post__E                                          
c2274380  TaskExit                                                            
c2274380  ti_sysbios_knl_Task_exit__E                                         
c2274580  xdc_runtime_Log_doPrint__F                                          
c2274780  PRUEnable                                                           
c22747c0  PRUDisable                                                          
c22747f4  PRULoad                                                             
c22748c8  PRURun                                                              
c22748f8  PRUWaitForHalt                                                      
c2274960  ti_sysbios_knl_Task_postInit__I                                     
c2274b40  ti_sysbios_knl_Task_unblockI__E                                     
c2274d20  __c6xabi_divul                                                      
c2274ee0  fputc                                                               
c2274ee0  putc                                                                
c22750a0  frexp                                                               
c22750a0  frexpl                                                              
c2275260  ldexp                                                               
c2275260  ldexpl                                                              
c2275260  scalbn                                                              
c2275260  scalbnl                                                             
c2275420  CacheInit                                                           
c227548c  HardwareInit                                                        
c22754f0  main                                                                
c22755e0  setvbuf                                                             
c22757a0  ti_sysbios_family_c64p_Hwi_Instance_finalize__F                     
c2275960  ti_sysbios_family_c64p_Hwi_Module_startup__F                        
c2275b20  ti_sysbios_family_c64p_Hwi_reconfig__E                              
c2275ce0  ti_sysbios_knl_Semaphore_Instance_init__F                           
c2275ea0  ti_sysbios_knl_Swi_Instance_finalize__F                             
c2276060  ti_sysbios_utils_Load_idleFxn__E                                    
c2276220  xdc_runtime_Text_putSite__F                                         
c22763e0  HOSTrename                                                          
c2276580  lv_port_indev_init                                                  
c2276720  ti_sysbios_gates_GateMutex_enter__E                                 
c22768c0  ti_sysbios_timers_timer64_Timer_getFreq__E                          
c2276a60  ti_sysbios_utils_Load_updateCurrentThreadTime__E                    
c2276c00  Timer_getNextAvailableTimerId                                       
c2276e14  lv_draw_line_dsc_init                                               
c2276e6c  lv_draw_line                                                        
c2276f00  ti_sysbios_family_c64p_Exception_dispatch__E                        
c2277080  ti_sysbios_family_c64p_Exception_internalHandler__I                 
c2277200  ti_sysbios_knl_Task_blockI__E                                       
c2277380  ti_sysbios_knl_Task_checkStacks__E                                  
c2277660  CmdLineProcess                                                      
c22777c0  lv_draw_sw_init_ctx                                                 
c22778a4  lv_draw_sw_deinit_ctx                                               
c22778e8  lv_draw_sw_wait_for_finish                                          
c2277920  NMIHook                                                             
c2277a80  ti_sysbios_knl_Swi_Module_startup__F                                
c2277be0  ti_sysbios_knl_Task_Module_startup__F                               
c2277d40  ti_sysbios_timers_timer64_Timer_initDevice__I                       
c2277f2c  BUZZERBeep                                                          
c2277f88  BUZZERInit                                                          
c2277fe0  _auto_init_elf                                                      
c22783a0  PSCModuleControl                                                    
c22784e0  _lv_gc_clear_roots                                                  
c2278620  _lv_img_cache_open                                                  
c2278708  lv_img_cache_set_size                                               
c2278734  lv_img_cache_invalidate_src                                         
c2278760  ti_sysbios_family_c64p_Exception_externalHandler__I                 
c22788a0  ti_sysbios_family_c64p_Hwi_Instance_init__F                         
c22789e0  ti_sysbios_utils_Load_hwiBeginHook__E                               
c2278b20  xdc_runtime_Text_putLab__F                                          
c2278d80  getdevice                                                           
c2278ea0  lv_async_call                                                       
c2278fc0  ti_sysbios_family_c64p_Cache_block__I                               
c22790e0  ti_sysbios_family_c64p_Exception_decodeMpfsr__I                     
c2279200  xdc_runtime_Text_putMod__F                                          
c2279378  TimerHwi                                                            
c22793c0  TimerInit                                                           
c2279420  __TI_closefile                                                      
c2279720  atoi                                                                
c2279820  fseek                                                               
c2279920  lv_tick_inc                                                         
c2279964  lv_tick_get                                                         
c22799a8  lv_tick_elaps                                                       
c2279a20  _lv_utils_bsearch                                                   
c2279b20  ti_sysbios_BIOS_rtsUnlock__I                                        
c2279c20  ti_sysbios_family_c64p_EventCombiner_dispatch__F                    
c2279d20  ti_sysbios_family_c64p_Exception_Module_startup__F                  
c2279e20  ti_sysbios_knl_Clock_start__E                                       
c2279f20  ti_sysbios_knl_Swi_restoreHwi__E                                    
c227a020  ti_sysbios_timers_timer64_Timer_Object__create__S                   
c227a120  ti_sysbios_utils_Load_swiBeginHook__E                               
c227a220  ti_sysbios_utils_Load_taskCreateHook__E                             
c227a320  ti_sysbios_utils_Load_taskSwitchHook__E                             
c227a420  xdc_runtime_Core_deleteObject__I                                    
c227a520  xdc_runtime_Startup_exec__F                                         
c227a620  xdc_runtime_Text_visitRope2__I                                      
c227a720  HOSTlseek                                                           
c227a800  HOSTopen                                                            
c227a8e0  HOSTwrite                                                           
c227a9c0  __TI_ltoa                                                           
c227aaa0  __TI_wrt_ok                                                         
c227ab80  __c6xabi_divi                                                       
c227ab80  __divi                                                              
c227ac60  close                                                               
c227ad40  exit                                                                
c227ae20  memset                                                              
c227af00  printf                                                              
c227afe0  ti_sysbios_family_c64p_Cache_Module_startup__F                      
c227b0c0  ti_sysbios_family_c64p_Hwi_Object__create__S                        
c227b1a0  ti_sysbios_family_c64p_Hwi_postInit__I                              
c227b280  ti_sysbios_hal_Hwi_Object__create__S                                
c227b360  ti_sysbios_heaps_HeapMem_getStats__E                                
c227b440  ti_sysbios_knl_Clock_logTick__E                                     
c227b520  ti_sysbios_knl_Swi_Object__create__S                                
c227b600  ti_sysbios_knl_Swi_postInit__I                                      
c227b6e0  ti_sysbios_knl_Swi_runLoop__I                                       
c227b7c0  ti_sysbios_knl_Swi_schedule__I                                      
c227b8a0  ti_sysbios_knl_Task_Object__create__S                               
c227b980  ti_sysbios_timers_timer64_Timer_stop__E                             
c227ba60  xdc_runtime_Error_print__F                                          
c227bb40  xdc_runtime_LoggerSys_write8__F                                     
c227bc20  xdc_runtime_Memory_alloc__F                                         
c227bd00  HOSTread                                                            
c227bdc0  HOSTunlink                                                          
c227be80  _Z23__finalize_destructionsPP20a_needed_destructionPv               
c227bf40  __cxa_atexit                                                        
c227c000  __c6xabi_divu                                                       
c227c000  __divu                                                              
c227c0c0  __c6xabi_remi                                                       
c227c0c0  __remi                                                              
c227c240  ti_sysbios_family_c64p_Hwi_eventMap__E                              
c227c300  ti_sysbios_family_c64p_Hwi_getStackInfo__E                          
c227c3c0  ti_sysbios_knl_Task_allBlockedFunction__I                           
c227c480  ti_sysbios_timers_timer64_Timer_Instance_finalize__F                
c227c540  ti_sysbios_utils_Load_addTask__E                                    
c227c600  ti_sysbios_utils_Load_hwiEndHook__E                                 
c227c6c0  ti_sysbios_utils_Load_logCPULoad__I                                 
c227c780  xdc_runtime_System_formatNum__I                                     
c227c840  HOSTclose                                                           
c227c8e0  __TI_cleanup                                                        
c227c980  __TI_doflush                                                        
c227ca20  __c6xabi_remu                                                       
c227ca20  __remu                                                              
c227cac0  _c_int00                                                            
c227cc00  ti_sysbios_family_c64p_Hwi_plug__E                                  
c227cca0  asctime                                                             
c227cd40  finddevice                                                          
c227cde0  llTimerTick                                                         
c227ce80  lv_btn_create                                                       
c227cf20  memcpy                                                              
c227cfc0  realloc                                                             
c227d060  ti_sysbios_family_c62_TaskSupport_start__E                          
c227d100  ti_sysbios_family_c64p_Cache_all__I                                 
c227d1a0  ti_sysbios_family_c64p_Cache_marInit__I                             
c227d240  ti_sysbios_family_c64p_Cache_setMar__E                              
c227d2e0  ti_sysbios_family_c64p_primus_TimerSupport_enable__E                
c227d380  ti_sysbios_heaps_HeapMem_init__I                                    
c227d420  ti_sysbios_knl_Clock_Object__create__S                              
c227d4c0  ti_sysbios_knl_Idle_run__E                                          
c227d560  ti_sysbios_knl_Semaphore_Object__create__S                          
c227d600  ti_sysbios_timers_timer64_Timer_getPeriod__E                        
c227d6a0  ti_sysbios_timers_timer64_Timer_startup__E                          
c227d740  ti_sysbios_utils_Load_swiEndHook__E                                 
c227d7e0  ti_sysbios_utils_Load_taskDeleteHook__E                             
c227d880  xdc_runtime_Assert_raise__I                                         
c227d920  xdc_runtime_SysMin_abort__F                                         
c227d9c0  xdc_runtime_SysMin_flush__F                                         
c227da60  xdc_runtime_SysMin_putch__F                                         
c227db00  xdc_runtime_Text_xprintf__I                                         
c227dba0  ConsoleLogger                                                       
c227dc20  __TI_readmsg                                                        
c227dca0  __c6xabi_llshl                                                      
c227dda0  ti_sysbios_family_c62_TaskSupport_swap__E                           
c227de20  snprintf                                                            
c227dea0  strcat                                                              
c227df20  ti_sysbios_family_c64p_Cache_setSize__E                             
c227dfa0  ti_sysbios_family_c64p_Cache_wait__E                                
c227e020  ti_sysbios_family_c64p_EventCombiner_Module_startup__F              
c227e0a0  ti_sysbios_family_c64p_EventCombiner_disableEvent__F                
c227e120  ti_sysbios_family_c64p_EventCombiner_enableEvent__F                 
c227e1a0  ti_sysbios_family_c64p_Exception_getLastStatus__E                   
c227e220  ti_sysbios_family_c64p_Hwi_getEventId__E                            
c227e2a0  ti_sysbios_gates_GateHwi_Object__create__S                          
c227e320  ti_sysbios_gates_GateMutex_Object__create__S                        
c227e3a0  ti_sysbios_heaps_HeapMem_Object__create__S                          
c227e420  ti_sysbios_knl_Queue_Object__create__S                              
c227e4a0  ti_sysbios_knl_Semaphore_pendTimeout__I                             
c227e520  ti_sysbios_knl_Swi_restore__E                                       
c227e5a0  ti_sysbios_knl_Task_deleteTerminatedTasksFunc__I                    
c227e620  ti_sysbios_utils_Load_getGlobalHwiLoad__E                           
c227e6a0  ti_sysbios_utils_Load_getTaskLoad__E                                
c227e720  ti_sysbios_utils_Load_removeTask__E                                 
c227e7a0  remove                                                              
c227e7a0  unlink                                                              
c227e820  xdc_runtime_Core_assignLabel__I                                     
c227e8a0  xdc_runtime_Core_assignParams__I                                    
c227e920  xdc_runtime_LoggerSys_Object__create__S                             
c227e9a0  xdc_runtime_LoggerSys_write8__E                                     
c227ea20  xdc_runtime_System_atexit__F                                        
c227eaa0  xdc_runtime_System_putchar__I                                       
c227eb20  xdc_runtime_System_rtsExit__I                                       
c227eba0  xdc_runtime_Text_printVisFxn__I                                     
c227ec20  LEDNixieInit                                                        
c227ec80  NDK_hookCreate                                                      
c227ece0  __TI_writemsg                                                       
c227ed38  C$$IO$$                                                             
c227ed40  __c6xabi_llshru                                                     
c227eda0  __c6xabi_remull                                                     
c227ee00  _subcull                                                            
c227ee60  ti_sysbios_family_c64p_Hwi_switchAndDispatch__I                     
c227eec0  ti_sysbios_family_xxx_Hwi_switchAndRunFunc                          
c227ef20  lseek                                                               
c227ef80  malloc                                                              
c227efe0  memccpy                                                             
c227f040  sprintf                                                             
c227f0a0  sscanf                                                              
c227f100  strcmp                                                              
c227f160  strcpy                                                              
c227f1c0  strncmp                                                             
c227f280  ti_ndk_config_Global_stackThread                                    
c227f2e0  ti_sysbios_BIOS_errorRaiseHook__I                                   
c227f340  ti_sysbios_BIOS_exitFunc__I                                         
c227f3a0  ti_sysbios_BIOS_rtsLock__I                                          
c227f400  ti_sysbios_family_c64p_EventCombiner_dispatchPlug__F                
c227f460  ti_sysbios_family_c64p_EventCombiner_unused__F                      
c227f4c0  ti_sysbios_family_c64p_Exception_evtExpMaskEnable__E                
c227f520  ti_sysbios_family_c64p_Exception_nmiHandler__I                      
c227f580  ti_sysbios_family_c64p_Hwi_disableIER__E                            
c227f5e0  ti_sysbios_family_c64p_Hwi_enableIER__E                             
c227f640  ti_sysbios_gates_GateHwi_Handle__label__S                           
c227f6a0  ti_sysbios_gates_GateMutex_Handle__label__S                         
c227f700  ti_sysbios_hal_Hwi_Instance_init__F                                 
c227f760  ti_sysbios_hal_Hwi_checkStack                                       
c227f7c0  ti_sysbios_hal_Hwi_initStack                                        
c227f820  ti_sysbios_heaps_HeapMem_Handle__label__S                           
c227f880  ti_sysbios_heaps_HeapMem_Object__get__S                             
c227f8e0  ti_sysbios_knl_Clock_addI__E                                        
c227f940  ti_sysbios_knl_Clock_doTick__I                                      
c227f9a0  ti_sysbios_knl_Queue_put__E                                         
c227fa00  ti_sysbios_knl_Swi_Object__get__S                                   
c227fa60  ti_sysbios_knl_Task_getMode__E                                      
c227fac0  ti_sysbios_knl_Task_processVitalTaskFlag__I                         
c227fb20  ti_sysbios_knl_Task_restore__E                                      
c227fb80  ti_sysbios_knl_Task_sleepTimeout__I                                 
c227fbe0  ti_sysbios_utils_Load_getGlobalSwiLoad__E                           
c227fc40  write                                                               
c227fca0  xdc_runtime_Error_raiseX__E                                         
c227fd00  xdc_runtime_LoggerSys_Handle__label__S                              
c227fd60  xdc_runtime_LoggerSys_write0__F                                     
c227fdc0  xdc_runtime_LoggerSys_write1__F                                     
c227fe20  xdc_runtime_LoggerSys_write4__E                                     
c227fe80  xdc_runtime_Memory_calloc__F                                        
c227fee0  xdc_runtime_SysMin_Module_startup__F                                
c227ff40  xdc_runtime_SysMin_exit__F                                          
c227ffa0  xdc_runtime_System_aprintf_va__F                                    
c227ffa0  xdc_runtime_System_avprintf__F                                      
c2280000  xdc_runtime_System_printf_va__F                                     
c2280000  xdc_runtime_System_vprintf__F                                       
c2280060  xdc_runtime_Text_cordText__F                                        
c22800c0  FunEntryHook                                                        
c22800d0  FunExitHook                                                         
c2280100  NDK_hookExit                                                        
c2280140  __TI_frcmpyd_div                                                    
c2280180  __c6xabi_isinf                                                      
c2280200  __c6xabi_isnan                                                      
c2280240  _args_main                                                          
c2280340  ti_sysbios_family_c62_TaskSupport_buildTaskStack                    
c2280380  ti_sysbios_family_xxx_Hwi_switchToIsrStack                          
c2280400  free                                                                
c2280440  lv_draw_init                                                        
c2280480  lv_extra_init                                                       
c22804c0  strlen                                                              
c2280500  ti_sysbios_BIOS_exit__E                                             
c2280540  ti_sysbios_BIOS_getCpuFreq__E                                       
c2280580  ti_sysbios_BIOS_registerRTSLock__I                                  
c22805c0  ti_sysbios_BIOS_removeRTSLock__I                                    
c2280600  ti_sysbios_BIOS_setThreadType__E                                    
c2280640  ti_sysbios_BIOS_startFunc__I                                        
c2280680  ti_sysbios_family_c62_TaskSupport_checkStack__E                     
c22806c0  ti_sysbios_family_c64p_Cache_wbInv__E                               
c2280700  ti_sysbios_family_c64p_EventCombiner_dispatchPlug__E                
c2280740  ti_sysbios_family_c64p_Exception_evtEvtClear__E                     
c2280780  ti_sysbios_family_c64p_Hwi_Module__startupDone__F                   
c22807c0  ti_sysbios_family_c64p_Hwi_Object__delete__S                        
c2280800  ti_sysbios_family_c64p_Hwi_Params__init__S                          
c2280840  ti_sysbios_family_c64p_Hwi_clearInterrupt__E                        
c2280880  ti_sysbios_family_c64p_Hwi_disableInterrupt__E                      
c22808c0  ti_sysbios_family_c64p_Hwi_dispatchC__I                             
c2280900  ti_sysbios_family_c64p_Hwi_enableInterrupt__E                       
c2280940  ti_sysbios_family_c64p_Hwi_getIsrStackAddress__I                    
c2280980  ti_sysbios_family_c64p_TimestampProvider_get64__E                   
c22809c0  ti_sysbios_gates_GateHwi_Object__delete__S                          
c2280a00  ti_sysbios_gates_GateHwi_enter__E                                   
c2280a80  ti_sysbios_gates_GateMutex_Instance_finalize__F                     
c2280ac0  ti_sysbios_gates_GateMutex_Instance_init__F                         
c2280b00  ti_sysbios_gates_GateMutex_Object__delete__S                        
c2280b40  ti_sysbios_gates_GateMutex_leave__E                                 
c2280b80  ti_sysbios_hal_Hwi_HwiProxy_Object__create__S                       
c2280c00  ti_sysbios_hal_Hwi_HwiProxy_getStackInfo__E                         
c2280c40  ti_sysbios_hal_Hwi_Instance_finalize__F                             
c2280c80  ti_sysbios_hal_Hwi_Object__delete__S                                
c2280cc0  ti_sysbios_hal_Hwi_Params__init__S                                  
c2280d80  ti_sysbios_hal_Hwi_getStackInfo__E                                  
c2280dc0  ti_sysbios_hal_Timer_Module__startupDone__F                         
c2280e00  ti_sysbios_heaps_HeapMem_Object__delete__S                          
c2280e40  ti_sysbios_heaps_HeapMem_restore__E                                 
c2280f00  ti_sysbios_knl_Clock_Module_startup__F                              
c2280f40  ti_sysbios_knl_Clock_Params__init__S                                
c2280fc0  ti_sysbios_knl_Clock_startI__E                                      
c2281000  ti_sysbios_knl_Queue_Object__destruct__S                            
c2281040  ti_sysbios_knl_Queue_Object__get__S                                 
c22810c0  ti_sysbios_knl_Queue_dequeue__E                                     
c2281100  ti_sysbios_knl_Queue_empty__E                                       
c2281140  ti_sysbios_knl_Queue_enqueue__E                                     
c2281180  ti_sysbios_knl_Queue_remove__E                                      
c2281200  ti_sysbios_knl_Semaphore_Instance_finalize__F                       
c2281240  ti_sysbios_knl_Semaphore_Object__destruct__S                        
c2281280  ti_sysbios_knl_Semaphore_Params__init__S                            
c2281300  ti_sysbios_knl_Swi_Params__init__S                                  
c2281340  ti_sysbios_knl_Swi_disable__E                                       
c2281400  ti_sysbios_knl_Task_Object__delete__S                               
c2281440  ti_sysbios_knl_Task_Object__first__S                                
c2281480  ti_sysbios_knl_Task_Object__get__S                                  
c22814c0  ti_sysbios_knl_Task_Object__next__S                                 
c2281500  ti_sysbios_knl_Task_Params__init__S                                 
c2281540  ti_sysbios_knl_Task_disable__E                                      
c2281580  ti_sysbios_knl_Task_enabled__E                                      
c22815c0  ti_sysbios_knl_Task_enter__I                                        
c2281600  ti_sysbios_knl_Task_restoreHwi__E                                   
c2281640  ti_sysbios_knl_Task_setHookContext__E                               
c2281680  ti_sysbios_knl_Task_unblock__E                                      
c22816c0  ti_sysbios_timers_timer64_Timer_Module__startupDone__F              
c2281700  ti_sysbios_timers_timer64_Timer_Params__init__S                     
c2281740  ti_sysbios_timers_timer64_Timer_checkOverflow__I                    
c2281780  ti_sysbios_timers_timer64_Timer_postInit__I                         
c2281800  vsprintf                                                            
c2281840  wcslen                                                              
c2281880  xdc_runtime_Error_check__F                                          
c22818c0  xdc_runtime_Error_init__F                                           
c2281980  xdc_runtime_LoggerSys_Object__delete__S                             
c22819c0  xdc_runtime_LoggerSys_write0__E                                     
c2281a00  xdc_runtime_LoggerSys_write1__E                                     
c2281a40  xdc_runtime_LoggerSys_write2__E                                     
c2281a80  xdc_runtime_LoggerSys_write2__F                                     
c2281ac0  xdc_runtime_LoggerSys_write4__F                                     
c2281b00  xdc_runtime_Memory_free__F                                          
c2281b40  xdc_runtime_Registry_findById__F                                    
c2281b80  xdc_runtime_Startup_exec__I                                         
c2281bc0  xdc_runtime_System_abort__F                                         
c2281c00  xdc_runtime_System_aprintf__E                                       
c2281c40  xdc_runtime_System_printf__E                                        
c2281c80  xdc_runtime_System_putch__F                                         
c2281cc0  xdc_runtime_Text_putMod__E                                          
c2281d00  xdc_runtime_Text_ropeText__F                                        
c2281d40  xdc_runtime_Text_visitRope__I                                       
c2281d80  LED_TOGGLE                                                          
c2281da0  NDK_hookInit                                                        
c2281dc0  SemPost                                                             
c2281de0  __c6xabi_errno_addr                                                 
c2281e00  __cxa_ia64_exit                                                     
c2281e20  __c6xabi_pop_rts                                                    
c2281e20  __pop_rts                                                           
c2281e40  __c6xabi_push_rts                                                   
c2281e40  __push_rts                                                          
c2281e80  _nop                                                                
c2281f20  _register_lock                                                      
c2281f40  _register_unlock                                                    
c2281f60  _signbit                                                            
c2281f80  ti_sysbios_family_c62_TaskSupport_glue                              
c2281fa0  ti_sysbios_family_xxx_Hwi_switchToTaskStack                         
c2281fe0  C$$EXIT                                                             
c2281fe0  abort                                                               
c2282000  atexit                                                              
c2282020  __TI_decompress_none                                                
c2282040  __TI_decompress_rle24                                               
c2282060  ti_ndk_config_global_taskCreateHook                                 
c2282080  ti_ndk_config_global_taskExitHook                                   
c22820a0  ti_sysbios_BIOS_RtsGateProxy_enter__E                               
c22820c0  ti_sysbios_BIOS_RtsGateProxy_leave__E                               
c22820e0  ti_sysbios_BIOS_getThreadType__E                                    
c2282100  ti_sysbios_BIOS_nullFunc__I                                         
c2282120  ti_sysbios_BIOS_start__E                                            
c2282140  ti_sysbios_family_c62_TaskSupport_Module__startupDone__S            
c2282160  ti_sysbios_family_c62_TaskSupport_getStackAlignment__E              
c2282180  ti_sysbios_family_c64p_Cache_Module_startup__E                      
c22821a0  ti_sysbios_family_c64p_Cache_invL1pAll__E                           
c22821c0  ti_sysbios_family_c64p_Cache_wbInvAll__E                            
c22821e0  ti_sysbios_family_c64p_EventCombiner_Module_startup__E              
c2282200  ti_sysbios_family_c64p_EventCombiner_disableEvent__E                
c2282220  ti_sysbios_family_c64p_EventCombiner_dispatch__E                    
c2282240  ti_sysbios_family_c64p_EventCombiner_unused__E                      
c2282260  ti_sysbios_family_c64p_Exception_Module_startup__E                  
c2282280  ti_sysbios_family_c64p_Hwi_Module__startupDone__S                   
c22822a0  ti_sysbios_family_c64p_Hwi_Module_startup__E                        
c22822c0  ti_sysbios_family_c64p_Hwi_startup__E                               
c22822e0  ti_sysbios_family_c64p_Hwi_switchFromBootStack__E                   
c2282300  ti_sysbios_family_c64p_Hwi_unPluggedInterrupt__I                    
c2282320  ti_sysbios_family_c64p_TimestampProvider_Module_startup__E          
c2282340  ti_sysbios_family_c64p_TimestampProvider_Module_startup__F          
c2282360  ti_sysbios_family_c64p_TimestampProvider_get32__E                   
c2282380  ti_sysbios_family_c64p_TimestampProvider_getFreq__E                 
c22823a0  ti_sysbios_gates_GateHwi_Instance_init__F                           
c22823c0  ti_sysbios_gates_GateHwi_leave__E                                   
c22823e0  ti_sysbios_gates_GateHwi_query__E                                   
c2282400  ti_sysbios_gates_GateHwi_query__F                                   
c2282420  ti_sysbios_gates_GateMutex_query__E                                 
c2282440  ti_sysbios_gates_GateMutex_query__F                                 
c2282460  ti_sysbios_hal_Hwi_HwiProxy_Module__startupDone__S                  
c2282480  ti_sysbios_hal_Hwi_HwiProxy_Object__delete__S                       
c22824a0  ti_sysbios_hal_Hwi_HwiProxy_clearInterrupt__E                       
c22824e0  ti_sysbios_hal_Hwi_HwiProxy_disableInterrupt__E                     
c2282500  ti_sysbios_hal_Hwi_HwiProxy_enableInterrupt__E                      
c2282520  ti_sysbios_hal_Hwi_HwiProxy_startup__E                              
c2282540  ti_sysbios_hal_Hwi_HwiProxy_switchFromBootStack__E                  
c2282560  ti_sysbios_hal_Hwi_Module_startup__E                                
c2282580  ti_sysbios_hal_Hwi_Module_startup__F                                
c22825c0  ti_sysbios_hal_Hwi_clearInterrupt__E                                
c2282600  ti_sysbios_hal_Hwi_disableInterrupt__E                              
c2282620  ti_sysbios_hal_Hwi_enableInterrupt__E                               
c2282640  ti_sysbios_hal_Hwi_startup__E                                       
c2282660  ti_sysbios_hal_Hwi_switchFromBootStack__E                           
c2282680  ti_sysbios_hal_Timer_Module__startupDone__S                         
c22826a0  ti_sysbios_hal_Timer_Module_startup__E                              
c22826c0  ti_sysbios_hal_Timer_Module_startup__F                              
c22826e0  ti_sysbios_hal_Timer_TimerProxy_Module__startupDone__S              
c2282700  ti_sysbios_hal_Timer_TimerProxy_getPeriod__E                        
c2282720  ti_sysbios_hal_Timer_TimerProxy_startup__E                          
c2282740  ti_sysbios_hal_Timer_getPeriod__E                                   
c2282760  ti_sysbios_hal_Timer_startup__E                                     
c2282780  ti_sysbios_heaps_HeapMem_Module_GateProxy_enter__E                  
c22827a0  ti_sysbios_heaps_HeapMem_Module_GateProxy_leave__E                  
c22827c0  ti_sysbios_heaps_HeapMem_Module_GateProxy_query__E                  
c2282800  ti_sysbios_heaps_HeapMem_isBlocking__E                              
c2282820  ti_sysbios_knl_Clock_Module_startup__E                              
c2282860  ti_sysbios_knl_Clock_getTicks__E                                    
c22828c0  ti_sysbios_knl_Clock_removeI__E                                     
c22828e0  ti_sysbios_knl_Idle_loop__E                                         
c2282900  ti_sysbios_knl_Queue_Instance_init__F                               
c2282980  ti_sysbios_knl_Queue_elemClear__E                                   
c22829a0  ti_sysbios_knl_Queue_head__E                                        
c22829c0  ti_sysbios_knl_Queue_insert__E                                      
c22829e0  ti_sysbios_knl_Queue_next__E                                        
c2282a60  ti_sysbios_knl_Swi_Module_startup__E                                
c2282aa0  ti_sysbios_knl_Swi_enabled__E                                       
c2282ac0  ti_sysbios_knl_Swi_startup__E                                       
c2282ae0  ti_sysbios_knl_Task_Module_startup__E                               
c2282b60  ti_sysbios_knl_Task_SupportProxy_Module__startupDone__S             
c2282b80  ti_sysbios_knl_Task_SupportProxy_checkStack__E                      
c2282ba0  ti_sysbios_knl_Task_SupportProxy_getStackAlignment__E               
c2282bc0  ti_sysbios_knl_Task_SupportProxy_start__E                           
c2282be0  ti_sysbios_knl_Task_SupportProxy_swap__E                            
c2282c20  ti_sysbios_knl_Task_getHookContext__E                               
c2282c40  ti_sysbios_knl_Task_getIdleTask__E                                  
c2282c60  ti_sysbios_knl_Task_getPri__E                                       
c2282ca0  ti_sysbios_knl_Task_self__E                                         
c2282cc0  ti_sysbios_knl_Task_startup__E                                      
c2282ce0  ti_sysbios_timers_timer64_Timer_Module__startupDone__S              
c2282d00  ti_sysbios_timers_timer64_Timer_Module_startup__E                   
c2282d20  ti_sysbios_timers_timer64_Timer_TimerSupportProxy_enable__E         
c2282d40  ti_sysbios_utils_Load_getCPULoad__E                                 
c2282d60  ti_sysbios_utils_Load_taskRegHook__E                                
c2282d80  ti_sysbios_utils_Load_update__E                                     
c2282da0  tolower                                                             
c2282de0  xdc_runtime_Error_check__E                                          
c2282e00  xdc_runtime_Error_init__E                                           
c2282e20  xdc_runtime_Error_print__E                                          
c2282e40  xdc_runtime_Gate_enterSystem__E                                     
c2282e60  xdc_runtime_Gate_enterSystem__F                                     
c2282e80  xdc_runtime_Gate_leaveSystem__E                                     
c2282ea0  xdc_runtime_Gate_leaveSystem__F                                     
c2282ec0  xdc_runtime_Log_doPrint__E                                          
c2282ee0  xdc_runtime_LoggerSys_Instance_init__F                              
c2282f00  xdc_runtime_LoggerSys_TimestampProxy_get64__E                       
c2282f20  xdc_runtime_LoggerSys_disable__E                                    
c2282f40  xdc_runtime_LoggerSys_disable__F                                    
c2282f60  xdc_runtime_LoggerSys_enable__E                                     
c2282f80  xdc_runtime_LoggerSys_enable__F                                     
c2282fa0  xdc_runtime_Memory_HeapProxy_alloc__E                               
c2282fc0  xdc_runtime_Memory_HeapProxy_free__E                                
c2282fe0  xdc_runtime_Memory_alloc__E                                         
c2283000  xdc_runtime_Memory_calloc__E                                        
c2283020  xdc_runtime_Memory_free__E                                          
c2283040  xdc_runtime_Registry_findById__E                                    
c2283060  xdc_runtime_Startup_exec__E                                         
c2283080  xdc_runtime_Startup_reset__I                                        
c22830a0  xdc_runtime_SysMin_Module_startup__E                                
c22830c0  xdc_runtime_SysMin_abort__E                                         
c22830e0  xdc_runtime_SysMin_exit__E                                          
c2283100  xdc_runtime_SysMin_output__I                                        
c2283120  xdc_runtime_SysMin_putch__E                                         
c2283140  xdc_runtime_SysMin_ready__E                                         
c2283160  xdc_runtime_SysMin_ready__F                                         
c2283180  xdc_runtime_System_Module_GateProxy_enter__E                        
c22831a0  xdc_runtime_System_Module_GateProxy_leave__E                        
c22831c0  xdc_runtime_System_Module_startup__E                                
c22831e0  xdc_runtime_System_Module_startup__F                                
c2283200  xdc_runtime_System_SupportProxy_abort__E                            
c2283220  xdc_runtime_System_SupportProxy_exit__E                             
c2283240  xdc_runtime_System_SupportProxy_putch__E                            
c2283260  xdc_runtime_System_SupportProxy_ready__E                            
c2283280  xdc_runtime_System_abort__E                                         
c22832a0  xdc_runtime_System_atexit__E                                        
c22832c0  xdc_runtime_System_exit__E                                          
c22832e0  xdc_runtime_System_exit__F                                          
c2283300  xdc_runtime_System_lastFxn__I                                       
c2283320  xdc_runtime_System_putch__E                                         
c2283340  xdc_runtime_System_vsnprintf__E                                     
c2283360  xdc_runtime_System_snprintf_va__F                                   
c2283360  xdc_runtime_System_vsnprintf__F                                     
c2283380  xdc_runtime_Text_cordText__E                                        
c22833a0  xdc_runtime_Text_putLab__E                                          
c22833c0  xdc_runtime_Text_putSite__E                                         
c22833e0  xdc_runtime_Text_ropeText__E                                        
c2283400  xdc_runtime_Timestamp_SupportProxy_get32__E                         
c2283400  xdc_runtime_Timestamp_get32__F                                      
c2283420  xdc_runtime_Timestamp_SupportProxy_getFreq__E                       
c2283420  xdc_runtime_Timestamp_getFreq__F                                    
c2283440  xdc_runtime_Timestamp_get32__E                                      
c2283460  xdc_runtime_Timestamp_getFreq__E                                    
c22958d6  ti_sysbios_BIOS_Module__id__C                                       
c22af3a6  ti_sysbios_family_c64p_EventCombiner_Module__id__C                  
c22af3a8  xdc_runtime_Text_charTab__A                                         
c22b0ab6  ti_sysbios_family_c64p_Exception_Module__id__C                      
c22b242e  ti_sysbios_family_c64p_Exception_useInternalBuffer__C               
c22b4786  ti_sysbios_family_c64p_Hwi_Module__id__C                            
c22b4afa  ti_sysbios_family_c64p_Hwi_Module__loggerDefined__C                 
c22b5880  _ctypes_                                                            
c22b5982  ti_sysbios_gates_GateMutex_Module__id__C                            
c22b5988  _lv_bpp8_opa_table                                                  
c22b5b78  xdc_runtime_Text_nodeTab__A                                         
c22b66ae  ti_sysbios_hal_Hwi_Module__id__C                                    
c22b6766  ti_sysbios_heaps_HeapMem_Module__id__C                              
c22b6b66  ti_sysbios_knl_Clock_Module__id__C                                  
c22b6c06  ti_sysbios_knl_Clock_Module__loggerDefined__C                       
c22b75a0  ti_sysbios_timers_timer64_Timer_Object__PARAMS__C                   
c22b7a90  ti_sysbios_knl_Task_hooks__A                                        
c22b7b54  ti_sysbios_knl_Task_Object__PARAMS__C                               
c22b7bc8  xdc_runtime_LoggerSys_Module__FXNS__C                               
c22b7bfc  ti_sysbios_BIOS_Module__diagsEnabled__C                             
c22b7c00  xdc_runtime_Startup_sfxnTab__A                                      
c22b7c34  ti_sysbios_BIOS_Module__diagsIncluded__C                            
c22b7c68  ti_sysbios_family_c64p_Hwi_Object__PARAMS__C                        
c22b7cc4  ti_sysbios_hal_Hwi_Object__PARAMS__C                                
c22b7d1c  ti_sysbios_BIOS_Module__diagsMask__C                                
c22b7d48  ti_sysbios_heaps_HeapMem_Module__FXNS__C                            
c22b7d70  ti_sysbios_knl_Swi_Object__PARAMS__C                                
c22b7dbe  ti_sysbios_knl_Semaphore_Module__id__C                              
c22b7de6  ti_sysbios_knl_Semaphore_Module__loggerDefined__C                   
c22b7e54  ti_sysbios_gates_GateHwi_Module__FXNS__C                            
c22b7e78  ti_sysbios_gates_GateMutex_Module__FXNS__C                          
c22b7e9c  ti_sysbios_heaps_HeapMem_Object__PARAMS__C                          
c22b7ec0  ti_sysbios_knl_Clock_Object__PARAMS__C                              
c22b7ee4  ti_sysbios_knl_Semaphore_Object__PARAMS__C                          
c22b7f2a  ti_sysbios_knl_Swi_Module__id__C                                    
c22b7f2c  ti_sysbios_BIOS_installedErrorHook__C                               
c22b7f52  ti_sysbios_knl_Swi_Module__loggerDefined__C                         
c22b7f54  ti_sysbios_family_c62_TaskSupport_stackAlignment__C                 
c22b7f7a  ti_sysbios_knl_Task_Module__id__C                                   
c22b7f7c  ti_sysbios_family_c64p_Cache_EMIFA_BASE__C                          
c22b7fa2  ti_sysbios_knl_Task_Module__loggerDefined__C                        
c22b7fa4  ti_sysbios_family_c64p_Cache_EMIFA_CFG__C                           
c22b7fe8  ti_sysbios_family_c64p_Hwi_Object__DESC__C                          
c22b8008  ti_sysbios_gates_GateHwi_Object__DESC__C                            
c22b8028  ti_sysbios_gates_GateMutex_Object__DESC__C                          
c22b8048  ti_sysbios_hal_Hwi_Object__DESC__C                                  
c22b8068  ti_sysbios_heaps_HeapMem_Object__DESC__C                            
c22b8088  ti_sysbios_knl_Clock_Object__DESC__C                                
c22b80a8  ti_sysbios_knl_Queue_Object__DESC__C                                
c22b80c8  ti_sysbios_knl_Semaphore_Object__DESC__C                            
c22b80e8  ti_sysbios_knl_Swi_Object__DESC__C                                  
c22b8108  ti_sysbios_knl_Task_Object__DESC__C                                 
c22b8128  ti_sysbios_timers_timer64_Timer_Object__DESC__C                     
c22b8148  xdc_runtime_LoggerSys_Object__DESC__C                               
c22b81a6  ti_sysbios_knl_Task_initStackFlag__C                                
c22b81c6  ti_sysbios_timers_timer64_Timer_Module__id__C                       
c22b81e6  ti_sysbios_timers_timer64_Timer_startupNeeded__C                    
c22b8274  lv_arc_class                                                        
c22b8290  lv_bar_class                                                        
c22b82ac  lv_btn_class                                                        
c22b82c8  lv_btnmatrix_class                                                  
c22b82e4  lv_calendar_class                                                   
c22b8300  lv_calendar_header_arrow_class                                      
c22b831c  lv_calendar_header_dropdown_class                                   
c22b8338  lv_chart_class                                                      
c22b8354  lv_checkbox_class                                                   
c22b8370  lv_colorwheel_class                                                 
c22b838c  lv_dropdown_class                                                   
c22b83a8  lv_dropdownlist_class                                               
c22b83c4  lv_font_montserrat_14                                               
c22b83e0  lv_font_source_han_sans_bold_14                                     
c22b83fc  lv_img_class                                                        
c22b8418  lv_keyboard_class                                                   
c22b8434  lv_label_class                                                      
c22b8450  lv_led_class                                                        
c22b846c  lv_line_class                                                       
c22b8488  lv_list_btn_class                                                   
c22b84a4  lv_list_class                                                       
c22b84c0  lv_list_text_class                                                  
c22b84dc  lv_menu_class                                                       
c22b84f8  lv_menu_cont_class                                                  
c22b8514  lv_menu_main_cont_class                                             
c22b8530  lv_menu_main_header_cont_class                                      
c22b854c  lv_menu_page_class                                                  
c22b8568  lv_menu_section_class                                               
c22b8584  lv_menu_separator_class                                             
c22b85a0  lv_menu_sidebar_cont_class                                          
c22b85bc  lv_menu_sidebar_header_cont_class                                   
c22b85d8  lv_meter_class                                                      
c22b85f4  lv_msgbox_backdrop_class                                            
c22b8610  lv_msgbox_class                                                     
c22b862c  lv_obj_class                                                        
c22b8648  lv_roller_class                                                     
c22b8664  lv_roller_label_class                                               
c22b8680  lv_slider_class                                                     
c22b869c  lv_spinbox_class                                                    
c22b86b8  lv_spinner_class                                                    
c22b86d4  lv_switch_class                                                     
c22b86f0  lv_table_class                                                      
c22b870c  lv_tabview_class                                                    
c22b8728  lv_textarea_class                                                   
c22b8744  lv_tileview_class                                                   
c22b8760  lv_tileview_tile_class                                              
c22b877c  lv_win_class                                                        
c22b87b4  ti_sysbios_family_c64p_Cache_EMIFA_LENGTH__C                        
c22b87d4  ti_sysbios_family_c64p_Cache_EMIFB_BASE__C                          
c22b87f4  ti_sysbios_family_c64p_Cache_EMIFB_CFG__C                           
c22b8814  ti_sysbios_family_c64p_Cache_EMIFB_LENGTH__C                        
c22b8832  ti_sysbios_utils_Load_Module__id__C                                 
c22b8834  ti_sysbios_family_c64p_Cache_EMIFC_BASE__C                          
c22b8852  ti_sysbios_utils_Load_Module__loggerDefined__C                      
c22b8854  ti_sysbios_family_c64p_Cache_EMIFC_CFG__C                           
c22b8872  ti_sysbios_utils_Load_autoAddTasks__C                               
c22b8874  ti_sysbios_family_c64p_Cache_EMIFC_LENGTH__C                        
c22b8892  ti_sysbios_utils_Load_hwiEnabled__C                                 
c22b8894  ti_sysbios_family_c64p_Cache_MAR0_31__C                             
c22b88b2  ti_sysbios_utils_Load_updateInIdle__C                               
c22b88b4  ti_sysbios_family_c64p_Cache_MAR128_159__C                          
c22b88b8  xdc_runtime_Startup_sfxnRts__A                                      
c22b88d2  xdc_runtime_Core_Module__id__C                                      
c22b88d4  ti_sysbios_family_c64p_Cache_MAR160_191__C                          
c22b88f2  xdc_runtime_Error_Module__loggerDefined__C                          
c22b88f4  ti_sysbios_family_c64p_Cache_MAR192_223__C                          
c22b8912  xdc_runtime_Error_maxDepth__C                                       
c22b8914  ti_sysbios_family_c64p_Cache_MAR224_255__C                          
c22b8932  xdc_runtime_Memory_Module__id__C                                    
c22b8934  ti_sysbios_family_c64p_Cache_MAR32_63__C                            
c22b8952  xdc_runtime_SysMin_flushAtExit__C                                   
c22b8954  ti_sysbios_family_c64p_Cache_MAR64_95__C                            
c22b8972  xdc_runtime_Text_charCnt__C                                         
c22b8974  ti_sysbios_family_c64p_Cache_MAR96_127__C                           
c22b8992  xdc_runtime_Text_isLoaded__C                                        
c22b8994  ti_sysbios_family_c64p_EventCombiner_E_unpluggedEvent__C            
c22b89b2  xdc_runtime_Text_registryModsLastId__C                              
c22b89b4  ti_sysbios_family_c64p_Exception_E_exceptionMax__C                  
c22b89d2  xdc_runtime_Text_unnamedModsLastId__C                               
c22b89d4  ti_sysbios_family_c64p_Exception_exceptionHook__C                   
c22b89f4  ti_sysbios_family_c64p_Exception_externalHook__C                    
c22b8b18  ti_sysbios_gates_GateHwi_Object__PARAMS__C                          
c22b8b30  ti_sysbios_gates_GateMutex_Object__PARAMS__C                        
c22b8b48  ti_sysbios_knl_Queue_Object__PARAMS__C                              
c22b8b60  ti_sysbios_knl_Swi_hooks__A                                         
c22b8b78  xdc_runtime_LoggerSys_Object__PARAMS__C                             
c22b8e14  ti_sysbios_family_c64p_Exception_internalHook__C                    
c22b8e2c  ti_sysbios_family_c64p_Exception_nmiHook__C                         
c22b8e44  ti_sysbios_family_c64p_Hwi_E_alreadyDefined__C                      
c22b8e5c  ti_sysbios_family_c64p_Hwi_E_handleNotFound__C                      
c22b8e74  ti_sysbios_family_c64p_Hwi_LD_end__C                                
c22b8e8c  ti_sysbios_family_c64p_Hwi_LM_begin__C                              
c22b8e90  ti_sysbios_family_c64p_Hwi_hooks__A                                 
c22b8ea4  ti_sysbios_family_c64p_Hwi_Module__diagsEnabled__C                  
c22b8ebc  ti_sysbios_family_c64p_Hwi_Module__diagsIncluded__C                 
c22b8ed4  ti_sysbios_family_c64p_Hwi_Module__diagsMask__C                     
c22b8eec  ti_sysbios_family_c64p_Hwi_Module__loggerFxn1__C                    
c22b8f04  ti_sysbios_family_c64p_Hwi_Module__loggerFxn8__C                    
c22b8f1c  ti_sysbios_family_c64p_Hwi_Module__loggerObj__C                     
c22b8f34  ti_sysbios_family_c64p_Hwi_Object__heap__C                          
c22b8f4c  ti_sysbios_gates_GateMutex_A_badContext__C                          
c22b8f64  ti_sysbios_gates_GateMutex_Instance_State_sem__O                    
c22b8f7c  ti_sysbios_gates_GateMutex_Module__diagsEnabled__C                  
c22b8f94  ti_sysbios_gates_GateMutex_Module__diagsIncluded__C                 
c22b8fac  ti_sysbios_gates_GateMutex_Module__diagsMask__C                     
c22b8fc4  ti_sysbios_hal_Hwi_E_stackOverflow__C                               
c22b8fdc  ti_sysbios_heaps_HeapMem_A_align__C                                 
c22b8ff4  ti_sysbios_heaps_HeapMem_A_heapSize__C                              
c22b900c  ti_sysbios_heaps_HeapMem_A_invalidFree__C                           
c22b9024  ti_sysbios_heaps_HeapMem_A_zeroBlock__C                             
c22b903c  ti_sysbios_heaps_HeapMem_E_memory__C                                
c22b9054  ti_sysbios_heaps_HeapMem_Module__diagsEnabled__C                    
c22b906c  ti_sysbios_heaps_HeapMem_Module__diagsIncluded__C                   
c22b9084  ti_sysbios_heaps_HeapMem_Module__diagsMask__C                       
c22b909c  ti_sysbios_heaps_HeapMem_Module__gateObj__C                         
c22b90b4  ti_sysbios_heaps_HeapMem_Object__count__C                           
c22b90cc  ti_sysbios_heaps_HeapMem_Object__table__C                           
c22b90e4  ti_sysbios_heaps_HeapMem_reqAlign__C                                
c22b9188  _lv_bpp4_opa_table                                                  
c22b91b8  ti_sysbios_family_c64p_EventCombiner_EVTMASK__C                     
c22b92cc  ti_sysbios_family_c64p_Cache_initSize__C                            
c22b92d8  ti_sysbios_knl_Idle_coreList__A                                     
c22b92e4  ti_sysbios_knl_Clock_A_badThreadType__C                             
c22b92e8  ti_sysbios_knl_Idle_funcList__A                                     
c22b92f4  ti_sysbios_knl_Clock_A_clockDisabled__C                             
c22b9304  ti_sysbios_knl_Clock_LM_begin__C                                    
c22b9314  ti_sysbios_knl_Clock_LM_tick__C                                     
c22b9324  ti_sysbios_knl_Clock_LW_delayed__C                                  
c22b9334  ti_sysbios_knl_Clock_Module_State_clockQ__O                         
c22b9344  ti_sysbios_knl_Clock_Module__diagsEnabled__C                        
c22b9364  ti_sysbios_knl_Clock_Module__diagsIncluded__C                       
c22b9380  ti_sysbios_family_c64p_Hwi_hooks__C                                 
c22b9388  ti_sysbios_knl_Idle_coreList__C                                     
c22b9390  ti_sysbios_knl_Idle_funcList__C                                     
c22b9398  ti_sysbios_knl_Swi_hooks__C                                         
c22b93a0  ti_sysbios_knl_Task_hooks__C                                        
c22b93a8  xdc_runtime_Startup_firstFxns__A                                    
c22b93b0  xdc_runtime_Startup_firstFxns__C                                    
c22b93b8  xdc_runtime_Startup_lastFxns__C                                     
c22b93d4  ti_sysbios_knl_Clock_Module__diagsMask__C                           
c22b93dc  ti_sysbios_knl_Clock_Module__loggerFxn1__C                          
c22b93e0  _lv_bpp2_opa_table                                                  
c22b93e4  ti_sysbios_knl_Clock_Module__loggerFxn2__C                          
c22b93e8  ti_sysbios_knl_Clock_Module__loggerObj__C                           
c22b93ec  ti_sysbios_knl_Semaphore_A_badContext__C                            
c22b93f0  ti_sysbios_knl_Semaphore_A_noEvents__C                              
c22b93f4  ti_sysbios_knl_Semaphore_A_overflow__C                              
c22b93f8  ti_sysbios_knl_Semaphore_A_pendTaskDisabled__C                      
c22b93fc  ti_sysbios_knl_Semaphore_Instance_State_pendQ__O                    
c22b9400  ti_sysbios_knl_Semaphore_LM_pend__C                                 
c22b9404  ti_sysbios_knl_Semaphore_LM_post__C                                 
c22b9408  ti_sysbios_knl_Semaphore_Module__diagsEnabled__C                    
c22b940c  ti_sysbios_knl_Semaphore_Module__diagsIncluded__C                   
c22b9410  ti_sysbios_knl_Semaphore_Module__diagsMask__C                       
c22b9414  ti_sysbios_knl_Semaphore_Module__loggerFxn2__C                      
c22b9418  ti_sysbios_knl_Semaphore_Module__loggerFxn4__C                      
c22b941c  ti_sysbios_knl_Semaphore_Module__loggerObj__C                       
c22b9420  ti_sysbios_knl_Swi_A_badPriority__C                                 
c22b9424  ti_sysbios_knl_Swi_A_swiDisabled__C                                 
c22b9428  ti_sysbios_knl_Swi_LD_end__C                                        
c22b942c  ti_sysbios_knl_Swi_LM_begin__C                                      
c22b9430  ti_sysbios_knl_Swi_LM_post__C                                       
c22b9434  ti_sysbios_knl_Swi_Module__diagsEnabled__C                          
c22b9438  ti_sysbios_knl_Swi_Module__diagsIncluded__C                         
c22b943c  ti_sysbios_knl_Swi_Module__diagsMask__C                             
c22b9440  ti_sysbios_knl_Swi_Module__loggerFxn1__C                            
c22b9444  ti_sysbios_knl_Swi_Module__loggerFxn4__C                            
c22b9448  ti_sysbios_knl_Swi_Module__loggerObj__C                             
c22b944c  ti_sysbios_knl_Swi_Object__count__C                                 
c22b9450  ti_sysbios_knl_Swi_Object__heap__C                                  
c22b9454  ti_sysbios_knl_Swi_Object__table__C                                 
c22b9458  ti_sysbios_knl_Swi_numConstructedSwis__C                            
c22b945c  ti_sysbios_knl_Task_A_badPriority__C                                
c22b9460  ti_sysbios_knl_Task_A_badTaskState__C                               
c22b9464  ti_sysbios_knl_Task_A_badThreadType__C                              
c22b9468  ti_sysbios_knl_Task_A_badTimeout__C                                 
c22b946c  ti_sysbios_knl_Task_A_noPendElem__C                                 
c22b9470  ti_sysbios_knl_Task_A_sleepTaskDisabled__C                          
c22b9474  ti_sysbios_knl_Task_A_taskDisabled__C                               
c22b9478  ti_sysbios_knl_Task_E_deleteNotAllowed__C                           
c22b947c  ti_sysbios_knl_Task_E_spOutOfBounds__C                              
c22b9480  ti_sysbios_knl_Task_E_stackOverflow__C                              
c22b9484  ti_sysbios_knl_Task_LD_block__C                                     
c22b9488  ti_sysbios_knl_Task_LD_exit__C                                      
c22b948c  ti_sysbios_knl_Task_LD_ready__C                                     
c22b9490  ti_sysbios_knl_Task_LM_sleep__C                                     
c22b9494  ti_sysbios_knl_Task_LM_switch__C                                    
c22b9498  ti_sysbios_knl_Task_Module_State_inactiveQ__O                       
c22b949c  ti_sysbios_knl_Task_Module_State_terminatedQ__O                     
c22b94a0  ti_sysbios_knl_Task_Module__diagsEnabled__C                         
c22b94a4  ti_sysbios_knl_Task_Module__diagsIncluded__C                        
c22b94a8  ti_sysbios_knl_Task_Module__diagsMask__C                            
c22b94ac  ti_sysbios_knl_Task_Module__loggerFxn2__C                           
c22b94b0  ti_sysbios_knl_Task_Module__loggerFxn4__C                           
c22b94b4  ti_sysbios_knl_Task_Module__loggerObj__C                            
c22b94b8  ti_sysbios_knl_Task_Object__count__C                                
c22b94bc  ti_sysbios_knl_Task_Object__heap__C                                 
c22b94c0  ti_sysbios_knl_Task_Object__table__C                                
c22b94c4  ti_sysbios_knl_Task_allBlockedFunc__C                               
c22b94c8  ti_sysbios_knl_Task_defaultStackHeap__C                             
c22b94cc  ti_sysbios_knl_Task_defaultStackSize__C                             
c22b94d0  ti_sysbios_knl_Task_numConstructedTasks__C                          
c22b94d4  ti_sysbios_timers_timer64_Timer_A_notAvailable__C                   
c22b94d8  ti_sysbios_timers_timer64_Timer_E_cannotSupport__C                  
c22b94dc  ti_sysbios_timers_timer64_Timer_E_invalidTimer__C                   
c22b94e0  ti_sysbios_timers_timer64_Timer_E_notAvailable__C                   
c22b94e4  ti_sysbios_timers_timer64_Timer_Module__diagsEnabled__C             
c22b94e8  ti_sysbios_timers_timer64_Timer_Module__diagsIncluded__C            
c22b94ec  ti_sysbios_timers_timer64_Timer_Module__diagsMask__C                
c22b94f0  ti_sysbios_timers_timer64_Timer_anyMask__C                          
c22b94f4  ti_sysbios_timers_timer64_Timer_defaultHalf__C                      
c22b94f8  ti_sysbios_timers_timer64_Timer_freqDivisor__C                      
c22b94fc  ti_sysbios_timers_timer64_Timer_numLocalTimers__C                   
c22b9500  ti_sysbios_timers_timer64_Timer_numTimerDevices__C                  
c22b9504  ti_sysbios_utils_Load_LS_cpuLoad__C                                 
c22b9508  ti_sysbios_utils_Load_LS_hwiLoad__C                                 
c22b950c  ti_sysbios_utils_Load_LS_swiLoad__C                                 
c22b9510  ti_sysbios_utils_Load_LS_taskLoad__C                                
c22b9514  ti_sysbios_utils_Load_Module_State_taskList__O                      
c22b9518  ti_sysbios_utils_Load_Module__diagsEnabled__C                       
c22b951c  ti_sysbios_utils_Load_Module__diagsIncluded__C                      
c22b9520  ti_sysbios_utils_Load_Module__diagsMask__C                          
c22b9524  ti_sysbios_utils_Load_Module__loggerFxn1__C                         
c22b9528  ti_sysbios_utils_Load_Module__loggerFxn2__C                         
c22b952c  ti_sysbios_utils_Load_Module__loggerFxn4__C                         
c22b9530  ti_sysbios_utils_Load_Module__loggerObj__C                          
c22b9534  ti_sysbios_utils_Load_postUpdate__C                                 
c22b9538  ti_sysbios_utils_Load_windowInMs__C                                 
c22b953c  xdc_runtime_Assert_E_assertFailed__C                                
c22b9540  xdc_runtime_Core_A_initializedParams__C                             
c22b9544  xdc_runtime_Core_Module__diagsEnabled__C                            
c22b9548  xdc_runtime_Core_Module__diagsIncluded__C                           
c22b954c  xdc_runtime_Core_Module__diagsMask__C                               
c22b9550  xdc_runtime_Error_E_memory__C                                       
c22b9554  xdc_runtime_Error_Module__diagsEnabled__C                           
c22b9558  xdc_runtime_Error_Module__diagsIncluded__C                          
c22b955c  xdc_runtime_Error_Module__diagsMask__C                              
c22b9560  xdc_runtime_Error_Module__loggerFxn8__C                             
c22b9564  xdc_runtime_Error_Module__loggerObj__C                              
c22b9568  xdc_runtime_Error_policy__C                                         
c22b956c  xdc_runtime_Error_raiseHook__C                                      
c22b9570  xdc_runtime_IGateProvider_Interface__BASE__C                        
c22b9574  xdc_runtime_IHeap_Interface__BASE__C                                
c22b9578  xdc_runtime_ILogger_Interface__BASE__C                              
c22b957c  xdc_runtime_IModule_Interface__BASE__C                              
c22b9580  xdc_runtime_Log_L_error__C                                          
c22b9584  xdc_runtime_Memory_defaultHeapInstance__C                           
c22b9588  xdc_runtime_Startup_execImpl__C                                     
c22b958c  xdc_runtime_Startup_maxPasses__C                                    
c22b9590  xdc_runtime_Startup_lastFxns__A                                     
c22b9594  xdc_runtime_Startup_sfxnRts__C                                      
c22b9598  xdc_runtime_Startup_sfxnTab__C                                      
c22b959c  xdc_runtime_Startup_startModsFxn__C                                 
c22b95a0  xdc_runtime_SysMin_bufSize__C                                       
c22b95a4  xdc_runtime_SysMin_outputFunc__C                                    
c22b95a8  xdc_runtime_System_Module__gateObj__C                               
c22b95ac  xdc_runtime_System_extendFxn__C                                     
c22b95b0  xdc_runtime_System_maxAtexitHandlers__C                             
c22b95b4  xdc_runtime_Text_charTab__C                                         
c22b95b8  xdc_runtime_Text_nameEmpty__C                                       
c22b95bc  xdc_runtime_Text_nameStatic__C                                      
c22b95c0  xdc_runtime_Text_nameUnknown__C                                     
c22b95c4  xdc_runtime_Text_nodeTab__C                                         
c22b95c8  xdc_runtime_Text_visitRopeFxn__C                                    
c22b95e0  _lv_bpp1_opa_table                                                  
c22b9800  CmdLists                                                            
c22b9c00  ti_sysbios_family_c64p_EventCombiner_Module__state__V               
c22ba000  _ftable                                                             
c22ba1e0  g_sCmdTable                                                         
c22ba2a0  _stream                                                             
c22ba340  ti_sysbios_knl_Task_Object__table__V                                
c22ba390  TSK_idle                                                            
c22ba3e0  ti_sysbios_utils_Load_Module__state__V                              
c22ba478  ti_sysbios_family_c64p_Hwi_Object__table__V                         
c22ba504  _lock                                                               
c22ba508  ti_sysbios_knl_Swi_Module_State_0_readyQ__A                         
c22ba588  ti_sysbios_knl_Task_Module_State_0_readyQ__A                        
c22ba608  _device                                                             
c22ba680  ti_sysbios_family_c64p_Hwi_Module__state__V                         
c22ba6e8  ti_sysbios_timers_timer64_Timer_Module_State_0_device__A            
c22ba748  ti_sysbios_gates_GateMutex_Object__table__V                         
c22ba798  ti_sysbios_timers_timer64_Timer_Object__table__V                    
c22ba7e8  ulDataPatternTable                                                  
c22ba838  ti_sysbios_knl_Task_Module__state__V                                
c22ba87c  _unlock                                                             
c22ba880  ti_sysbios_utils_Load_Module_State_0_taskEnv__A                     
c22ba8b8  ti_sysbios_knl_Swi_Object__table__V                                 
c22ba8ec  __TI_ft_end                                                         
c22ba920  ti_sysbios_family_c64p_Exception_Module__state__V                   
c22ba950  ti_sysbios_knl_Clock_Module__state__V                               
c22ba9c4  __errno                                                             
c22ba9c4  errno                                                               
c22ba9c8  palette_32b                                                         
c22ba9e8  ti_sysbios_BIOS_Module__state__V                                    
c22baa08  ti_sysbios_timers_timer64_Timer_Module_State_0_gctrl__A             
c22baa28  ti_sysbios_timers_timer64_Timer_Module_State_0_handles__A           
c22baa48  ti_sysbios_timers_timer64_Timer_Module_State_0_intFreqs__A          
c22baa68  xdc_runtime_System_Module_State_0_atexitHandlers__A                 
c22baaa4  ti_sysbios_family_c64p_Cache_Module__state__V                       
c22baac4  ti_sysbios_family_c64p_primus_TimerSupport_Module__state__V         
c22baac8  ti_sysbios_heaps_HeapMem_Object__table__V                           
c22baae4  ti_sysbios_knl_Swi_Module__state__V                                 
c22bab14  ti_sysbios_timers_timer64_Timer_Module__state__V                    
c22bab28  SEGVal                                                              
c22bab44  __TI_cleanup_ptr                                                    
c22bab48  __TI_dtors_ptr                                                      
c22bab4c  __TI_enable_exit_profile_output                                     
c22bab50  ti_sysbios_hal_Hwi_Object__table__V                                 
c22bab5c  xdc_runtime_Memory_Module__state__V                                 
c22bab60  ti_sysbios_hal_Timer_Object__table__V                               
c22bab70  xdc_runtime_LoggerSys_Object__table__V                              
c22bab7c  xdc_runtime_SysMin_Module__state__V                                 
c22bab88  xdc_runtime_System_Module__state__V                                 
c22bab9c  ti_sysbios_family_c64p_Hwi_Module__root__V                          
c22baba6  xdc_runtime_Error_Module__state__V                                  
c22baba8  ti_sysbios_family_c64p_primus_TimerSupport_Module_State_0_suspSrc__A
c22babb0  ti_sysbios_gates_GateHwi_Module__root__V                            
c22babb8  ti_sysbios_gates_GateHwi_Object__table__V                           
c22babc0  ti_sysbios_gates_GateMutex_Module__root__V                          
c22babc8  ti_sysbios_hal_Hwi_Module__root__V                                  
c22babd0  ti_sysbios_heaps_HeapMem_Module__root__V                            
c22babd8  ti_sysbios_knl_Clock_Module__root__V                                
c22babe0  ti_sysbios_knl_Queue_Module__root__V                                
c22babe8  ti_sysbios_knl_Semaphore_Module__root__V                            
c22babf0  ti_sysbios_knl_Swi_Module__root__V                                  
c22babf8  ti_sysbios_knl_Task_Module__root__V                                 
c22bac00  ti_sysbios_timers_timer64_Timer_Module__root__V                     
c22bac08  xdc_runtime_LoggerSys_Module__root__V                               
c22bac10  xdc_runtime_Registry_Module__state__V                               
c22bac18  xdc_runtime_Startup_Module__state__V                                
c22bac20  ti_sysbios_knl_Task_Module_State_0_idleTask__A                      
c22bac28  ti_sysbios_utils_Load_Module_State_0_runningTask__A                 
c22bac30  ti_sysbios_utils_Load_Module_State_0_taskStartTime__A               
c22bb0f4  __TI_STATIC_BASE                                                    
c22bb164  KEY4SwiHandle                                                       
c22bb168  KEY6SwiHandle                                                       
c22bb16c  LV_LAYOUT_FLEX                                                      
c22bb170  LV_LAYOUT_GRID                                                      
c22bb174  LV_STYLE_FLEX_CROSS_PLACE                                           
c22bb178  LV_STYLE_FLEX_FLOW                                                  
c22bb17c  LV_STYLE_FLEX_GROW                                                  
c22bb180  LV_STYLE_FLEX_MAIN_PLACE                                            
c22bb184  LV_STYLE_FLEX_TRACK_PLACE                                           
c22bb188  LV_STYLE_GRID_CELL_COLUMN_POS                                       
c22bb18c  LV_STYLE_GRID_CELL_COLUMN_SPAN                                      
c22bb190  LV_STYLE_GRID_CELL_ROW_POS                                          
c22bb194  LV_STYLE_GRID_CELL_ROW_SPAN                                         
c22bb198  LV_STYLE_GRID_CELL_X_ALIGN                                          
c22bb19c  LV_STYLE_GRID_CELL_Y_ALIGN                                          
c22bb1a0  LV_STYLE_GRID_COLUMN_ALIGN                                          
c22bb1a4  LV_STYLE_GRID_COLUMN_DSC_ARRAY                                      
c22bb1a8  LV_STYLE_GRID_ROW_ALIGN                                             
c22bb1ac  LV_STYLE_GRID_ROW_DSC_ARRAY                                         
c22bb1b0  UARTConsoleSemHandle                                                
c22bb1b4  UARTConsoleTaskHandle                                               
c22bb1b8  _lv_grad_cache_mem                                                  
c22bb1bc  _lv_layout_list                                                     
c22bb1c0  _lv_theme_basic_styles                                              
c22bb1c4  _lv_theme_default_styles                                            
c22bb1c8  _lv_timer_act                                                       
c22bb1cc  indev_touchpad                                                      
c22bb1d0  p_rx                                                                
c22bb1d4  p_tx                                                                
c22bb1d8  rx_len                                                              
c22bb1dc  tx_len                                                              
c22bb1e8  _lv_txt_encoded_size                                                
c22bb1ec  _lv_txt_unicode_to_encoded                                          
c22bb1f0  _lv_txt_encoded_conv_wc                                             
c22bb1f4  _lv_txt_encoded_next                                                
c22bb1f8  _lv_txt_encoded_prev                                                
c22bb1fc  _lv_txt_encoded_get_byte_id                                         
c22bb200  _lv_txt_encoded_get_char_id                                         
c22bb204  _lv_txt_get_encoded_length                                          
c22bb239  CmdHistorySaveNo                                                    
c22bb23a  CmdHistorySaveIndex                                                 
c22bb23b  CmdHistoryDisplayIndex                                              
c22bb23c  sataRegs                                                            
c22bb240  temp                                                                
c22bb26c  spi_flag                                                            
c22bb270  SoftPWM                                                             
c22bb274  OSCINFreq                                                           
c22bb294  zh_cn_pinyin_dict                                                   
c22bb29a  LED_OP                                                              
c22bb2a0  __CIOBUF_                                                           
c22bb400  ti_sysbios_family_c64p_Hwi0                                         
c22bb400  ti_sysbios_family_c64p_Hwi_int0                                     
c22bb420  ti_sysbios_family_c64p_Hwi_int1                                     
c22bb440  ti_sysbios_family_c64p_Hwi_int2                                     
c22bb460  ti_sysbios_family_c64p_Hwi_int3                                     
c22bb480  ti_sysbios_family_c64p_Hwi_int4                                     
c22bb4a0  ti_sysbios_family_c64p_Hwi_int5                                     
c22bb4c0  ti_sysbios_family_c64p_Hwi_int6                                     
c22bb4e0  ti_sysbios_family_c64p_Hwi_int7                                     
c22bb500  ti_sysbios_family_c64p_Hwi_int8                                     
c22bb520  ti_sysbios_family_c64p_Hwi_int9                                     
c22bb540  ti_sysbios_family_c64p_Hwi_int10                                    
c22bb560  ti_sysbios_family_c64p_Hwi_int11                                    
c22bb580  ti_sysbios_family_c64p_Hwi_int12                                    
c22bb5a0  ti_sysbios_family_c64p_Hwi_int13                                    
c22bb5c0  ti_sysbios_family_c64p_Hwi_int14                                    
c22bb5e0  ti_sysbios_family_c64p_Hwi_int15                                    
c22bc168  __TI_Handler_Table_Base                                             
c22bc170  __TI_CINIT_Base                                                     
c22bc170  __TI_Handler_Table_Limit                                            
c22bc1a0  __TI_CINIT_Limit                                                    
ffffffff  __TI_pprof_out_hndl                                                 
ffffffff  __TI_prof_data_size                                                 
ffffffff  __TI_prof_data_start                                                
ffffffff  __binit__                                                           
ffffffff  __c_args__                                                          
ffffffff  binit                                                               
UNDEFED   __TI_INITARRAY_Base                                                 
UNDEFED   __TI_INITARRAY_Limit                                                

[2566 symbols]
