******************************************************************************
               TMS320C6x Linker PC v8.3.12                     
******************************************************************************
>> Linked Wed Apr  6 20:45:53 2022

OUTPUT FILE NAME:   <Board_C674x.out>
ENTRY POINT SYMBOL: "_c_int00"  address: c21ae300


MEMORY CONFIGURATION

         name            origin    length      used     unused   attr    fill
----------------------  --------  ---------  --------  --------  ----  --------
  DSPL2RAM              00800000   00040000  00004000  0003c000  RW  
  SHRAM                 80000000   00020000  00000000  00020000  RW X
  DDR2                  c0000000   08000000  021c1e11  05e3e1ef  RW X


SEGMENT ALLOCATION MAP

run origin  load origin   length   init length attrs members
----------  ----------- ---------- ----------- ----- -------
00800000    00800000    00004000   00000000    rw-
  00800000    00800000    00004000   00000000    rw- .stack
c0000000    c0000000    020f73fc   00000000    rw-
  c0000000    c0000000    02000000   00000000    rw- SystemHeap
  c2000000    c2000000    000f73fc   00000000    rw- .far
c20f7400    c20f7400    000c7800   000c7800    r-x
  c20f7400    c20f7400    000bd860   000bd860    r-x .text
  c21b4c60    c21b4c60    00009cbe   00009cbe    r-- .const
  c21be920    c21be920    000002e0   000002e0    r-- .switch.1
c21bec00    c21bec00    0000181c   00000000    rw-
  c21bec00    c21bec00    0000181c   00000000    rw- .fardata
c21c041c    c21c041c    000005cc   000005cc    r--
  c21c041c    c21c041c    000005cc   000005cc    r-- .switch.2
c21c09e8    c21c09e8    0000019f   00000000    rw-
  c21c09e8    c21c09e8    000000ea   00000000    rw- .bss
  c21c0ad4    c21c0ad4    000000b3   00000000    rw- .neardata
c21c0c00    c21c0c00    00000200   00000200    r-x
  c21c0c00    c21c0c00    00000200   00000200    r-x .vecs
c21c0e00    c21c0e00    00000120   00000000    rw-
  c21c0e00    c21c0e00    00000120   00000000    rw- .cio
c21c0f20    c21c0f20    00000f70   00000f70    r--
  c21c0f20    c21c0f20    00000f70   00000f70    r-- .cinit


SECTION ALLOCATION MAP

 output                                  attributes/
section   page    origin      length       input sections
--------  ----  ----------  ----------   ----------------
.stack     0    00800000    00004000     UNINITIALIZED
                  00800000    00000008     boot.ae674 : boot.oe674 (.stack)
                  00800008    00003ff8     --HOLE--

.bss       0    c21c09e8    000000ea     UNINITIALIZED
                  c21c09e8    00000018     hal_timer_bios.ae674 : lltimer.oe674 (.bss)
                  c21c0a00    0000000c     lv_anim.obj (.bss)
                  c21c0a0c    0000000c     lv_tileview.obj (.bss)
                  c21c0a18    00000008     lv_refr.obj (.bss)
                  c21c0a20    00000008     lv_spinner.obj (.bss)
                  c21c0a28    00000008     lv_theme_default.obj (.bss)
                  c21c0a30    00000004     lv_event.obj (.bss)
                  c21c0a34    00000004     lv_group.obj (.bss)
                  c21c0a38    00000004     lv_hal_disp.obj (.bss)
                  c21c0a3c    00000004     lv_indev.obj (.bss)
                  c21c0a40    00000004     lv_mem.obj (.bss)
                  c21c0a44    00000004     lv_obj_pos.obj (.bss)
                  c21c0a48    00000004     lv_tabview.obj (.bss)
                  c21c0a4c    00000004     lv_textarea.obj (.bss)
                  c21c0a50    00000004     (.common:KEY4SwiHandle)
                  c21c0a54    00000004     (.common:KEY6SwiHandle)
                  c21c0a58    00000004     (.common:LV_LAYOUT_FLEX)
                  c21c0a5c    00000004     (.common:LV_LAYOUT_GRID)
                  c21c0a60    00000004     (.common:LV_STYLE_FLEX_CROSS_PLACE)
                  c21c0a64    00000004     (.common:LV_STYLE_FLEX_FLOW)
                  c21c0a68    00000004     (.common:LV_STYLE_FLEX_GROW)
                  c21c0a6c    00000004     (.common:LV_STYLE_FLEX_MAIN_PLACE)
                  c21c0a70    00000004     (.common:LV_STYLE_FLEX_TRACK_PLACE)
                  c21c0a74    00000004     (.common:LV_STYLE_GRID_CELL_COLUMN_POS)
                  c21c0a78    00000004     (.common:LV_STYLE_GRID_CELL_COLUMN_SPAN)
                  c21c0a7c    00000004     (.common:LV_STYLE_GRID_CELL_ROW_POS)
                  c21c0a80    00000004     (.common:LV_STYLE_GRID_CELL_ROW_SPAN)
                  c21c0a84    00000004     (.common:LV_STYLE_GRID_CELL_X_ALIGN)
                  c21c0a88    00000004     (.common:LV_STYLE_GRID_CELL_Y_ALIGN)
                  c21c0a8c    00000004     (.common:LV_STYLE_GRID_COLUMN_ALIGN)
                  c21c0a90    00000004     (.common:LV_STYLE_GRID_COLUMN_DSC_ARRAY)
                  c21c0a94    00000004     (.common:LV_STYLE_GRID_ROW_ALIGN)
                  c21c0a98    00000004     (.common:LV_STYLE_GRID_ROW_DSC_ARRAY)
                  c21c0a9c    00000004     (.common:UARTConsoleSemHandle)
                  c21c0aa0    00000004     (.common:UARTConsoleTaskHandle)
                  c21c0aa4    00000004     (.common:_lv_grad_cache_mem)
                  c21c0aa8    00000004     (.common:_lv_layout_list)
                  c21c0aac    00000004     (.common:_lv_style_custom_prop_flag_lookup_table)
                  c21c0ab0    00000004     (.common:_lv_theme_basic_styles)
                  c21c0ab4    00000004     (.common:_lv_theme_default_styles)
                  c21c0ab8    00000004     (.common:_lv_timer_act)
                  c21c0abc    00000004     (.common:p_rx)
                  c21c0ac0    00000004     (.common:p_tx)
                  c21c0ac4    00000004     (.common:rx_len)
                  c21c0ac8    00000004     (.common:tx_len)
                  c21c0acc    00000002     lv_timer.obj (.bss)
                  c21c0ace    00000002     lv_win.obj (.bss)
                  c21c0ad0    00000001     lv_colorwheel.obj (.bss)
                  c21c0ad1    00000001     lv_hal_tick.obj (.bss)

.neardata 
*          0    c21c0ad4    000000b3     UNINITIALIZED
                  c21c0ad4    00000020     lv_txt.obj (.neardata)
                  c21c0af4    00000018     os.ae674 : task.oe674 (.neardata)
                  c21c0b0c    00000010     lv_timer.obj (.neardata)
                  c21c0b1c    00000009     lv_draw_sw_gradient.obj (.neardata)
                  c21c0b25    00000003     UARTConsole.obj (.neardata)
                  c21c0b28    00000008     SATA.obj (.neardata)
                  c21c0b30    00000008     lv_calendar_header_dropdown.obj (.neardata)
                  c21c0b38    00000008     lv_draw_sw_letter.obj (.neardata)
                  c21c0b40    00000008     lv_indev.obj (.neardata)
                  c21c0b48    00000008     lv_obj.obj (.neardata)
                  c21c0b50    00000006     lv_style.obj (.neardata)
                  c21c0b56    00000005     lv_colorwheel.obj (.neardata)
                  c21c0b5b    00000001     Timer.obj (.neardata)
                  c21c0b5c    00000004     Flash.obj (.neardata)
                  c21c0b60    00000004     LED.obj (.neardata)
                  c21c0b64    00000004     PLL.obj (.neardata)
                  c21c0b68    00000004     hal_timer_bios.ae674 : lltimer.oe674 (.neardata)
                  c21c0b6c    00000004     lodepng.obj (.neardata)
                  c21c0b70    00000004     lv_event.obj (.neardata)
                  c21c0b74    00000004     lv_hal_tick.obj (.neardata)
                  c21c0b78    00000004     lv_math.obj (.neardata)
                  c21c0b7c    00000004     lv_mem.obj (.neardata)
                  c21c0b80    00000003     lv_hal_disp.obj (.neardata)
                  c21c0b83    00000001     lv_example_get_started_1.obj (.neardata)
                  c21c0b84    00000001     lv_obj_pos.obj (.neardata)
                  c21c0b85    00000001     lv_obj_style.obj (.neardata)
                  c21c0b86    00000001     lv_theme_default.obj (.neardata)

.rodata    0    c21c0b87    00000000     UNINITIALIZED

.cinit     0    c21c0f20    00000f70     
                  c21c0f20    00000ea9     (.cinit..fardata.load) [load image, compression = rle]
                  c21c1dc9    00000068     (.cinit..neardata.load) [load image, compression = rle]
                  c21c1e31    00000016     (.cinit.SystemHeap.load) [load image, compression = rle]
                  c21c1e47    0000000d     (.cinit..far.load) [load image, compression = rle]
                  c21c1e54    00000009     (.cinit..bss.load) [load image, compression = rle]
                  c21c1e5d    00000003     --HOLE-- [fill = 0]
                  c21c1e60    00000008     (__TI_handler_table)
                  c21c1e68    00000028     (__TI_cinit_table)

.init_array 
*          0    c0000000    00000000     UNINITIALIZED

SystemHeap 
*          0    c0000000    02000000     UNINITIALIZED
                  c0000000    02000000     Local_pe674.oe674 (SystemHeap)

.far       0    c2000000    000f73fc     UNINITIALIZED
                  c2000000    000bb824     (.common:g_pucBuffer)
                  c20bb824    00000004     (.common:swCtrlFeatures)
                  c20bb828    00020000     lv_mem.obj (.far:work_mem_int$1)
                  c20db828    00010000     (.common:buff)
                  c20eb828    00003e80     lv_port_disp_c674x.obj (.far:buf_1$2)
                  c20ef6a8    00003e80     lv_port_disp_c674x.obj (.far:buf_2$3)
                  c20f3528    00002800     Local_pe674.oe674 (.far:taskStackSection)
                  c20f5d28    00000800     (.common:CmdHistory)
                  c20f6528    00000400     (.common:xdc_runtime_SysMin_Module_State_0_outbuf__A)
                  c20f6928    00000140     (.common:__TI_tmpnams)
                  c20f6a68    00000104     (.common:rx_data)
                  c20f6b6c    00000002     lv_theme_default.obj (.far:color_card)
                  c20f6b6e    00000002     lv_theme_default.obj (.far:color_grey)
                  c20f6b70    00000104     (.common:tx_data)
                  c20f6c74    00000002     lv_theme_default.obj (.far:color_scr)
                  c20f6c76    00000002     lv_theme_default.obj (.far:color_text)
                  c20f6c78    00000104     (.common:vrf_data)
                  c20f6d7c    00000004     --HOLE--
                  c20f6d80    00000100     lv_draw_sw_letter.obj (.far:opa_table$1)
                  c20f6e80    00000080     (.common:_lv_draw_mask_list)
                  c20f6f00    000000a0     (.common:RcvFis)
                  c20f6fa0    00000080     (.common:lv_mem_buf)
                  c20f7020    00000080     UARTConsole.obj (.far:UARTWriteBuffer)
                  c20f70a0    00000070     (.common:_lv_circle_cache)
                  c20f7110    0000004c     lv_port_disp_c674x.obj (.far:disp_drv$4)
                  c20f715c    00000004     --HOLE--
                  c20f7160    00000040     (.common:g_cCmdBuf)
                  c20f71a0    00000030     (.common:pllcfg)
                  c20f71d0    0000002c     (.common:_lv_img_cache_single)
                  c20f71fc    0000002a     (.common:TouchInfo)
                  c20f7226    00000002     --HOLE--
                  c20f7228    00000024     (.common:RTCTime)
                  c20f724c    00000004     --HOLE--
                  c20f7250    00000024     cmdline.obj (.far:argv$1)
                  c20f7274    00000024     lv_theme_default.obj (.far:theme)
                  c20f7298    0000001c     lv_port_disp_c674x.obj (.far:draw_buf_dsc$1)
                  c20f72b4    00000004     --HOLE--
                  c20f72b8    0000001a     rts6740_elf.lib : asctime.c.obj (.far:time_buf)
                  c20f72d2    00000002     --HOLE--
                  c20f72d4    00000018     lv_refr.obj (.far:perf_monitor)
                  c20f72ec    00000014     lv_theme_default.obj (.far:trans_delayed$2)
                  c20f7300    00000014     lv_theme_default.obj (.far:trans_normal$3)
                  c20f7314    0000000c     (.common:_lv_anim_ll)
                  c20f7320    0000000c     (.common:_lv_disp_ll)
                  c20f732c    0000000c     (.common:_lv_fsdrv_ll)
                  c20f7338    0000000c     (.common:_lv_group_ll)
                  c20f7344    0000000c     (.common:_lv_img_decoder_ll)
                  c20f7350    0000000c     (.common:_lv_indev_ll)
                  c20f735c    0000000c     (.common:_lv_obj_style_trans_ll)
                  c20f7368    0000000c     (.common:_lv_timer_ll)
                  c20f7374    00000004     --HOLE--
                  c20f7378    0000000c     (.common:ti_sysbios_knl_Task_Instance_State_0_hookEnv__A)
                  c20f7384    00000004     --HOLE--
                  c20f7388    0000000c     (.common:ti_sysbios_knl_Task_Instance_State_1_hookEnv__A)
                  c20f7394    00000004     --HOLE--
                  c20f7398    0000000a     (.common:I2CData)
                  c20f73a2    00000006     --HOLE--
                  c20f73a8    00000008     (.common:parmbuf)
                  c20f73b0    00000008     lv_font_montserrat_14.obj (.far:cache)
                  c20f73b8    00000008     lv_theme_default.obj (.far:dark_filter$4)
                  c20f73c0    00000008     lv_theme_default.obj (.far:grey_filter$5)
                  c20f73c8    00000008     lv_refr.obj (.far:mem_monitor)
                  c20f73d0    00000004     (.common:ti_sysbios_family_c64p_Hwi_Instance_State_0_hookEnv__A)
                  c20f73d4    00000004     --HOLE--
                  c20f73d8    00000004     (.common:ti_sysbios_family_c64p_Hwi_Instance_State_1_hookEnv__A)
                  c20f73dc    00000004     --HOLE--
                  c20f73e0    00000004     (.common:ti_sysbios_family_c64p_Hwi_Instance_State_2_hookEnv__A)
                  c20f73e4    00000004     --HOLE--
                  c20f73e8    00000004     (.common:ti_sysbios_family_c64p_Hwi_Instance_State_3_hookEnv__A)
                  c20f73ec    00000004     --HOLE--
                  c20f73f0    00000004     (.common:ti_sysbios_family_c64p_Hwi_Instance_State_4_hookEnv__A)
                  c20f73f4    00000004     --HOLE--
                  c20f73f8    00000004     (.common:ti_sysbios_knl_Swi_Instance_State_0_hookEnv__A)

.switch.1 
*          0    c21be920    000002e0     
                  c21be920    000001c8     lodepng.obj (.switch:lodepng_error_text)
                  c21beae8    000000dc     lv_style.obj (.switch:lv_style_prop_get_default)
                  c21bebc4    0000003c     lv_draw_img.obj (.switch:lv_img_cf_get_px_size)

.vecs      0    c21c0c00    00000200     
                  c21c0c00    00000200     Local_pe674.oe674 (.vecs)

xdc.meta   0    c0000000    000000f0     COPY SECTION
                  c0000000    000000f0     Local_pe674.oe674 (xdc.meta)

.text      0    c20f7400    000bd860     
                  c20f7400    000152a0     lodepng.obj (.text)
                  c210c6a0    000059e0     lv_chart.obj (.text)
                  c2112080    00005340     lv_theme_default.obj (.text)
                  c21173c0    00004f60     lv_draw_mask.obj (.text)
                  c211c320    00004460     lv_draw_sw_rect.obj (.text)
                  c2120780    000039c0     lv_obj_pos.obj (.text)
                  c2124140    00003380     lv_btnmatrix.obj (.text)
                  c21274c0    00003280     lv_textarea.obj (.text)
                  c212a740    000031a0     lv_table.obj (.text)
                  c212d8e0    00002fe0     lv_obj_scroll.obj (.text)
                  c21308c0    00002f60     lv_indev.obj (.text)
                  c2133820    00002ec0     lv_label.obj (.text)
                  c21366e0    00002e60     lv_img_buf.obj (.text)
                  c2139540    00002ce0     lv_obj_style.obj (.text)
                  c213c220    00002b20     lv_dropdown.obj (.text)
                  c213ed40    00002940     lv_refr.obj (.text)
                  c2141680    00002740     tjpgd.obj (.text)
                  c2143dc0    000026a0     lv_tlsf.obj (.text)
                  c2146460    00002660     lv_obj.obj (.text)
                  c2148ac0    00002580     lv_arc.obj (.text)
                  c214b040    000023a0     lv_img.obj (.text)
                  c214d3e0    00002320     lv_grid.obj (.text)
                  c214f700    000022a0     lv_draw_sw_blend.obj (.text)
                  c21519a0    000021a0     lv_meter.obj (.text)
                  c2153b40    000021a0     lv_sjpg.obj (.text)
                  c2155ce0    000020c0     rts6740_elf.lib : _printfi.c.obj (.text:__TI_printfi)
                  c2157da0    00002080                     : _scanfi.c.obj (.text:__TI_scanfi)
                  c2159e20    00002040     lv_flex.obj (.text)
                  c215be60    00001e60     lv_draw_sw_arc.obj (.text)
                  c215dcc0    00001e20     lv_colorwheel.obj (.text)
                  c215fae0    00001de0     lv_indev_scroll.obj (.text)
                  c21618c0    00001d80     lv_roller.obj (.text)
                  c2163640    00001c80     lv_hal_disp.obj (.text)
                  c21652c0    00001c00     lv_img_decoder.obj (.text)
                  c2166ec0    00001ae0     lv_bar.obj (.text)
                  c21689a0    000018e0     lv_obj_style_gen.obj (.text)
                  c216a280    000018e0     lv_txt.obj (.text)
                  c216bb60    00001880     lv_style_gen.obj (.text)
                  c216d3e0    00001840     lv_obj_draw.obj (.text)
                  c216ec20    000017a0     drivers.lib : rtc.obj (.text)
                  c21703c0    00001760     lv_slider.obj (.text)
                  c2171b20    00001720     lv_event.obj (.text)
                  c2173240    00001660     lv_menu.obj (.text)
                  c21748a0    000014e0     lv_printf.obj (.text)
                  c2175d80    000014a0     lv_area.obj (.text)
                  c2177220    00001460     lv_fs.obj (.text)
                  c2178680    00001440     lv_mem.obj (.text)
                  c2179ac0    00001360     lv_group.obj (.text)
                  c217ae20    00001320     lv_draw_sw_line.obj (.text)
                  c217c140    00001160     lv_spinbox.obj (.text)
                  c217d2a0    00001140     lv_disp.obj (.text)
                  c217e3e0    00001080     lv_anim.obj (.text)
                  c217f460    00001040     lv_obj_tree.obj (.text)
                  c21804a0    00001000     lv_draw_label.obj (.text)
                  c21814a0    00000f80     lv_calendar.obj (.text)
                  c2182420    00000e00     drivers.lib : raster.obj (.text)
                  c2183220    00000dc0                 : ehrpwm.obj (.text)
                  c2183fe0    00000d80     lv_style.obj (.text)
                  c2184d60    00000ce0     lv_draw_sw_gradient.obj (.text)
                  c2185a40    00000ca0     lv_tabview.obj (.text)
                  c21866e0    00000c80     lv_draw_sw_img.obj (.text)
                  c2187360    00000c60     lv_color.obj (.text)
                  c2187fc0    00000bc0     lv_draw_arc.obj (.text)
                  c2188b80    00000ae0     lv_font_fmt_txt.obj (.text)
                  c2189660    00000ac0     lv_keyboard.obj (.text)
                  c218a120    00000a60     lv_checkbox.obj (.text)
                  c218ab80    00000a60     lv_draw_img.obj (.text)
                  c218b5e0    00000a60     lv_draw_sw_letter.obj (.text)
                  c218c040    00000a20     Flash.obj (.text)
                  c218ca60    00000a20     lv_switch.obj (.text)
                  c218d480    000009a0     UARTConsole.obj (.text)
                  c218de20    00000980     Command.obj (.text)
                  c218e7a0    00000920     rts6740_elf.lib : strtod.c.obj (.text:strtod)
                  c218f0c0    00000900     lv_ll.obj (.text)
                  c218f9c0    000008a0     ti.targets.rts6000.ae674 : System.oe674 (.text:xdc_runtime_System_doPrint__I)
                  c2190260    00000860     lv_draw_sw_polygon.obj (.text)
                  c2190ac0    00000820     lv_led.obj (.text)
                  c21912e0    00000800     lv_math.obj (.text)
                  c2191ae0    000007e0     lv_timer.obj (.text)
                  c21922c0    00000780     sysbios.ae674 : BIOS.obj (.text:ti_sysbios_family_c64p_Exception_handler__I)
                  c2192a40    00000720     lv_png.obj (.text)
                  c2193160    00000720     sysbios.ae674 : BIOS.obj (.text:ti_sysbios_heaps_HeapMem_free__E)
                  c2193880    00000700     lv_line.obj (.text)
                  c2193f80    000006a0     SATA.obj (.text)
                  c2194620    000006a0     sysbios.ae674 : BIOS.obj (.text:ti_sysbios_knl_Semaphore_pend__E)
                  c2194cc0    000006a0                   : BIOS.obj (.text:ti_sysbios_knl_Task_Instance_finalize__F)
                  c2195360    00000680     I2C.obj (.text)
                  c21959e0    00000660     Touch.obj (.text)
                  c2196040    00000660     rts6740_elf.lib : _printfi.c.obj (.text:_pconv_a)
                  c21966a0    00000640     lv_bmp.obj (.text)
                  c2196ce0    00000620     lv_obj_class.obj (.text)
                  c2197300    00000620     sysbios.ae674 : BIOS.obj (.text:ti_sysbios_heaps_HeapMem_alloc__E)
                  c2197920    00000600     rts6740_elf.lib : divd.c.obj (.text:__c6xabi_divd)
                  c2197f20    00000600     lv_tileview.obj (.text)
                  c2198520    00000600     sysbios.ae674 : BIOS.obj (.text:ti_sysbios_knl_Task_Instance_init__F)
                  c2198b20    000005c0     DDR2.obj (.text)
                  c21990e0    000005a0     drivers.lib : spi.obj (.text)
                  c2199680    00000580                 : gpio.obj (.text)
                  c2199c00    00000580                 : uart.obj (.text)
                  c219a180    000004e0     LCD.obj (.text)
                  c219a660    000004e0     LEDNixie.obj (.text)
                  c219ab40    000004e0     sysbios.ae674 : BIOS.obj (.text:ti_sysbios_timers_timer64_Timer_Module_startup__F)
                  c219b020    000004c0     RTC.obj (.text)
                  c219b4e0    000004c0     drivers.lib : i2c.obj (.text)
                  c219b9a0    000004c0     rts6740_elf.lib : strtoll.c.obj (.text:strtoll)
                  c219be60    00000480     lv_hal_indev.obj (.text)
                  c219c2e0    00000440     rts6740_elf.lib : strtoull.c.obj (.text:strtoull)
                  c219c720    00000420     sysbios.ae674 : BIOS.obj (.text:ti_sysbios_knl_Task_sleep__E)
                  c219cb40    00000400     EEPROM.obj (.text)
                  c219cf40    00000400     LED.obj (.text)
                  c219d340    00000400     rts6740_elf.lib : _printfi.c.obj (.text:_pconv_g)
                  c219d740    000003e0     KEY.obj (.text)
                  c219db20    000003e0     PLL.obj (.text)
                  c219df00    000003e0     lv_calendar_header_arrow.obj (.text)
                  c219e2e0    000003c0     sysbios.ae674 : BIOS.obj (.text:ti_sysbios_family_c64p_Hwi_dispatchCore__I)
                  c219e6a0    000003c0                   : BIOS.obj (.text:ti_sysbios_heaps_HeapMem_Instance_init__F)
                  c219ea60    000003c0                   : BIOS.obj (.text:ti_sysbios_timers_timer64_Timer_Instance_init__F)
                  c219ee20    000003a0     rts6740_elf.lib : strtol.c.obj (.text:strtol)
                  c219f1c0    000003a0     sysbios.ae674 : BIOS.obj (.text:ti_sysbios_knl_Swi_run__I)
                  c219f560    00000380     UART1.obj (.text)
                  c219f8e0    00000380     lv_port_disp_c674x.obj (.text)
                  c219fc60    00000380     lv_theme.obj (.text)
                  c219ffe0    00000360     sysbios.ae674 : BIOS.obj (.text:ti_sysbios_knl_Clock_Instance_init__F)
                  c21a0340    00000360                   : BIOS.obj (.text:ti_sysbios_knl_Swi_Instance_init__F)
                  c21a06a0    00000360                   : BIOS.obj (.text:ti_sysbios_timers_timer64_Timer_deviceConfig__I)
                  c21a0a00    00000340     Local_pe674.oe674 (.text:xdc_runtime_System_printfExtend__I)
                  c21a0d40    00000320     sysbios.ae674 : BIOS.obj (.text:ti_sysbios_timers_timer64_Timer_initObj__I)
                  c21a1060    00000300     EHRPWM.obj (.text)
                  c21a1360    00000300     lv_calendar_header_dropdown.obj (.text)
                  c21a1660    00000300     lv_draw_sw.obj (.text)
                  c21a1960    00000300     rts6740_elf.lib : strtoul.c.obj (.text:strtoul)
                  c21a1c60    00000300     sysbios.ae674 : BIOS.obj (.text:ti_sysbios_knl_Semaphore_post__E)
                  c21a1f60    00000300                   : BIOS.obj (.text:ti_sysbios_utils_Load_logLoads__I)
                  c21a2260    000002e0     rts6740_elf.lib : fputs.c.obj (.text:fputs)
                  c21a2540    000002e0     lv_spinner.obj (.text)
                  c21a2820    000002c0     TempSensor.obj (.text)
                  c21a2ae0    000002c0     lv_win.obj (.text)
                  c21a2da0    000002a0     SATATest.obj (.text)
                  c21a3040    000002a0     rts6740_elf.lib : _printfi.c.obj (.text:_pconv_e)
                  c21a32e0    000002a0                     : _printfi.c.obj (.text:fcvt)
                  c21a3580    000002a0     lv_font.obj (.text)
                  c21a3820    000002a0     sysbios.ae674 : BIOS.obj (.text:ti_sysbios_knl_Clock_workFunc__E)
                  c21a3ac0    00000280                   : BIOS.obj (.text:ti_sysbios_knl_Task_schedule__I)
                  c21a3d40    00000280                   : BIOS.obj (.text:ti_sysbios_knl_Task_startCore__E)
                  c21a3fc0    00000280                   : BIOS.obj (.text:ti_sysbios_utils_Load_updateThreadContexts__E)
                  c21a4240    00000280     ti.targets.rts6000.ae674 : Error.oe674 (.text:xdc_runtime_Error_raiseX__F)
                  c21a44c0    00000260     PRULoader.obj (.text)
                  c21a4720    00000260     rts6740_elf.lib : imath64.c.obj (.text:__c6xabi_divull)
                  c21a4980    00000260     lv_draw_rect.obj (.text)
                  c21a4be0    00000260     sysbios.ae674 : BIOS.obj (.text:ti_sysbios_timers_timer64_Timer_start__E)
                  c21a4e40    00000260     ti.targets.rts6000.ae674 : Startup.oe674 (.text:xdc_runtime_Startup_startMods__I)
                  c21a50a0    00000240     Exception.obj (.text)
                  c21a52e0    00000220     sysbios.ae674 : BIOS.obj (.text:ti_sysbios_timers_timer64_Timer_setPeriodMicroSecs__E)
                  c21a5500    00000220                   : BIOS.obj (.text:ti_sysbios_utils_Load_updateLoads__E)
                  c21a5720    00000220     ti.targets.rts6000.ae674 : Core-mem.oe674 (.text:xdc_runtime_Core_createObject__I)
                  c21a5940    00000200     rts6740_elf.lib : _printfi.c.obj (.text:_ltostr)
                  c21a5b40    00000200     sysbios.ae674 : c64p_Hwi_disp_always.obj (.text:_ti_sysbios_family_c64p_Hwi_dispatchAlways)
                  c21a5d40    00000200                   : BIOS.obj (.text:ti_sysbios_knl_Swi_post__E)
                  c21a5f40    00000200                   : BIOS.obj (.text:ti_sysbios_knl_Task_exit__E)
                  c21a6140    00000200     ti.targets.rts6000.ae674 : Log.oe674 (.text:xdc_runtime_Log_doPrint__F)
                  c21a6340    000001e0     sysbios.ae674 : BIOS.obj (.text:ti_sysbios_knl_Task_postInit__I)
                  c21a6520    000001e0                   : BIOS.obj (.text:ti_sysbios_knl_Task_unblockI__E)
                  c21a6700    000001c0     rts6740_elf.lib : imath40.c.obj (.text:__c6xabi_divul)
                  c21a68c0    000001c0                     : fputc.c.obj (.text:fputc)
                  c21a6a80    000001c0                     : frexp.c.obj (.text:frexp)
                  c21a6c40    000001c0                     : ldexp.c.obj (.text:ldexp)
                  c21a6e00    000001c0     main.obj (.text)
                  c21a6fc0    000001c0     rts6740_elf.lib : setvbuf.c.obj (.text:setvbuf)
                  c21a7180    000001c0     sysbios.ae674 : BIOS.obj (.text:ti_sysbios_family_c64p_Hwi_Instance_finalize__F)
                  c21a7340    000001c0                   : BIOS.obj (.text:ti_sysbios_family_c64p_Hwi_Module_startup__F)
                  c21a7500    000001c0                   : BIOS.obj (.text:ti_sysbios_family_c64p_Hwi_reconfig__E)
                  c21a76c0    000001c0                   : BIOS.obj (.text:ti_sysbios_knl_Semaphore_Instance_init__F)
                  c21a7880    000001c0                   : BIOS.obj (.text:ti_sysbios_knl_Swi_Instance_finalize__F)
                  c21a7a40    000001c0                   : BIOS.obj (.text:ti_sysbios_utils_Load_idleFxn__E)
                  c21a7c00    000001c0     ti.targets.rts6000.ae674 : Text.oe674 (.text:xdc_runtime_Text_putSite__F)
                  c21a7dc0    000001a0     rts6740_elf.lib : hostrename.c.obj (.text:HOSTrename)
                  c21a7f60    000001a0     sysbios.ae674 : BIOS.obj (.text:ti_sysbios_gates_GateMutex_enter__E)
                  c21a8100    000001a0                   : BIOS.obj (.text:ti_sysbios_timers_timer64_Timer_getFreq__E)
                  c21a82a0    000001a0                   : BIOS.obj (.text:ti_sysbios_utils_Load_updateCurrentThreadTime__E)
                  c21a8440    00000180                   : BIOS.obj (.text:Timer_getNextAvailableTimerId)
                  c21a85c0    00000180     lv_draw_line.obj (.text)
                  c21a8740    00000180     sysbios.ae674 : c64p_Exception_asm.obj (.text)
                  c21a88c0    00000180                   : BIOS.obj (.text:ti_sysbios_family_c64p_Exception_internalHandler__I)
                  c21a8a40    00000180                   : BIOS.obj (.text:ti_sysbios_knl_Task_blockI__E)
                  c21a8bc0    00000180                   : BIOS.obj (.text:ti_sysbios_knl_Task_checkStacks__E)
                  c21a8d40    00000160     rts6740_elf.lib : sscanf.c.obj (.text:_chkmbc)
                  c21a8ea0    00000160     cmdline.obj (.text)
                  c21a9000    00000160     lv_gc.obj (.text)
                  c21a9160    00000160     Exception.obj (.text:retain)
                  c21a92c0    00000160     sysbios.ae674 : BIOS.obj (.text:ti_sysbios_knl_Swi_Module_startup__F)
                  c21a9420    00000160                   : BIOS.obj (.text:ti_sysbios_knl_Task_Module_startup__F)
                  c21a9580    00000160                   : BIOS.obj (.text:ti_sysbios_timers_timer64_Timer_initDevice__I)
                  c21a96e0    00000140     BUZZER.obj (.text)
                  c21a9820    00000140     boot.ae674 : autoinit.oe674 (.text:_auto_init_elf)
                  c21a9960    00000140     rts6740_elf.lib : _scanfi.c.obj (.text:_sproc_str)
                  c21a9aa0    00000140                     : _scanfi.c.obj (.text:_sproc_wstr)
                  c21a9be0    00000140     drivers.lib : psc.obj (.text)
                  c21a9d20    00000140     lv_example_get_started_1.obj (.text)
                  c21a9e60    00000140     lv_img_cache.obj (.text)
                  c21a9fa0    00000140     sysbios.ae674 : BIOS.obj (.text:ti_sysbios_family_c64p_Exception_externalHandler__I)
                  c21aa0e0    00000140                   : BIOS.obj (.text:ti_sysbios_family_c64p_Hwi_Instance_init__F)
                  c21aa220    00000140     Local_pe674.oe674 (.text:ti_sysbios_utils_Load_hwiBeginHook__E)
                  c21aa360    00000140     ti.targets.rts6000.ae674 : Text.oe674 (.text:xdc_runtime_Text_putLab__F)
                  c21aa4a0    00000120     rts6740_elf.lib : _printfi.c.obj (.text:_pconv_f)
                  c21aa5c0    00000120                     : getdevice.c.obj (.text:getdevice)
                  c21aa6e0    00000120     lv_async.obj (.text)
                  c21aa800    00000120     sysbios.ae674 : BIOS.obj (.text:ti_sysbios_family_c64p_Cache_block__I)
                  c21aa920    00000120                   : BIOS.obj (.text:ti_sysbios_family_c64p_Exception_decodeMpfsr__I)
                  c21aaa40    00000120     ti.targets.rts6000.ae674 : Text.oe674 (.text:xdc_runtime_Text_putMod__F)
                  c21aab60    00000100     Timer.obj (.text)
                  c21aac60    00000100     rts6740_elf.lib : fclose.c.obj (.text:__TI_closefile)
                  c21aad60    00000100                     : copy_decompress_rle.c.obj (.text:__TI_decompress_rle_core)
                  c21aae60    00000100                     : _printfi.c.obj (.text:_mcpy)
                  c21aaf60    00000100                     : atoi.c.obj (.text:atoi)
                  c21ab060    00000100                     : fseek.c.obj (.text:fseek)
                  c21ab160    00000100     lv_hal_tick.obj (.text)
                  c21ab260    00000100     lv_utils.obj (.text)
                  c21ab360    00000100     sysbios.ae674 : BIOS.obj (.text:ti_sysbios_BIOS_rtsUnlock__I)
                  c21ab460    00000100                   : BIOS.obj (.text:ti_sysbios_family_c64p_EventCombiner_dispatch__F)
                  c21ab560    00000100                   : BIOS.obj (.text:ti_sysbios_family_c64p_Exception_Module_startup__F)
                  c21ab660    00000100                   : BIOS.obj (.text:ti_sysbios_knl_Clock_start__E)
                  c21ab760    00000100                   : BIOS.obj (.text:ti_sysbios_knl_Swi_restoreHwi__E)
                  c21ab860    00000100     Local_pe674.oe674 (.text:ti_sysbios_timers_timer64_Timer_Object__create__S)
                  c21ab960    00000100     sysbios.ae674 : BIOS.obj (.text:ti_sysbios_utils_Load_swiBeginHook__E)
                  c21aba60    00000100                   : BIOS.obj (.text:ti_sysbios_utils_Load_taskCreateHook__E)
                  c21abb60    00000100                   : BIOS.obj (.text:ti_sysbios_utils_Load_taskSwitchHook__E)
                  c21abc60    00000100     ti.targets.rts6000.ae674 : Core-mem.oe674 (.text:xdc_runtime_Core_deleteObject__I)
                  c21abd60    00000100                              : Startup.oe674 (.text:xdc_runtime_Startup_exec__F)
                  c21abe60    00000100                              : Text.oe674 (.text:xdc_runtime_Text_visitRope2__I)
                  c21abf60    000000e0     rts6740_elf.lib : hostlseek.c.obj (.text:HOSTlseek)
                  c21ac040    000000e0                     : hostopen.c.obj (.text:HOSTopen)
                  c21ac120    000000e0                     : hostwrite.c.obj (.text:HOSTwrite)
                  c21ac200    000000e0                     : _ltoa.c.obj (.text:__TI_ltoa)
                  c21ac2e0    000000e0                     : _io_perm.c.obj (.text:__TI_wrt_ok)
                  c21ac3c0    000000e0                     : divi.asm.obj (.text:__divi)
                  c21ac4a0    000000e0                     : close.c.obj (.text:close)
                  c21ac580    000000e0                     : exit.c.obj (.text:exit)
                  c21ac660    000000e0                     : memset.c.obj (.text:memset)
                  c21ac740    000000e0                     : printf.c.obj (.text:printf)
                  c21ac820    000000e0     sysbios.ae674 : BIOS.obj (.text:ti_sysbios_family_c64p_Cache_Module_startup__F)
                  c21ac900    000000e0     Local_pe674.oe674 (.text:ti_sysbios_family_c64p_Hwi_Object__create__S)
                  c21ac9e0    000000e0     sysbios.ae674 : BIOS.obj (.text:ti_sysbios_family_c64p_Hwi_postInit__I)
                  c21acac0    000000e0     Local_pe674.oe674 (.text:ti_sysbios_hal_Hwi_Object__create__S)
                  c21acba0    000000e0     sysbios.ae674 : BIOS.obj (.text:ti_sysbios_heaps_HeapMem_getStats__E)
                  c21acc80    000000e0                   : BIOS.obj (.text:ti_sysbios_knl_Clock_logTick__E)
                  c21acd60    000000e0     Local_pe674.oe674 (.text:ti_sysbios_knl_Swi_Object__create__S)
                  c21ace40    000000e0     sysbios.ae674 : BIOS.obj (.text:ti_sysbios_knl_Swi_postInit__I)
                  c21acf20    000000e0                   : BIOS.obj (.text:ti_sysbios_knl_Swi_runLoop__I)
                  c21ad000    000000e0                   : BIOS.obj (.text:ti_sysbios_knl_Swi_schedule__I)
                  c21ad0e0    000000e0     Local_pe674.oe674 (.text:ti_sysbios_knl_Task_Object__create__S)
                  c21ad1c0    000000e0     sysbios.ae674 : BIOS.obj (.text:ti_sysbios_timers_timer64_Timer_stop__E)
                  c21ad2a0    000000e0     ti.targets.rts6000.ae674 : Error.oe674 (.text:xdc_runtime_Error_print__F)
                  c21ad380    000000e0                              : LoggerSys.oe674 (.text:xdc_runtime_LoggerSys_write8__F)
                  c21ad460    000000e0                              : Memory.oe674 (.text:xdc_runtime_Memory_alloc__F)
                  c21ad540    000000c0     rts6740_elf.lib : hostread.c.obj (.text:HOSTread)
                  c21ad600    000000c0                     : hostunlink.c.obj (.text:HOSTunlink)
                  c21ad6c0    000000c0                     : dtor_list.c.obj (.text:_Z23__finalize_destructionsPP20a_needed_destructionPv)
                  c21ad780    000000c0                     : dtor_list.c.obj (.text:_ZN33_INTERNAL_11_dtor_list_c_14e673d611__TI_atexitEPFYvPvES0_S0_)
                  c21ad840    000000c0                     : divu.asm.obj (.text:__divu)
                  c21ad900    000000c0                     : remi.asm.obj (.text:__remi)
                  c21ad9c0    000000c0     sysbios.ae674 : BIOS.obj (.text:getEmifCtrlAddr$6)
                  c21ada80    000000c0                   : BIOS.obj (.text:ti_sysbios_family_c64p_Hwi_eventMap__E)
                  c21adb40    000000c0                   : BIOS.obj (.text:ti_sysbios_family_c64p_Hwi_getStackInfo__E)
                  c21adc00    000000c0                   : BIOS.obj (.text:ti_sysbios_knl_Task_allBlockedFunction__I)
                  c21adcc0    000000c0                   : BIOS.obj (.text:ti_sysbios_timers_timer64_Timer_Instance_finalize__F)
                  c21add80    000000c0                   : BIOS.obj (.text:ti_sysbios_utils_Load_addTask__E)
                  c21ade40    000000c0                   : BIOS.obj (.text:ti_sysbios_utils_Load_hwiEndHook__E)
                  c21adf00    000000c0                   : BIOS.obj (.text:ti_sysbios_utils_Load_logCPULoad__I)
                  c21adfc0    000000c0     ti.targets.rts6000.ae674 : System.oe674 (.text:xdc_runtime_System_formatNum__I)
                  c21ae080    000000a0     rts6740_elf.lib : hostclose.c.obj (.text:HOSTclose)
                  c21ae120    000000a0                     : fopen.c.obj (.text:__TI_cleanup)
                  c21ae1c0    000000a0                     : fflush.c.obj (.text:__TI_doflush)
                  c21ae260    000000a0                     : remu.asm.obj (.text:__remu)
                  c21ae300    000000a0     boot.ae674 : boot.oe674 (.text:_c_int00)
                  c21ae3a0    000000a0     rts6740_elf.lib : _printfi.c.obj (.text:_ecpy)
                  c21ae440    000000a0     sysbios.ae674 : c64p_Hwi_asm.obj (.text:_ti_sysbios_family_c64p_Hwi_plug__E)
                  c21ae4e0    000000a0     rts6740_elf.lib : asctime.c.obj (.text:asctime)
                  c21ae580    000000a0                     : getdevice.c.obj (.text:finddevice)
                  c21ae620    000000a0     hal_timer_bios.ae674 : lltimer.oe674 (.text:llTimerTick)
                  c21ae6c0    000000a0     lv_btn.obj (.text)
                  c21ae760    000000a0     rts6740_elf.lib : memcpy64.asm.obj (.text:memcpy)
                  c21ae800    000000a0     sysbios.ae674 : BIOS.obj (.text:ti_sysbios_family_c62_TaskSupport_start__E)
                  c21ae8a0    000000a0                   : BIOS.obj (.text:ti_sysbios_family_c64p_Cache_all__I)
                  c21ae940    000000a0                   : BIOS.obj (.text:ti_sysbios_family_c64p_Cache_marInit__I)
                  c21ae9e0    000000a0                   : BIOS.obj (.text:ti_sysbios_family_c64p_Cache_setMar__E)
                  c21aea80    000000a0                   : BIOS.obj (.text:ti_sysbios_family_c64p_primus_TimerSupport_enable__E)
                  c21aeb20    000000a0                   : BIOS.obj (.text:ti_sysbios_heaps_HeapMem_init__I)
                  c21aebc0    000000a0     Local_pe674.oe674 (.text:ti_sysbios_knl_Clock_Object__create__S)
                  c21aec60    000000a0     sysbios.ae674 : BIOS.obj (.text:ti_sysbios_knl_Idle_run__E)
                  c21aed00    000000a0     Local_pe674.oe674 (.text:ti_sysbios_knl_Semaphore_Object__create__S)
                  c21aeda0    000000a0     sysbios.ae674 : BIOS.obj (.text:ti_sysbios_timers_timer64_Timer_getPeriod__E)
                  c21aee40    000000a0                   : BIOS.obj (.text:ti_sysbios_timers_timer64_Timer_startup__E)
                  c21aeee0    000000a0                   : BIOS.obj (.text:ti_sysbios_utils_Load_swiEndHook__E)
                  c21aef80    000000a0                   : BIOS.obj (.text:ti_sysbios_utils_Load_taskDeleteHook__E)
                  c21af020    000000a0     ti.targets.rts6000.ae674 : Assert.oe674 (.text:xdc_runtime_Assert_raise__I)
                  c21af0c0    000000a0                              : SysMin.oe674 (.text:xdc_runtime_SysMin_abort__F)
                  c21af160    000000a0                              : SysMin.oe674 (.text:xdc_runtime_SysMin_flush__F)
                  c21af200    000000a0                              : SysMin.oe674 (.text:xdc_runtime_SysMin_putch__F)
                  c21af2a0    000000a0                              : Text.oe674 (.text:xdc_runtime_Text_xprintf__I)
                  c21af340    00000080     SysMinProvide.obj (.text)
                  c21af3c0    00000080     rts6740_elf.lib : trgmsg.c.obj (.text:__TI_readmsg)
                  c21af440    00000080                     : llshift.c.obj (.text:__c6xabi_llshl)
                  c21af4c0    00000080                     : snprintf.c.obj (.text:_outs)
                  c21af540    00000080     sysbios.ae674 : c62_TaskSupport_asm.obj (.text:_ti_sysbios_family_c62_TaskSupport_swap__E)
                  c21af5c0    00000080     rts6740_elf.lib : snprintf.c.obj (.text:snprintf)
                  c21af640    00000080                     : strcat.c.obj (.text:strcat)
                  c21af6c0    00000080     sysbios.ae674 : BIOS.obj (.text:ti_sysbios_family_c64p_Cache_setSize__E)
                  c21af740    00000080                   : BIOS.obj (.text:ti_sysbios_family_c64p_Cache_wait__E)
                  c21af7c0    00000080                   : BIOS.obj (.text:ti_sysbios_family_c64p_EventCombiner_Module_startup__F)
                  c21af840    00000080                   : BIOS.obj (.text:ti_sysbios_family_c64p_EventCombiner_disableEvent__F)
                  c21af8c0    00000080                   : BIOS.obj (.text:ti_sysbios_family_c64p_EventCombiner_enableEvent__F)
                  c21af940    00000080                   : BIOS.obj (.text:ti_sysbios_family_c64p_Exception_getLastStatus__E)
                  c21af9c0    00000080                   : BIOS.obj (.text:ti_sysbios_family_c64p_Hwi_getEventId__E)
                  c21afa40    00000080     Local_pe674.oe674 (.text:ti_sysbios_gates_GateHwi_Object__create__S)
                  c21afac0    00000080     Local_pe674.oe674 (.text:ti_sysbios_gates_GateMutex_Object__create__S)
                  c21afb40    00000080     Local_pe674.oe674 (.text:ti_sysbios_heaps_HeapMem_Object__create__S)
                  c21afbc0    00000080     Local_pe674.oe674 (.text:ti_sysbios_knl_Queue_Object__create__S)
                  c21afc40    00000080     sysbios.ae674 : BIOS.obj (.text:ti_sysbios_knl_Semaphore_pendTimeout__I)
                  c21afcc0    00000080                   : BIOS.obj (.text:ti_sysbios_knl_Swi_restore__E)
                  c21afd40    00000080                   : BIOS.obj (.text:ti_sysbios_knl_Task_deleteTerminatedTasksFunc__I)
                  c21afdc0    00000080                   : BIOS.obj (.text:ti_sysbios_utils_Load_getGlobalHwiLoad__E)
                  c21afe40    00000080                   : BIOS.obj (.text:ti_sysbios_utils_Load_getTaskLoad__E)
                  c21afec0    00000080                   : BIOS.obj (.text:ti_sysbios_utils_Load_removeTask__E)
                  c21aff40    00000080     rts6740_elf.lib : unlink.c.obj (.text:unlink)
                  c21affc0    00000080     ti.targets.rts6000.ae674 : Core-label.oe674 (.text:xdc_runtime_Core_assignLabel__I)
                  c21b0040    00000080                              : Core-params.oe674 (.text:xdc_runtime_Core_assignParams__I)
                  c21b00c0    00000080     Local_pe674.oe674 (.text:xdc_runtime_LoggerSys_Object__create__S)
                  c21b0140    00000080     Local_pe674.oe674 (.text:xdc_runtime_LoggerSys_write8__E)
                  c21b01c0    00000080     ti.targets.rts6000.ae674 : System.oe674 (.text:xdc_runtime_System_atexit__F)
                  c21b0240    00000080                              : System.oe674 (.text:xdc_runtime_System_putchar__I)
                  c21b02c0    00000080                              : System.oe674 (.text:xdc_runtime_System_rtsExit__I)
                  c21b0340    00000080                              : Text.oe674 (.text:xdc_runtime_Text_printVisFxn__I)
                  c21b03c0    00000060     LEDMatrix.obj (.text)
                  c21b0420    00000060     os.ae674 : task.oe674 (.text:NDK_hookCreate)
                  c21b0480    00000060     rts6740_elf.lib : trgmsg.c.obj (.text:__TI_writemsg)
                  c21b04e0    00000060                     : llshift.c.obj (.text:__c6xabi_llshru)
                  c21b0540    00000060                     : imath64.c.obj (.text:__c6xabi_remull)
                  c21b05a0    00000060                     : imath64.c.obj (.text:_subcull)
                  c21b0600    00000060     sysbios.ae674 : c64p_Hwi_asm_switch.obj (.text:_ti_sysbios_family_c64p_Hwi_switchAndDispatch__I)
                  c21b0660    00000060                   : c64p_Hwi_asm_switch.obj (.text:_ti_sysbios_family_xxx_Hwi_switchAndRunFunc)
                  c21b06c0    00000060     rts6740_elf.lib : lseek.c.obj (.text:lseek)
                  c21b0720    00000060     Local_pe674.oe674 (.text:malloc)
                  c21b0780    00000060     rts6740_elf.lib : memccpy.c.obj (.text:memccpy)
                  c21b07e0    00000060                     : memcmp.c.obj (.text:memcmp)
                  c21b0840    00000060                     : sprintf.c.obj (.text:sprintf)
                  c21b08a0    00000060                     : sscanf.c.obj (.text:sscanf)
                  c21b0900    00000060                     : strcmp.c.obj (.text:strcmp)
                  c21b0960    00000060                     : strcpy.c.obj (.text:strcpy)
                  c21b09c0    00000060                     : strncmp.c.obj (.text:strncmp)
                  c21b0a20    00000060                     : _scanfi.c.obj (.text:strrchr)
                  c21b0a80    00000060     Local_pe674.oe674 (.text:ti_ndk_config_Global_stackThread)
                  c21b0ae0    00000060     sysbios.ae674 : BIOS.obj (.text:ti_sysbios_BIOS_errorRaiseHook__I)
                  c21b0b40    00000060     Local_pe674.oe674 (.text:ti_sysbios_BIOS_exitFunc__I)
                  c21b0ba0    00000060     sysbios.ae674 : BIOS.obj (.text:ti_sysbios_BIOS_rtsLock__I)
                  c21b0c00    00000060                   : BIOS.obj (.text:ti_sysbios_family_c64p_EventCombiner_dispatchPlug__F)
                  c21b0c60    00000060                   : BIOS.obj (.text:ti_sysbios_family_c64p_EventCombiner_unused__F)
                  c21b0cc0    00000060                   : BIOS.obj (.text:ti_sysbios_family_c64p_Exception_evtExpMaskEnable__E)
                  c21b0d20    00000060                   : BIOS.obj (.text:ti_sysbios_family_c64p_Exception_nmiHandler__I)
                  c21b0d80    00000060                   : BIOS.obj (.text:ti_sysbios_family_c64p_Hwi_disableIER__E)
                  c21b0de0    00000060                   : BIOS.obj (.text:ti_sysbios_family_c64p_Hwi_enableIER__E)
                  c21b0e40    00000060     Local_pe674.oe674 (.text:ti_sysbios_gates_GateHwi_Handle__label__S)
                  c21b0ea0    00000060     Local_pe674.oe674 (.text:ti_sysbios_gates_GateMutex_Handle__label__S)
                  c21b0f00    00000060     sysbios.ae674 : BIOS.obj (.text:ti_sysbios_hal_Hwi_Instance_init__F)
                  c21b0f60    00000060                   : BIOS.obj (.text:ti_sysbios_hal_Hwi_checkStack:ti_sysbios_hal_Hwi_checkStack)
                  c21b0fc0    00000060                   : BIOS.obj (.text:ti_sysbios_hal_Hwi_initStack:ti_sysbios_hal_Hwi_initStack)
                  c21b1020    00000060     Local_pe674.oe674 (.text:ti_sysbios_heaps_HeapMem_Handle__label__S)
                  c21b1080    00000060     Local_pe674.oe674 (.text:ti_sysbios_heaps_HeapMem_Object__get__S)
                  c21b10e0    00000060     sysbios.ae674 : BIOS.obj (.text:ti_sysbios_knl_Clock_addI__E)
                  c21b1140    00000060     Local_pe674.oe674 (.text:ti_sysbios_knl_Clock_doTick__I)
                  c21b11a0    00000060     sysbios.ae674 : BIOS.obj (.text:ti_sysbios_knl_Queue_put__E)
                  c21b1200    00000060     Local_pe674.oe674 (.text:ti_sysbios_knl_Swi_Object__get__S)
                  c21b1260    00000060     sysbios.ae674 : BIOS.obj (.text:ti_sysbios_knl_Task_getMode__E)
                  c21b12c0    00000060                   : BIOS.obj (.text:ti_sysbios_knl_Task_processVitalTaskFlag__I)
                  c21b1320    00000060                   : BIOS.obj (.text:ti_sysbios_knl_Task_restore__E)
                  c21b1380    00000060                   : BIOS.obj (.text:ti_sysbios_knl_Task_sleepTimeout__I)
                  c21b13e0    00000060                   : BIOS.obj (.text:ti_sysbios_utils_Load_getGlobalSwiLoad__E)
                  c21b1440    00000060     rts6740_elf.lib : write.c.obj (.text:write)
                  c21b14a0    00000060     Local_pe674.oe674 (.text:xdc_runtime_Error_raiseX__E)
                  c21b1500    00000060     Local_pe674.oe674 (.text:xdc_runtime_LoggerSys_Handle__label__S)
                  c21b1560    00000060     ti.targets.rts6000.ae674 : LoggerSys.oe674 (.text:xdc_runtime_LoggerSys_write0__F)
                  c21b15c0    00000060                              : LoggerSys.oe674 (.text:xdc_runtime_LoggerSys_write1__F)
                  c21b1620    00000060     Local_pe674.oe674 (.text:xdc_runtime_LoggerSys_write4__E)
                  c21b1680    00000060     ti.targets.rts6000.ae674 : Memory.oe674 (.text:xdc_runtime_Memory_calloc__F)
                  c21b16e0    00000060                              : SysMin.oe674 (.text:xdc_runtime_SysMin_Module_startup__F)
                  c21b1740    00000060                              : SysMin.oe674 (.text:xdc_runtime_SysMin_exit__F)
                  c21b17a0    00000060                              : System.oe674 (.text:xdc_runtime_System_avprintf__F)
                  c21b1800    00000060                              : System.oe674 (.text:xdc_runtime_System_vprintf__F)
                  c21b1860    00000060                              : Text.oe674 (.text:xdc_runtime_Text_cordText__F)
                  c21b18c0    00000040     main.obj (.text:FunctionHook)
                  c21b1900    00000040     os.ae674 : task.oe674 (.text:NDK_hookExit)
                  c21b1940    00000040     rts6740_elf.lib : frcmpyd_div.c.obj (.text:__TI_frcmpyd_div)
                  c21b1980    00000040                     : isinf.c.obj (.text:__c6xabi_isinf)
                  c21b19c0    00000040                     : _printfi.c.obj (.text:__c6xabi_isnan)
                  c21b1a00    00000040                     : strasg.asm.obj (.text:__strasgi_64plus)
                  c21b1a40    00000040                     : args_main.c.obj (.text:_args_main)
                  c21b1a80    00000040                     : snprintf.c.obj (.text:_outc)
                  c21b1ac0    00000040                     : sprintf.c.obj (.text:_outs)
                  c21b1b00    00000040                     : vsprintf.c.obj (.text:_outs)
                  c21b1b40    00000040     sysbios.ae674 : c62_TaskSupport_asm.obj (.text:_ti_sysbios_family_c62_TaskSupport_buildTaskStack)
                  c21b1b80    00000040                   : c64p_Hwi_asm_switch.obj (.text:_ti_sysbios_family_xxx_Hwi_switchToIsrStack)
                  c21b1bc0    00000040                   : BIOS.obj (.text:emifRange$6)
                  c21b1c00    00000040     Local_pe674.oe674 (.text:free)
                  c21b1c40    00000040     lv_draw.obj (.text)
                  c21b1c80    00000040     lv_extra.obj (.text)
                  c21b1cc0    00000040     rts6740_elf.lib : strlen.c.obj (.text:strlen)
                  c21b1d00    00000040     sysbios.ae674 : BIOS.obj (.text:ti_sysbios_BIOS_exit__E)
                  c21b1d40    00000040                   : BIOS.obj (.text:ti_sysbios_BIOS_getCpuFreq__E)
                  c21b1d80    00000040                   : BIOS.obj (.text:ti_sysbios_BIOS_registerRTSLock__I)
                  c21b1dc0    00000040                   : BIOS.obj (.text:ti_sysbios_BIOS_removeRTSLock__I)
                  c21b1e00    00000040                   : BIOS.obj (.text:ti_sysbios_BIOS_setThreadType__E)
                  c21b1e40    00000040     Local_pe674.oe674 (.text:ti_sysbios_BIOS_startFunc__I)
                  c21b1e80    00000040     sysbios.ae674 : BIOS.obj (.text:ti_sysbios_family_c62_TaskSupport_checkStack__E)
                  c21b1ec0    00000040                   : BIOS.obj (.text:ti_sysbios_family_c64p_Cache_wbInv__E)
                  c21b1f00    00000040     Local_pe674.oe674 (.text:ti_sysbios_family_c64p_EventCombiner_dispatchPlug__E)
                  c21b1f40    00000040     sysbios.ae674 : BIOS.obj (.text:ti_sysbios_family_c64p_Exception_evtEvtClear__E)
                  c21b1f80    00000040     Local_pe674.oe674 (.text:ti_sysbios_family_c64p_Hwi_Module__startupDone__F)
                  c21b1fc0    00000040     Local_pe674.oe674 (.text:ti_sysbios_family_c64p_Hwi_Object__delete__S)
                  c21b2000    00000040     Local_pe674.oe674 (.text:ti_sysbios_family_c64p_Hwi_Params__init__S)
                  c21b2040    00000040     sysbios.ae674 : BIOS.obj (.text:ti_sysbios_family_c64p_Hwi_clearInterrupt__E)
                  c21b2080    00000040                   : BIOS.obj (.text:ti_sysbios_family_c64p_Hwi_disableInterrupt__E)
                  c21b20c0    00000040                   : BIOS.obj (.text:ti_sysbios_family_c64p_Hwi_dispatchC__I)
                  c21b2100    00000040                   : BIOS.obj (.text:ti_sysbios_family_c64p_Hwi_enableInterrupt__E)
                  c21b2140    00000040                   : BIOS.obj (.text:ti_sysbios_family_c64p_Hwi_getIsrStackAddress__I)
                  c21b2180    00000040                   : BIOS.obj (.text:ti_sysbios_family_c64p_TimestampProvider_get64__E)
                  c21b21c0    00000040     Local_pe674.oe674 (.text:ti_sysbios_gates_GateHwi_Object__delete__S)
                  c21b2200    00000040     sysbios.ae674 : BIOS.obj (.text:ti_sysbios_gates_GateHwi_enter__E)
                  c21b2240    00000040                   : BIOS.obj (.text:ti_sysbios_gates_GateMutex_Instance_State_sem$28)
                  c21b2280    00000040                   : BIOS.obj (.text:ti_sysbios_gates_GateMutex_Instance_finalize__F)
                  c21b22c0    00000040                   : BIOS.obj (.text:ti_sysbios_gates_GateMutex_Instance_init__F)
                  c21b2300    00000040     Local_pe674.oe674 (.text:ti_sysbios_gates_GateMutex_Object__delete__S)
                  c21b2340    00000040     sysbios.ae674 : BIOS.obj (.text:ti_sysbios_gates_GateMutex_leave__E)
                  c21b2380    00000040     Local_pe674.oe674 (.text:ti_sysbios_hal_Hwi_HwiProxy_Object__create__S)
                  c21b23c0    00000040     sysbios.ae674 : BIOS.obj (.text:ti_sysbios_hal_Hwi_HwiProxy_create$7)
                  c21b2400    00000040     Local_pe674.oe674 (.text:ti_sysbios_hal_Hwi_HwiProxy_getStackInfo__E)
                  c21b2440    00000040     sysbios.ae674 : BIOS.obj (.text:ti_sysbios_hal_Hwi_Instance_finalize__F)
                  c21b2480    00000040     Local_pe674.oe674 (.text:ti_sysbios_hal_Hwi_Object__delete__S)
                  c21b24c0    00000040     Local_pe674.oe674 (.text:ti_sysbios_hal_Hwi_Params__init__S)
                  c21b2500    00000040     sysbios.ae674 : BIOS.obj (.text:ti_sysbios_hal_Hwi_Params_copy$26)
                  c21b2540    00000040                   : BIOS.obj (.text:ti_sysbios_hal_Hwi_create$26)
                  c21b2580    00000040                   : BIOS.obj (.text:ti_sysbios_hal_Hwi_getStackInfo__E)
                  c21b25c0    00000040     Local_pe674.oe674 (.text:ti_sysbios_hal_Timer_Module__startupDone__F)
                  c21b2600    00000040     Local_pe674.oe674 (.text:ti_sysbios_heaps_HeapMem_Object__delete__S)
                  c21b2640    00000040     sysbios.ae674 : BIOS.obj (.text:ti_sysbios_heaps_HeapMem_restore__E)
                  c21b2680    00000040                   : BIOS.obj (.text:ti_sysbios_knl_Clock_Module_State_clockQ$14)
                  c21b26c0    00000040     Local_pe674.oe674 (.text:ti_sysbios_knl_Clock_Module_State_clockQ)
                  c21b2700    00000040     sysbios.ae674 : BIOS.obj (.text:ti_sysbios_knl_Clock_Module_startup__F)
                  c21b2740    00000040     Local_pe674.oe674 (.text:ti_sysbios_knl_Clock_Params__init__S)
                  c21b2780    00000040     Local_pe674.oe674 (.text:ti_sysbios_knl_Clock_create)
                  c21b27c0    00000040     sysbios.ae674 : BIOS.obj (.text:ti_sysbios_knl_Clock_startI__E)
                  c21b2800    00000040     Local_pe674.oe674 (.text:ti_sysbios_knl_Queue_Object__destruct__S)
                  c21b2840    00000040     Local_pe674.oe674 (.text:ti_sysbios_knl_Queue_Object__get__S)
                  c21b2880    00000040     sysbios.ae674 : BIOS.obj (.text:ti_sysbios_knl_Queue_construct$19)
                  c21b28c0    00000040                   : BIOS.obj (.text:ti_sysbios_knl_Queue_dequeue__E)
                  c21b2900    00000040                   : BIOS.obj (.text:ti_sysbios_knl_Queue_empty__E)
                  c21b2940    00000040                   : BIOS.obj (.text:ti_sysbios_knl_Queue_enqueue__E)
                  c21b2980    00000040                   : BIOS.obj (.text:ti_sysbios_knl_Queue_remove__E)
                  c21b29c0    00000040                   : BIOS.obj (.text:ti_sysbios_knl_Semaphore_Instance_State_pendQ$19)
                  c21b2a00    00000040                   : BIOS.obj (.text:ti_sysbios_knl_Semaphore_Instance_finalize__F)
                  c21b2a40    00000040     Local_pe674.oe674 (.text:ti_sysbios_knl_Semaphore_Object__destruct__S)
                  c21b2a80    00000040     Local_pe674.oe674 (.text:ti_sysbios_knl_Semaphore_Params__init__S)
                  c21b2ac0    00000040     sysbios.ae674 : BIOS.obj (.text:ti_sysbios_knl_Semaphore_construct$28)
                  c21b2b00    00000040     Local_pe674.oe674 (.text:ti_sysbios_knl_Swi_Params__init__S)
                  c21b2b40    00000040     sysbios.ae674 : BIOS.obj (.text:ti_sysbios_knl_Swi_disable__E)
                  c21b2b80    00000040                   : BIOS.obj (.text:ti_sysbios_knl_Task_Module_State_inactiveQ$22)
                  c21b2bc0    00000040                   : BIOS.obj (.text:ti_sysbios_knl_Task_Module_State_terminatedQ$22)
                  c21b2c00    00000040     Local_pe674.oe674 (.text:ti_sysbios_knl_Task_Object__delete__S)
                  c21b2c40    00000040     Local_pe674.oe674 (.text:ti_sysbios_knl_Task_Object__first__S)
                  c21b2c80    00000040     Local_pe674.oe674 (.text:ti_sysbios_knl_Task_Object__get__S)
                  c21b2cc0    00000040     Local_pe674.oe674 (.text:ti_sysbios_knl_Task_Object__next__S)
                  c21b2d00    00000040     Local_pe674.oe674 (.text:ti_sysbios_knl_Task_Params__init__S)
                  c21b2d40    00000040     sysbios.ae674 : BIOS.obj (.text:ti_sysbios_knl_Task_disable__E)
                  c21b2d80    00000040                   : BIOS.obj (.text:ti_sysbios_knl_Task_enabled__E)
                  c21b2dc0    00000040                   : BIOS.obj (.text:ti_sysbios_knl_Task_enter__I)
                  c21b2e00    00000040                   : BIOS.obj (.text:ti_sysbios_knl_Task_restoreHwi__E)
                  c21b2e40    00000040                   : BIOS.obj (.text:ti_sysbios_knl_Task_setHookContext__E)
                  c21b2e80    00000040                   : BIOS.obj (.text:ti_sysbios_knl_Task_unblock__E)
                  c21b2ec0    00000040     Local_pe674.oe674 (.text:ti_sysbios_timers_timer64_Timer_Module__startupDone__F)
                  c21b2f00    00000040     Local_pe674.oe674 (.text:ti_sysbios_timers_timer64_Timer_Params__init__S)
                  c21b2f40    00000040     sysbios.ae674 : BIOS.obj (.text:ti_sysbios_timers_timer64_Timer_checkOverflow__I)
                  c21b2f80    00000040                   : BIOS.obj (.text:ti_sysbios_timers_timer64_Timer_postInit__I)
                  c21b2fc0    00000040                   : BIOS.obj (.text:ti_sysbios_utils_Load_Module_State_taskList$24)
                  c21b3000    00000040     rts6740_elf.lib : vsprintf.c.obj (.text:vsprintf)
                  c21b3040    00000040                     : wcslen.c.obj (.text:wcslen)
                  c21b3080    00000040     ti.targets.rts6000.ae674 : Error.oe674 (.text:xdc_runtime_Error_check__F)
                  c21b30c0    00000040                              : Error.oe674 (.text:xdc_runtime_Error_init__F)
                  c21b3100    00000040     Local_pe674.oe674 (.text:xdc_runtime_IHeap_alloc)
                  c21b3140    00000040     Local_pe674.oe674 (.text:xdc_runtime_IHeap_free)
                  c21b3180    00000040     Local_pe674.oe674 (.text:xdc_runtime_LoggerSys_Object__delete__S)
                  c21b31c0    00000040     Local_pe674.oe674 (.text:xdc_runtime_LoggerSys_write0__E)
                  c21b3200    00000040     Local_pe674.oe674 (.text:xdc_runtime_LoggerSys_write1__E)
                  c21b3240    00000040     Local_pe674.oe674 (.text:xdc_runtime_LoggerSys_write2__E)
                  c21b3280    00000040     ti.targets.rts6000.ae674 : LoggerSys.oe674 (.text:xdc_runtime_LoggerSys_write2__F)
                  c21b32c0    00000040                              : LoggerSys.oe674 (.text:xdc_runtime_LoggerSys_write4__F)
                  c21b3300    00000040                              : Memory.oe674 (.text:xdc_runtime_Memory_free__F)
                  c21b3340    00000040                              : Registry.oe674 (.text:xdc_runtime_Registry_findById__F)
                  c21b3380    00000040     Local_pe674.oe674 (.text:xdc_runtime_Startup_exec__I)
                  c21b33c0    00000040     ti.targets.rts6000.ae674 : System.oe674 (.text:xdc_runtime_System_abort__F)
                  c21b3400    00000040     Local_pe674.oe674 (.text:xdc_runtime_System_aprintf__E)
                  c21b3440    00000040     Local_pe674.oe674 (.text:xdc_runtime_System_printf__E)
                  c21b3480    00000040     ti.targets.rts6000.ae674 : System.oe674 (.text:xdc_runtime_System_putch__F)
                  c21b34c0    00000040     Local_pe674.oe674 (.text:xdc_runtime_Text_putMod__E)
                  c21b3500    00000040     ti.targets.rts6000.ae674 : Text.oe674 (.text:xdc_runtime_Text_ropeText__F)
                  c21b3540    00000040     Local_pe674.oe674 (.text:xdc_runtime_Text_visitRope__I)
                  c21b3580    00000020     hal_userled_stub.ae674 : llled.oe674 (.text:LED_TOGGLE)
                  c21b35a0    00000020     os.ae674 : task.oe674 (.text:NDK_hookInit)
                  c21b35c0    00000020              : semaphore.oe674 (.text:SemPost)
                  c21b35e0    00000020     rts6740_elf.lib : errno.c.obj (.text:__c6xabi_errno_addr)
                  c21b3600    00000020                     : dtor_list.c.obj (.text:__cxa_ia64_exit)
                  c21b3620    00000020                     : push.asm.obj (.text:__pop_rts)
                  c21b3640    00000020                     : push.asm.obj (.text:__push_rts)
                  c21b3660    00000020                     : sscanf.c.obj (.text:_inpchar)
                  c21b3680    00000020                     : _lock.c.obj (.text:_nop)
                  c21b36a0    00000020                     : printf.c.obj (.text:_outc)
                  c21b36c0    00000020                     : sprintf.c.obj (.text:_outc)
                  c21b36e0    00000020                     : vsprintf.c.obj (.text:_outc)
                  c21b3700    00000020                     : printf.c.obj (.text:_outs)
                  c21b3720    00000020                     : _lock.c.obj (.text:_register_lock)
                  c21b3740    00000020                     : _lock.c.obj (.text:_register_unlock)
                  c21b3760    00000020                     : signbit.c.obj (.text:_signbit)
                  c21b3780    00000020     sysbios.ae674 : c62_TaskSupport_asm.obj (.text:_ti_sysbios_family_c62_TaskSupport_glue)
                  c21b37a0    00000020                   : c64p_Hwi_asm_switch.obj (.text:_ti_sysbios_family_xxx_Hwi_switchToTaskStack)
                  c21b37c0    00000020     rts6740_elf.lib : sscanf.c.obj (.text:_uninpchar)
                  c21b37e0    00000020                     : exit.c.obj (.text:abort)
                  c21b3800    00000020                     : dtor_list.c.obj (.text:atexit)
                  c21b3820    00000020                     : copy_decompress_none.c.obj (.text:decompress:none:__TI_decompress_none)
                  c21b3840    00000020                     : copy_decompress_rle.c.obj (.text:decompress:rle24:__TI_decompress_rle24)
                  c21b3860    00000020     Local_pe674.oe674 (.text:ti_ndk_config_global_taskCreateHook)
                  c21b3880    00000020     Local_pe674.oe674 (.text:ti_ndk_config_global_taskExitHook)
                  c21b38a0    00000020     Local_pe674.oe674 (.text:ti_sysbios_BIOS_RtsGateProxy_enter__E)
                  c21b38c0    00000020     Local_pe674.oe674 (.text:ti_sysbios_BIOS_RtsGateProxy_leave__E)
                  c21b38e0    00000020     sysbios.ae674 : BIOS.obj (.text:ti_sysbios_BIOS_getThreadType__E)
                  c21b3900    00000020                   : BIOS.obj (.text:ti_sysbios_BIOS_nullFunc__I)
                  c21b3920    00000020                   : BIOS.obj (.text:ti_sysbios_BIOS_start__E)
                  c21b3940    00000020     Local_pe674.oe674 (.text:ti_sysbios_family_c62_TaskSupport_Module__startupDone__S)
                  c21b3960    00000020     sysbios.ae674 : BIOS.obj (.text:ti_sysbios_family_c62_TaskSupport_getStackAlignment__E)
                  c21b3980    00000020     Local_pe674.oe674 (.text:ti_sysbios_family_c64p_Cache_Module_startup__E)
                  c21b39a0    00000020     sysbios.ae674 : BIOS.obj (.text:ti_sysbios_family_c64p_Cache_invL1pAll__E)
                  c21b39c0    00000020                   : BIOS.obj (.text:ti_sysbios_family_c64p_Cache_wbInvAll__E)
                  c21b39e0    00000020     Local_pe674.oe674 (.text:ti_sysbios_family_c64p_EventCombiner_Module_startup__E)
                  c21b3a00    00000020     Local_pe674.oe674 (.text:ti_sysbios_family_c64p_EventCombiner_disableEvent__E)
                  c21b3a20    00000020     Local_pe674.oe674 (.text:ti_sysbios_family_c64p_EventCombiner_dispatch__E)
                  c21b3a40    00000020     Local_pe674.oe674 (.text:ti_sysbios_family_c64p_EventCombiner_unused__E)
                  c21b3a60    00000020     Local_pe674.oe674 (.text:ti_sysbios_family_c64p_Exception_Module_startup__E)
                  c21b3a80    00000020     Local_pe674.oe674 (.text:ti_sysbios_family_c64p_Hwi_Module__startupDone__S)
                  c21b3aa0    00000020     Local_pe674.oe674 (.text:ti_sysbios_family_c64p_Hwi_Module_startup__E)
                  c21b3ac0    00000020     sysbios.ae674 : BIOS.obj (.text:ti_sysbios_family_c64p_Hwi_startup__E)
                  c21b3ae0    00000020                   : BIOS.obj (.text:ti_sysbios_family_c64p_Hwi_switchFromBootStack__E)
                  c21b3b00    00000020                   : BIOS.obj (.text:ti_sysbios_family_c64p_Hwi_unPluggedInterrupt__I)
                  c21b3b20    00000020     Local_pe674.oe674 (.text:ti_sysbios_family_c64p_TimestampProvider_Module_startup__E)
                  c21b3b40    00000020     sysbios.ae674 : BIOS.obj (.text:ti_sysbios_family_c64p_TimestampProvider_Module_startup__F)
                  c21b3b60    00000020                   : BIOS.obj (.text:ti_sysbios_family_c64p_TimestampProvider_get32__E)
                  c21b3b80    00000020                   : BIOS.obj (.text:ti_sysbios_family_c64p_TimestampProvider_getFreq__E)
                  c21b3ba0    00000020                   : BIOS.obj (.text:ti_sysbios_gates_GateHwi_Instance_init__F)
                  c21b3bc0    00000020                   : BIOS.obj (.text:ti_sysbios_gates_GateHwi_leave__E)
                  c21b3be0    00000020     Local_pe674.oe674 (.text:ti_sysbios_gates_GateHwi_query__E)
                  c21b3c00    00000020     sysbios.ae674 : BIOS.obj (.text:ti_sysbios_gates_GateHwi_query__F)
                  c21b3c20    00000020     Local_pe674.oe674 (.text:ti_sysbios_gates_GateMutex_query__E)
                  c21b3c40    00000020     sysbios.ae674 : BIOS.obj (.text:ti_sysbios_gates_GateMutex_query__F)
                  c21b3c60    00000020     Local_pe674.oe674 (.text:ti_sysbios_hal_Hwi_HwiProxy_Module__startupDone__S)
                  c21b3c80    00000020     Local_pe674.oe674 (.text:ti_sysbios_hal_Hwi_HwiProxy_Object__delete__S)
                  c21b3ca0    00000020     Local_pe674.oe674 (.text:ti_sysbios_hal_Hwi_HwiProxy_clearInterrupt__E)
                  c21b3cc0    00000020     sysbios.ae674 : BIOS.obj (.text:ti_sysbios_hal_Hwi_HwiProxy_delete$7)
                  c21b3ce0    00000020     Local_pe674.oe674 (.text:ti_sysbios_hal_Hwi_HwiProxy_disableInterrupt__E)
                  c21b3d00    00000020     Local_pe674.oe674 (.text:ti_sysbios_hal_Hwi_HwiProxy_enableInterrupt__E)
                  c21b3d20    00000020     Local_pe674.oe674 (.text:ti_sysbios_hal_Hwi_HwiProxy_startup__E)
                  c21b3d40    00000020     Local_pe674.oe674 (.text:ti_sysbios_hal_Hwi_HwiProxy_switchFromBootStack__E)
                  c21b3d60    00000020     Local_pe674.oe674 (.text:ti_sysbios_hal_Hwi_Module_startup__E)
                  c21b3d80    00000020     sysbios.ae674 : BIOS.obj (.text:ti_sysbios_hal_Hwi_Module_startup__F)
                  c21b3da0    00000020                   : BIOS.obj (.text:ti_sysbios_hal_Hwi_Params_init$26)
                  c21b3dc0    00000020                   : BIOS.obj (.text:ti_sysbios_hal_Hwi_clearInterrupt__E)
                  c21b3de0    00000020                   : BIOS.obj (.text:ti_sysbios_hal_Hwi_delete$26)
                  c21b3e00    00000020                   : BIOS.obj (.text:ti_sysbios_hal_Hwi_disableInterrupt__E)
                  c21b3e20    00000020                   : BIOS.obj (.text:ti_sysbios_hal_Hwi_enableInterrupt__E)
                  c21b3e40    00000020                   : BIOS.obj (.text:ti_sysbios_hal_Hwi_startup__E)
                  c21b3e60    00000020                   : BIOS.obj (.text:ti_sysbios_hal_Hwi_switchFromBootStack__E)
                  c21b3e80    00000020     Local_pe674.oe674 (.text:ti_sysbios_hal_Timer_Module__startupDone__S)
                  c21b3ea0    00000020     Local_pe674.oe674 (.text:ti_sysbios_hal_Timer_Module_startup__E)
                  c21b3ec0    00000020     sysbios.ae674 : BIOS.obj (.text:ti_sysbios_hal_Timer_Module_startup__F)
                  c21b3ee0    00000020     Local_pe674.oe674 (.text:ti_sysbios_hal_Timer_TimerProxy_Module__startupDone__S)
                  c21b3f00    00000020     Local_pe674.oe674 (.text:ti_sysbios_hal_Timer_TimerProxy_getPeriod__E)
                  c21b3f20    00000020     Local_pe674.oe674 (.text:ti_sysbios_hal_Timer_TimerProxy_startup__E)
                  c21b3f40    00000020     sysbios.ae674 : BIOS.obj (.text:ti_sysbios_hal_Timer_getPeriod__E)
                  c21b3f60    00000020                   : BIOS.obj (.text:ti_sysbios_hal_Timer_startup__E)
                  c21b3f80    00000020     Local_pe674.oe674 (.text:ti_sysbios_heaps_HeapMem_Module_GateProxy_enter__E)
                  c21b3fa0    00000020     Local_pe674.oe674 (.text:ti_sysbios_heaps_HeapMem_Module_GateProxy_leave__E)
                  c21b3fc0    00000020     Local_pe674.oe674 (.text:ti_sysbios_heaps_HeapMem_Module_GateProxy_query__E)
                  c21b3fe0    00000020     sysbios.ae674 : BIOS.obj (.text:ti_sysbios_heaps_HeapMem_Object_get$23)
                  c21b4000    00000020                   : BIOS.obj (.text:ti_sysbios_heaps_HeapMem_isBlocking__E)
                  c21b4020    00000020     Local_pe674.oe674 (.text:ti_sysbios_knl_Clock_Module_startup__E)
                  c21b4040    00000020     Local_pe674.oe674 (.text:ti_sysbios_knl_Clock_Params_init)
                  c21b4060    00000020     sysbios.ae674 : BIOS.obj (.text:ti_sysbios_knl_Clock_getTicks__E)
                  c21b4080    00000020                   : BIOS.obj (.text:ti_sysbios_knl_Clock_handle$19)
                  c21b40a0    00000020                   : BIOS.obj (.text:ti_sysbios_knl_Clock_handle$22)
                  c21b40c0    00000020                   : BIOS.obj (.text:ti_sysbios_knl_Clock_removeI__E)
                  c21b40e0    00000020                   : BIOS.obj (.text:ti_sysbios_knl_Idle_loop__E)
                  c21b4100    00000020                   : BIOS.obj (.text:ti_sysbios_knl_Queue_Instance_init__F)
                  c21b4120    00000020                   : BIOS.obj (.text:ti_sysbios_knl_Queue_Object_get$20)
                  c21b4140    00000020                   : BIOS.obj (.text:ti_sysbios_knl_Queue_Object_get$22)
                  c21b4160    00000020                   : BIOS.obj (.text:ti_sysbios_knl_Queue_destruct$19)
                  c21b4180    00000020                   : BIOS.obj (.text:ti_sysbios_knl_Queue_elemClear__E)
                  c21b41a0    00000020                   : BIOS.obj (.text:ti_sysbios_knl_Queue_head__E)
                  c21b41c0    00000020                   : BIOS.obj (.text:ti_sysbios_knl_Queue_insert__E)
                  c21b41e0    00000020                   : BIOS.obj (.text:ti_sysbios_knl_Queue_next__E)
                  c21b4200    00000020                   : BIOS.obj (.text:ti_sysbios_knl_Queue_struct$19)
                  c21b4220    00000020                   : BIOS.obj (.text:ti_sysbios_knl_Semaphore_destruct$28)
                  c21b4240    00000020                   : BIOS.obj (.text:ti_sysbios_knl_Semaphore_struct$28)
                  c21b4260    00000020     Local_pe674.oe674 (.text:ti_sysbios_knl_Swi_Module_startup__E)
                  c21b4280    00000020     sysbios.ae674 : BIOS.obj (.text:ti_sysbios_knl_Swi_Object_get$20)
                  c21b42a0    00000020                   : BIOS.obj (.text:ti_sysbios_knl_Swi_enabled__E)
                  c21b42c0    00000020                   : BIOS.obj (.text:ti_sysbios_knl_Swi_startup__E)
                  c21b42e0    00000020     Local_pe674.oe674 (.text:ti_sysbios_knl_Task_Module_startup__E)
                  c21b4300    00000020     sysbios.ae674 : BIOS.obj (.text:ti_sysbios_knl_Task_Object_first$22)
                  c21b4320    00000020                   : BIOS.obj (.text:ti_sysbios_knl_Task_Object_get$22)
                  c21b4340    00000020                   : BIOS.obj (.text:ti_sysbios_knl_Task_Object_next$22)
                  c21b4360    00000020     Local_pe674.oe674 (.text:ti_sysbios_knl_Task_SupportProxy_Module__startupDone__S)
                  c21b4380    00000020     Local_pe674.oe674 (.text:ti_sysbios_knl_Task_SupportProxy_checkStack__E)
                  c21b43a0    00000020     Local_pe674.oe674 (.text:ti_sysbios_knl_Task_SupportProxy_getStackAlignment__E)
                  c21b43c0    00000020     Local_pe674.oe674 (.text:ti_sysbios_knl_Task_SupportProxy_start__E)
                  c21b43e0    00000020     Local_pe674.oe674 (.text:ti_sysbios_knl_Task_SupportProxy_swap__E)
                  c21b4400    00000020     sysbios.ae674 : BIOS.obj (.text:ti_sysbios_knl_Task_delete$22)
                  c21b4420    00000020                   : BIOS.obj (.text:ti_sysbios_knl_Task_getHookContext__E)
                  c21b4440    00000020                   : BIOS.obj (.text:ti_sysbios_knl_Task_getIdleTask__E)
                  c21b4460    00000020                   : BIOS.obj (.text:ti_sysbios_knl_Task_getPri__E)
                  c21b4480    00000020                   : BIOS.obj (.text:ti_sysbios_knl_Task_handle$22)
                  c21b44a0    00000020                   : BIOS.obj (.text:ti_sysbios_knl_Task_self__E)
                  c21b44c0    00000020                   : BIOS.obj (.text:ti_sysbios_knl_Task_startup__E)
                  c21b44e0    00000020     Local_pe674.oe674 (.text:ti_sysbios_timers_timer64_Timer_Module__startupDone__S)
                  c21b4500    00000020     Local_pe674.oe674 (.text:ti_sysbios_timers_timer64_Timer_Module_startup__E)
                  c21b4520    00000020     Local_pe674.oe674 (.text:ti_sysbios_timers_timer64_Timer_TimerSupportProxy_enable__E)
                  c21b4540    00000020     sysbios.ae674 : BIOS.obj (.text:ti_sysbios_utils_Load_getCPULoad__E)
                  c21b4560    00000020                   : BIOS.obj (.text:ti_sysbios_utils_Load_taskRegHook__E)
                  c21b4580    00000020     Local_pe674.oe674 (.text:ti_sysbios_utils_Load_update__E)
                  c21b45a0    00000020     Local_pe674.oe674 (.text:xdc_iargToPtr)
                  c21b45c0    00000020     Local_pe674.oe674 (.text:xdc_runtime_Error_check__E)
                  c21b45e0    00000020     Local_pe674.oe674 (.text:xdc_runtime_Error_init__E)
                  c21b4600    00000020     Local_pe674.oe674 (.text:xdc_runtime_Error_print__E)
                  c21b4620    00000020     Local_pe674.oe674 (.text:xdc_runtime_Gate_enterSystem__E)
                  c21b4640    00000020     ti.targets.rts6000.ae674 : Gate.oe674 (.text:xdc_runtime_Gate_enterSystem__F)
                  c21b4660    00000020     Local_pe674.oe674 (.text:xdc_runtime_Gate_leaveSystem__E)
                  c21b4680    00000020     ti.targets.rts6000.ae674 : Gate.oe674 (.text:xdc_runtime_Gate_leaveSystem__F)
                  c21b46a0    00000020     Local_pe674.oe674 (.text:xdc_runtime_Log_doPrint__E)
                  c21b46c0    00000020     ti.targets.rts6000.ae674 : LoggerSys.oe674 (.text:xdc_runtime_LoggerSys_Instance_init__F)
                  c21b46e0    00000020     Local_pe674.oe674 (.text:xdc_runtime_LoggerSys_TimestampProxy_get64__E)
                  c21b4700    00000020     Local_pe674.oe674 (.text:xdc_runtime_LoggerSys_disable__E)
                  c21b4720    00000020     ti.targets.rts6000.ae674 : LoggerSys.oe674 (.text:xdc_runtime_LoggerSys_disable__F)
                  c21b4740    00000020     Local_pe674.oe674 (.text:xdc_runtime_LoggerSys_enable__E)
                  c21b4760    00000020     ti.targets.rts6000.ae674 : LoggerSys.oe674 (.text:xdc_runtime_LoggerSys_enable__F)
                  c21b4780    00000020     Local_pe674.oe674 (.text:xdc_runtime_Memory_HeapProxy_alloc__E)
                  c21b47a0    00000020     Local_pe674.oe674 (.text:xdc_runtime_Memory_HeapProxy_free__E)
                  c21b47c0    00000020     Local_pe674.oe674 (.text:xdc_runtime_Memory_alloc__E)
                  c21b47e0    00000020     Local_pe674.oe674 (.text:xdc_runtime_Memory_calloc__E)
                  c21b4800    00000020     Local_pe674.oe674 (.text:xdc_runtime_Memory_free__E)
                  c21b4820    00000020     Local_pe674.oe674 (.text:xdc_runtime_Registry_findById__E)
                  c21b4840    00000020     Local_pe674.oe674 (.text:xdc_runtime_Startup_exec__E)
                  c21b4860    00000020     Local_pe674.oe674 (.text:xdc_runtime_Startup_reset__I)
                  c21b4880    00000020     Local_pe674.oe674 (.text:xdc_runtime_SysMin_Module_startup__E)
                  c21b48a0    00000020     Local_pe674.oe674 (.text:xdc_runtime_SysMin_abort__E)
                  c21b48c0    00000020     Local_pe674.oe674 (.text:xdc_runtime_SysMin_exit__E)
                  c21b48e0    00000020     Local_pe674.oe674 (.text:xdc_runtime_SysMin_output__I)
                  c21b4900    00000020     Local_pe674.oe674 (.text:xdc_runtime_SysMin_putch__E)
                  c21b4920    00000020     Local_pe674.oe674 (.text:xdc_runtime_SysMin_ready__E)
                  c21b4940    00000020     ti.targets.rts6000.ae674 : SysMin.oe674 (.text:xdc_runtime_SysMin_ready__F)
                  c21b4960    00000020     Local_pe674.oe674 (.text:xdc_runtime_System_Module_GateProxy_enter__E)
                  c21b4980    00000020     Local_pe674.oe674 (.text:xdc_runtime_System_Module_GateProxy_leave__E)
                  c21b49a0    00000020     Local_pe674.oe674 (.text:xdc_runtime_System_Module_startup__E)
                  c21b49c0    00000020     ti.targets.rts6000.ae674 : System.oe674 (.text:xdc_runtime_System_Module_startup__F)
                  c21b49e0    00000020     Local_pe674.oe674 (.text:xdc_runtime_System_SupportProxy_abort__E)
                  c21b4a00    00000020     Local_pe674.oe674 (.text:xdc_runtime_System_SupportProxy_exit__E)
                  c21b4a20    00000020     Local_pe674.oe674 (.text:xdc_runtime_System_SupportProxy_putch__E)
                  c21b4a40    00000020     Local_pe674.oe674 (.text:xdc_runtime_System_SupportProxy_ready__E)
                  c21b4a60    00000020     Local_pe674.oe674 (.text:xdc_runtime_System_abort__E)
                  c21b4a80    00000020     Local_pe674.oe674 (.text:xdc_runtime_System_atexit__E)
                  c21b4aa0    00000020     Local_pe674.oe674 (.text:xdc_runtime_System_exit__E)
                  c21b4ac0    00000020     ti.targets.rts6000.ae674 : System.oe674 (.text:xdc_runtime_System_exit__F)
                  c21b4ae0    00000020                              : System.oe674 (.text:xdc_runtime_System_lastFxn__I)
                  c21b4b00    00000020     Local_pe674.oe674 (.text:xdc_runtime_System_putch__E)
                  c21b4b20    00000020     Local_pe674.oe674 (.text:xdc_runtime_System_vsnprintf__E)
                  c21b4b40    00000020     ti.targets.rts6000.ae674 : System.oe674 (.text:xdc_runtime_System_vsnprintf__F)
                  c21b4b60    00000020     Local_pe674.oe674 (.text:xdc_runtime_Text_cordText__E)
                  c21b4b80    00000020     Local_pe674.oe674 (.text:xdc_runtime_Text_putLab__E)
                  c21b4ba0    00000020     Local_pe674.oe674 (.text:xdc_runtime_Text_putSite__E)
                  c21b4bc0    00000020     Local_pe674.oe674 (.text:xdc_runtime_Text_ropeText__E)
                  c21b4be0    00000020     Local_pe674.oe674 (.text:xdc_runtime_Timestamp_SupportProxy_get32__E)
                  c21b4c00    00000020     Local_pe674.oe674 (.text:xdc_runtime_Timestamp_SupportProxy_getFreq__E)
                  c21b4c20    00000020     Local_pe674.oe674 (.text:xdc_runtime_Timestamp_get32__E)
                  c21b4c40    00000020     Local_pe674.oe674 (.text:xdc_runtime_Timestamp_getFreq__E)

.const     0    c21b4c60    00009cbe     
                  c21b4c60    00002280     lv_font_montserrat_14.obj (.const:.string:glyph_bitmap)
                  c21b6ee0    00001709     Local_pe674.oe674 (.const:xdc_runtime_Text_charTab__A)
                  c21b85e9    00000001     --HOLE-- [fill = 0]
                  c21b85ea    00000002     Local_pe674.oe674 (.const:ti_sysbios_BIOS_Module__id__C)
                  c21b85ec    00001314     lodepng.obj (.const:.string)
                  c21b9900    00000bad     lv_font_montserrat_14.obj (.const:.string:kern_class_values)
                  c21ba4ad    00000001     --HOLE-- [fill = 0]
                  c21ba4ae    00000002     Local_pe674.oe674 (.const:ti_sysbios_family_c64p_EventCombiner_Module__id__C)
                  c21ba4b0    00000588     sysbios.ae674 : BIOS.obj (.const:.string)
                  c21baa38    000004f0     lv_font_montserrat_14.obj (.const:glyph_dsc)
                  c21baf28    00000400     tjpgd.obj (.const:.string:Clip8)
                  c21bb328    000003d0     LEDMatrix.obj (.const:.string:PRU_Code)
                  c21bb6f8    00000368     Exception.obj (.const:.string)
                  c21bba60    00000350     Command.obj (.const:.string)
                  c21bbdb0    0000028c     lv_calendar_header_dropdown.obj (.const:.string)
                  c21bc03c    000001a8     DDR2.obj (.const:.string)
                  c21bc1e4    00000110     Flash.obj (.const:.string)
                  c21bc2f4    00000004     lv_obj_scroll.obj (.const:$P$T0$1)
                  c21bc2f8    00000101     rts6740_elf.lib : ctype.c.obj (.const:.string:_ctypes_)
                  c21bc3f9    00000001     --HOLE-- [fill = 0]
                  c21bc3fa    00000004     lv_obj_scroll.obj (.const:$P$T1$2)
                  c21bc3fe    00000002     Local_pe674.oe674 (.const:ti_sysbios_family_c64p_Exception_Module__id__C)
                  c21bc400    00000100     lv_draw_sw_letter.obj (.const:.string:_lv_bpp8_opa_table)
                  c21bc500    000000f0     EEPROM.obj (.const:.string)
                  c21bc5f0    000000f0     Local_pe674.oe674 (.const:xdc_runtime_Text_nodeTab__A)
                  c21bc6e0    000000e8     lv_keyboard.obj (.const:.string)
                  c21bc7c8    000000c0     LEDMatrix.obj (.const:.string:PRU_Data)
                  c21bc888    000000be     lv_color.obj (.const:colors$2)
                  c21bc946    00000002     Local_pe674.oe674 (.const:ti_sysbios_family_c64p_Exception_useInternalBuffer__C)
                  c21bc948    000000b6     lv_math.obj (.const:sin0_90_table)
                  c21bc9fe    00000002     Local_pe674.oe674 (.const:ti_sysbios_family_c64p_Hwi_Module__id__C)
                  c21bca00    000000b0     lv_keyboard.obj (.const:default_kb_map_lc)
                  c21bcab0    000000b0     lv_keyboard.obj (.const:default_kb_map_spec)
                  c21bcb60    000000b0     lv_keyboard.obj (.const:default_kb_map_uc)
                  c21bcc10    0000009e     lv_font_montserrat_14.obj (.const:.string:kern_left_class_mapping)
                  c21bccae    00000002     Local_pe674.oe674 (.const:ti_sysbios_family_c64p_Hwi_Module__loggerDefined__C)
                  c21bccb0    0000009e     lv_font_montserrat_14.obj (.const:.string:kern_right_class_mapping)
                  c21bcd4e    00000002     Local_pe674.oe674 (.const:ti_sysbios_gates_GateMutex_Module__id__C)
                  c21bcd50    00000098     lv_color.obj (.const:colors$3)
                  c21bcde8    00000094     Touch.obj (.const:.string)
                  c21bce7c    00000004     lv_obj_pos.obj (.const:$P$T8$2)
                  c21bce80    00000080     tjpgd.obj (.const:Ipsf)
                  c21bcf00    00000080     rts6740_elf.lib : strtod.c.obj (.const:digits)
                  c21bcf80    0000007c     UARTConsole.obj (.const:.string)
                  c21bcffc    00000004     lv_obj_pos.obj (.const:$P$T9$3)
                  c21bd000    0000007c     lv_font_montserrat_14.obj (.const:unicode_list_1)
                  c21bd07c    00000078     main.obj (.const:.string)
                  c21bd0f4    00000004     SysMinProvide.obj (.const:.string)
                  c21bd0f8    00000078     lodepng.obj (.const:DISTANCEBASE)
                  c21bd170    00000078     lodepng.obj (.const:DISTANCEEXTRA)
                  c21bd1e8    00000074     lodepng.obj (.const:LENGTHBASE)
                  c21bd25c    00000004     lv_chart.obj (.const:.string)
                  c21bd260    00000074     lodepng.obj (.const:LENGTHEXTRA)
                  c21bd2d4    00000004     lv_draw_label.obj (.const:.string)
                  c21bd2d8    00000070     lv_style.obj (.const:.string:_lv_style_builtin_prop_flag_lookup_table)
                  c21bd348    0000006c     rts6740_elf.lib : asctime.c.obj (.const:.string)
                  c21bd3b4    00000064     lv_calendar_header_arrow.obj (.const:.string)
                  c21bd418    00000064     Local_pe674.oe674 (.const:ti_sysbios_timers_timer64_Timer_Object__PARAMS__C)
                  c21bd47c    00000058     ti.targets.rts6000.ae674 : Error.oe674 (.const:.string)
                  c21bd4d4    00000004     lv_fs.obj (.const:.string)
                  c21bd4d8    00000054     lv_keyboard.obj (.const:default_kb_map_num)
                  c21bd52c    00000004     lv_img_decoder.obj (.const:.string)
                  c21bd530    00000050     lv_keyboard.obj (.const:default_kb_ctrl_lc_map)
                  c21bd580    00000050     lv_keyboard.obj (.const:default_kb_ctrl_spec_map)
                  c21bd5d0    00000050     lv_keyboard.obj (.const:default_kb_ctrl_uc_map)
                  c21bd620    0000004c     lodepng.obj (.const:CLCL_ORDER)
                  c21bd66c    00000048     Local_pe674.oe674 (.const:.string)
                  c21bd6b4    00000048     ti.targets.rts6000.ae674 : Log.oe674 (.const:.string)
                  c21bd6fc    00000004     lv_menu.obj (.const:.string)
                  c21bd700    00000048     rts6740_elf.lib : strtod.c.obj (.const:powerof10)
                  c21bd748    00000048     Local_pe674.oe674 (.const:ti_sysbios_knl_Task_hooks__A)
                  c21bd790    00000040     tjpgd.obj (.const:.string:Zig)
                  c21bd7d0    00000040     ti.targets.rts6000.ae674 : Text.oe674 (.const:.string)
                  c21bd810    0000003c     Local_pe674.oe674 (.const:ti_sysbios_knl_Task_Object__PARAMS__C)
                  c21bd84c    00000038     SATATest.obj (.const:.string)
                  c21bd884    00000034     lv_refr.obj (.const:.string)
                  c21bd8b8    00000034     Local_pe674.oe674 (.const:xdc_runtime_LoggerSys_Module__FXNS__C)
                  c21bd8ec    00000004     lv_meter.obj (.const:.string)
                  c21bd8f0    00000034     Local_pe674.oe674 (.const:xdc_runtime_Startup_sfxnTab__A)
                  c21bd924    00000030     lv_roller.obj (.const:.string)
                  c21bd954    00000004     lv_obj.obj (.const:.string)
                  c21bd958    00000030     rts6740_elf.lib : asctime.c.obj (.const:mon)
                  c21bd988    00000030     Local_pe674.oe674 (.const:ti_sysbios_family_c64p_Hwi_Object__PARAMS__C)
                  c21bd9b8    0000002c     ti.targets.rts6000.ae674 : Startup.oe674 (.const:.string)
                  c21bd9e4    0000002c     Local_pe674.oe674 (.const:ti_sysbios_hal_Hwi_Object__PARAMS__C)
                  c21bda10    0000002c     lv_theme_default.obj (.const:trans_props$1)
                  c21bda3c    00000004     lv_png.obj (.const:.string)
                  c21bda40    00000028     lv_font_montserrat_14.obj (.const:cmaps)
                  c21bda68    00000028     Local_pe674.oe674 (.const:ti_sysbios_heaps_HeapMem_Module__FXNS__C)
                  c21bda90    00000028     Local_pe674.oe674 (.const:ti_sysbios_knl_Swi_Object__PARAMS__C)
                  c21bdab8    00000026     lv_color.obj (.const:colors$1)
                  c21bdade    00000002     Local_pe674.oe674 (.const:ti_sysbios_hal_Hwi_Module__id__C)
                  c21bdae0    00000024     lv_dropdown.obj (.const:.string)
                  c21bdb04    00000024     rts6740_elf.lib : _printfi.c.obj (.const:.string)
                  c21bdb28    00000024     Local_pe674.oe674 (.const:ti_sysbios_gates_GateHwi_Module__FXNS__C)
                  c21bdb4c    00000024     Local_pe674.oe674 (.const:ti_sysbios_gates_GateMutex_Module__FXNS__C)
                  c21bdb70    00000024     Local_pe674.oe674 (.const:ti_sysbios_heaps_HeapMem_Object__PARAMS__C)
                  c21bdb94    00000024     Local_pe674.oe674 (.const:ti_sysbios_knl_Clock_Object__PARAMS__C)
                  c21bdbb8    00000024     Local_pe674.oe674 (.const:ti_sysbios_knl_Semaphore_Object__PARAMS__C)
                  c21bdbdc    00000004     lv_spinbox.obj (.const:.string)
                  c21bdbe0    00000022     lv_keyboard.obj (.const:default_kb_ctrl_num_map)
                  c21bdc02    00000002     Local_pe674.oe674 (.const:ti_sysbios_heaps_HeapMem_Module__id__C)
                  c21bdc04    00000004     lv_table.obj (.const:.string)
                  c21bdc08    00000021     lv_draw_sw_line.obj (.const:.string:wcorr$1)
                  c21bdc29    00000001     --HOLE-- [fill = 0]
                  c21bdc2a    00000002     Local_pe674.oe674 (.const:ti_sysbios_knl_Clock_Module__id__C)
                  c21bdc2c    00000020     Local_pe674.oe674 (.const:ti_sysbios_family_c64p_Hwi_Object__DESC__C)
                  c21bdc4c    00000020     Local_pe674.oe674 (.const:ti_sysbios_gates_GateHwi_Object__DESC__C)
                  c21bdc6c    00000020     Local_pe674.oe674 (.const:ti_sysbios_gates_GateMutex_Object__DESC__C)
                  c21bdc8c    00000020     Local_pe674.oe674 (.const:ti_sysbios_hal_Hwi_Object__DESC__C)
                  c21bdcac    00000020     Local_pe674.oe674 (.const:ti_sysbios_heaps_HeapMem_Object__DESC__C)
                  c21bdccc    00000020     Local_pe674.oe674 (.const:ti_sysbios_knl_Clock_Object__DESC__C)
                  c21bdcec    00000020     Local_pe674.oe674 (.const:ti_sysbios_knl_Queue_Object__DESC__C)
                  c21bdd0c    00000020     Local_pe674.oe674 (.const:ti_sysbios_knl_Semaphore_Object__DESC__C)
                  c21bdd2c    00000020     Local_pe674.oe674 (.const:ti_sysbios_knl_Swi_Object__DESC__C)
                  c21bdd4c    00000020     Local_pe674.oe674 (.const:ti_sysbios_knl_Task_Object__DESC__C)
                  c21bdd6c    00000020     Local_pe674.oe674 (.const:ti_sysbios_timers_timer64_Timer_Object__DESC__C)
                  c21bdd8c    00000020     Local_pe674.oe674 (.const:xdc_runtime_LoggerSys_Object__DESC__C)
                  c21bddac    0000001c     lv_draw_sw_rect.obj (.const:$P$T0$1)
                  c21bddc8    0000001c     lv_bmp.obj (.const:.string)
                  c21bdde4    0000001c     lv_btnmatrix.obj (.const:.string)
                  c21bde00    0000001c     lv_calendar.obj (.const:.string)
                  c21bde1c    00000004     lv_tabview.obj (.const:.string)
                  c21bde20    0000001c     lodepng.obj (.const:ADAM7_DX)
                  c21bde3c    00000004     lv_theme_default.obj (.const:.string)
                  c21bde40    0000001c     lodepng.obj (.const:ADAM7_DY)
                  c21bde5c    00000004     ti.targets.rts6000.ae674 : Assert.oe674 (.const:.string)
                  c21bde60    0000001c     lodepng.obj (.const:ADAM7_IX)
                  c21bde7c    00000004     Local_pe674.oe674 (.const:ti_sysbios_BIOS_Module__diagsEnabled__C)
                  c21bde80    0000001c     lodepng.obj (.const:ADAM7_IY)
                  c21bde9c    00000004     Local_pe674.oe674 (.const:ti_sysbios_BIOS_Module__diagsIncluded__C)
                  c21bdea0    0000001c     rts6740_elf.lib : asctime.c.obj (.const:day)
                  c21bdebc    0000001c     lv_arc.obj (.const:lv_arc_class)
                  c21bded8    0000001c     lv_bar.obj (.const:lv_bar_class)
                  c21bdef4    0000001c     lv_btn.obj (.const:lv_btn_class)
                  c21bdf10    0000001c     lv_btnmatrix.obj (.const:lv_btnmatrix_class)
                  c21bdf2c    0000001c     lv_calendar.obj (.const:lv_calendar_class)
                  c21bdf48    0000001c     lv_calendar_header_arrow.obj (.const:lv_calendar_header_arrow_class)
                  c21bdf64    0000001c     lv_calendar_header_dropdown.obj (.const:lv_calendar_header_dropdown_class)
                  c21bdf80    0000001c     lv_chart.obj (.const:lv_chart_class)
                  c21bdf9c    0000001c     lv_checkbox.obj (.const:lv_checkbox_class)
                  c21bdfb8    0000001c     lv_colorwheel.obj (.const:lv_colorwheel_class)
                  c21bdfd4    0000001c     lv_dropdown.obj (.const:lv_dropdown_class)
                  c21bdff0    0000001c     lv_dropdown.obj (.const:lv_dropdownlist_class)
                  c21be00c    0000001c     lv_font_montserrat_14.obj (.const:lv_font_montserrat_14)
                  c21be028    0000001c     lv_img.obj (.const:lv_img_class)
                  c21be044    0000001c     lv_keyboard.obj (.const:lv_keyboard_class)
                  c21be060    0000001c     lv_label.obj (.const:lv_label_class)
                  c21be07c    0000001c     lv_led.obj (.const:lv_led_class)
                  c21be098    0000001c     lv_line.obj (.const:lv_line_class)
                  c21be0b4    0000001c     lv_list.obj (.const:lv_list_btn_class)
                  c21be0d0    0000001c     lv_list.obj (.const:lv_list_class)
                  c21be0ec    0000001c     lv_list.obj (.const:lv_list_text_class)
                  c21be108    0000001c     lv_menu.obj (.const:lv_menu_class)
                  c21be124    0000001c     lv_menu.obj (.const:lv_menu_cont_class)
                  c21be140    0000001c     lv_menu.obj (.const:lv_menu_main_cont_class)
                  c21be15c    0000001c     lv_menu.obj (.const:lv_menu_main_header_cont_class)
                  c21be178    0000001c     lv_menu.obj (.const:lv_menu_page_class)
                  c21be194    0000001c     lv_menu.obj (.const:lv_menu_section_class)
                  c21be1b0    0000001c     lv_menu.obj (.const:lv_menu_separator_class)
                  c21be1cc    0000001c     lv_menu.obj (.const:lv_menu_sidebar_cont_class)
                  c21be1e8    0000001c     lv_menu.obj (.const:lv_menu_sidebar_header_cont_class)
                  c21be204    0000001c     lv_meter.obj (.const:lv_meter_class)
                  c21be220    0000001c     lv_msgbox.obj (.const:lv_msgbox_backdrop_class)
                  c21be23c    0000001c     lv_msgbox.obj (.const:lv_msgbox_class)
                  c21be258    0000001c     lv_obj.obj (.const:lv_obj_class)
                  c21be274    0000001c     lv_roller.obj (.const:lv_roller_class)
                  c21be290    0000001c     lv_roller.obj (.const:lv_roller_label_class)
                  c21be2ac    0000001c     lv_slider.obj (.const:lv_slider_class)
                  c21be2c8    0000001c     lv_spinbox.obj (.const:lv_spinbox_class)
                  c21be2e4    0000001c     lv_spinner.obj (.const:lv_spinner_class)
                  c21be300    0000001c     lv_switch.obj (.const:lv_switch_class)
                  c21be31c    0000001c     lv_table.obj (.const:lv_table_class)
                  c21be338    0000001c     lv_tabview.obj (.const:lv_tabview_class)
                  c21be354    0000001c     lv_textarea.obj (.const:lv_textarea_class)
                  c21be370    0000001c     lv_tileview.obj (.const:lv_tileview_class)
                  c21be38c    0000001c     lv_tileview.obj (.const:lv_tileview_tile_class)
                  c21be3a8    0000001c     lv_win.obj (.const:lv_win_class)
                  c21be3c4    00000004     Local_pe674.oe674 (.const:ti_sysbios_BIOS_Module__diagsMask__C)
                  c21be3c8    0000001a     Local_pe674.oe674 (.const:xdc_runtime_Startup_sfxnRts__A)
                  c21be3e2    00000002     Local_pe674.oe674 (.const:ti_sysbios_knl_Clock_Module__loggerDefined__C)
                  c21be3e4    00000018     lv_font_montserrat_14.obj (.const:font_dsc)
                  c21be3fc    00000018     Local_pe674.oe674 (.const:ti_sysbios_gates_GateHwi_Object__PARAMS__C)
                  c21be414    00000018     Local_pe674.oe674 (.const:ti_sysbios_gates_GateMutex_Object__PARAMS__C)
                  c21be42c    00000018     Local_pe674.oe674 (.const:ti_sysbios_knl_Queue_Object__PARAMS__C)
                  c21be444    00000004     Local_pe674.oe674 (.const:ti_sysbios_BIOS_installedErrorHook__C)
                  c21be448    00000018     Local_pe674.oe674 (.const:ti_sysbios_knl_Swi_hooks__A)
                  c21be460    00000018     Local_pe674.oe674 (.const:xdc_runtime_LoggerSys_Object__PARAMS__C)
                  c21be478    00000014     lv_example_get_started_1.obj (.const:.string)
                  c21be48c    00000014     lv_sjpg.obj (.const:.string)
                  c21be4a0    00000014     Local_pe674.oe674 (.const:ti_sysbios_family_c64p_Hwi_hooks__A)
                  c21be4b4    00000004     Local_pe674.oe674 (.const:ti_sysbios_family_c62_TaskSupport_stackAlignment__C)
                  c21be4b8    00000011     ti.targets.rts6000.ae674 : System.oe674 (.const:digtohex)
                  c21be4c9    00000001     --HOLE-- [fill = 0]
                  c21be4ca    00000002     Local_pe674.oe674 (.const:ti_sysbios_knl_Semaphore_Module__id__C)
                  c21be4cc    00000004     Local_pe674.oe674 (.const:ti_sysbios_family_c64p_Cache_EMIFA_BASE__C)
                  c21be4d0    00000010     lv_img_buf.obj (.const:.string:$P$T2$2)
                  c21be4e0    00000010     lv_img_decoder.obj (.const:.string:$P$T3$3)
                  c21be4f0    00000010     lv_draw_sw_letter.obj (.const:.string:_lv_bpp4_opa_table)
                  c21be500    00000010     rts6740_elf.lib : _scanfi.c.obj (.const:.string)
                  c21be510    00000010     lv_font_montserrat_14.obj (.const:kern_classes)
                  c21be520    00000010     Local_pe674.oe674 (.const:ti_sysbios_family_c64p_EventCombiner_EVTMASK__C)
                  c21be530    0000000c     lv_checkbox.obj (.const:.string)
                  c21be53c    0000000c     lv_txt.obj (.const:.string)
                  c21be548    0000000c     Local_pe674.oe674 (.const:ti_sysbios_family_c64p_Cache_initSize__C)
                  c21be554    00000004     Local_pe674.oe674 (.const:ti_sysbios_family_c64p_Cache_EMIFA_CFG__C)
                  c21be558    0000000c     Local_pe674.oe674 (.const:ti_sysbios_knl_Idle_coreList__A)
                  c21be564    00000004     Local_pe674.oe674 (.const:ti_sysbios_family_c64p_Cache_EMIFA_LENGTH__C)
                  c21be568    0000000c     Local_pe674.oe674 (.const:ti_sysbios_knl_Idle_funcList__A)
                  c21be574    00000004     Local_pe674.oe674 (.const:ti_sysbios_family_c64p_Cache_EMIFB_BASE__C)
                  c21be578    0000000a     lv_sjpg.obj (.const:.string:$P$T1$1)
                  c21be582    00000008     lv_draw_sw_polygon.obj (.const:$P$T0$1)
                  c21be58a    00000002     Local_pe674.oe674 (.const:ti_sysbios_knl_Semaphore_Module__loggerDefined__C)
                  c21be58c    00000008     lv_tlsf.obj (.const:$P$T2$1)
                  c21be594    00000004     Local_pe674.oe674 (.const:ti_sysbios_family_c64p_Cache_EMIFB_CFG__C)
                  c21be598    00000008     lv_png.obj (.const:.string:$P$T1$1)
                  c21be5a0    00000008     lodepng.obj (.const:.string:$P$T25$3)
                  c21be5a8    00000008     lv_draw_img.obj (.const:.string)
                  c21be5b0    00000008     lv_label.obj (.const:.string)
                  c21be5b8    00000008     lv_textarea.obj (.const:.string)
                  c21be5c0    00000008     ti.targets.rts6000.ae674 : System.oe674 (.const:.string)
                  c21be5c8    00000008     Local_pe674.oe674 (.const:ti_sysbios_family_c64p_Hwi_hooks__C)
                  c21be5d0    00000008     Local_pe674.oe674 (.const:ti_sysbios_knl_Idle_coreList__C)
                  c21be5d8    00000008     Local_pe674.oe674 (.const:ti_sysbios_knl_Idle_funcList__C)
                  c21be5e0    00000008     Local_pe674.oe674 (.const:ti_sysbios_knl_Swi_hooks__C)
                  c21be5e8    00000008     Local_pe674.oe674 (.const:ti_sysbios_knl_Task_hooks__C)
                  c21be5f0    00000008     Local_pe674.oe674 (.const:xdc_runtime_Startup_firstFxns__A)
                  c21be5f8    00000008     Local_pe674.oe674 (.const:xdc_runtime_Startup_firstFxns__C)
                  c21be600    00000008     Local_pe674.oe674 (.const:xdc_runtime_Startup_lastFxns__C)
                  c21be608    00000007     rts6740_elf.lib : _scanfi.c.obj (.const:.string:flit$1)
                  c21be60f    00000001     --HOLE-- [fill = 0]
                  c21be610    00000006                     : _scanfi.c.obj (.const:.string:barr$2)
                  c21be616    00000002     Local_pe674.oe674 (.const:ti_sysbios_knl_Swi_Module__id__C)
                  c21be618    00000004     lv_img_buf.obj (.const:.string:$P$T1$1)
                  c21be61c    00000004     Local_pe674.oe674 (.const:ti_sysbios_family_c64p_Cache_EMIFB_LENGTH__C)
                  c21be620    00000004     lv_img_decoder.obj (.const:.string:$P$T2$2)
                  c21be624    00000004     Local_pe674.oe674 (.const:ti_sysbios_family_c64p_Cache_EMIFC_BASE__C)
                  c21be628    00000004     lv_draw_sw_letter.obj (.const:.string:_lv_bpp2_opa_table)
                  c21be62c    00000004     Local_pe674.oe674 (.const:ti_sysbios_family_c64p_Cache_EMIFC_CFG__C)
                  c21be630    00000004     Local_pe674.oe674 (.const:ti_sysbios_family_c64p_Cache_EMIFC_LENGTH__C)
                  c21be634    00000004     Local_pe674.oe674 (.const:ti_sysbios_family_c64p_Cache_MAR0_31__C)
                  c21be638    00000004     Local_pe674.oe674 (.const:ti_sysbios_family_c64p_Cache_MAR128_159__C)
                  c21be63c    00000004     Local_pe674.oe674 (.const:ti_sysbios_family_c64p_Cache_MAR160_191__C)
                  c21be640    00000004     Local_pe674.oe674 (.const:ti_sysbios_family_c64p_Cache_MAR192_223__C)
                  c21be644    00000004     Local_pe674.oe674 (.const:ti_sysbios_family_c64p_Cache_MAR224_255__C)
                  c21be648    00000004     Local_pe674.oe674 (.const:ti_sysbios_family_c64p_Cache_MAR32_63__C)
                  c21be64c    00000004     Local_pe674.oe674 (.const:ti_sysbios_family_c64p_Cache_MAR64_95__C)
                  c21be650    00000004     Local_pe674.oe674 (.const:ti_sysbios_family_c64p_Cache_MAR96_127__C)
                  c21be654    00000004     Local_pe674.oe674 (.const:ti_sysbios_family_c64p_EventCombiner_E_unpluggedEvent__C)
                  c21be658    00000004     Local_pe674.oe674 (.const:ti_sysbios_family_c64p_Exception_E_exceptionMax__C)
                  c21be65c    00000004     Local_pe674.oe674 (.const:ti_sysbios_family_c64p_Exception_exceptionHook__C)
                  c21be660    00000004     Local_pe674.oe674 (.const:ti_sysbios_family_c64p_Exception_externalHook__C)
                  c21be664    00000004     Local_pe674.oe674 (.const:ti_sysbios_family_c64p_Exception_internalHook__C)
                  c21be668    00000004     Local_pe674.oe674 (.const:ti_sysbios_family_c64p_Exception_nmiHook__C)
                  c21be66c    00000004     Local_pe674.oe674 (.const:ti_sysbios_family_c64p_Hwi_E_alreadyDefined__C)
                  c21be670    00000004     Local_pe674.oe674 (.const:ti_sysbios_family_c64p_Hwi_E_handleNotFound__C)
                  c21be674    00000004     Local_pe674.oe674 (.const:ti_sysbios_family_c64p_Hwi_LD_end__C)
                  c21be678    00000004     Local_pe674.oe674 (.const:ti_sysbios_family_c64p_Hwi_LM_begin__C)
                  c21be67c    00000004     Local_pe674.oe674 (.const:ti_sysbios_family_c64p_Hwi_Module__diagsEnabled__C)
                  c21be680    00000004     Local_pe674.oe674 (.const:ti_sysbios_family_c64p_Hwi_Module__diagsIncluded__C)
                  c21be684    00000004     Local_pe674.oe674 (.const:ti_sysbios_family_c64p_Hwi_Module__diagsMask__C)
                  c21be688    00000004     Local_pe674.oe674 (.const:ti_sysbios_family_c64p_Hwi_Module__loggerFxn1__C)
                  c21be68c    00000004     Local_pe674.oe674 (.const:ti_sysbios_family_c64p_Hwi_Module__loggerFxn8__C)
                  c21be690    00000004     Local_pe674.oe674 (.const:ti_sysbios_family_c64p_Hwi_Module__loggerObj__C)
                  c21be694    00000004     Local_pe674.oe674 (.const:ti_sysbios_family_c64p_Hwi_Object__heap__C)
                  c21be698    00000004     Local_pe674.oe674 (.const:ti_sysbios_gates_GateMutex_A_badContext__C)
                  c21be69c    00000004     Local_pe674.oe674 (.const:ti_sysbios_gates_GateMutex_Instance_State_sem__O)
                  c21be6a0    00000004     Local_pe674.oe674 (.const:ti_sysbios_gates_GateMutex_Module__diagsEnabled__C)
                  c21be6a4    00000004     Local_pe674.oe674 (.const:ti_sysbios_gates_GateMutex_Module__diagsIncluded__C)
                  c21be6a8    00000004     Local_pe674.oe674 (.const:ti_sysbios_gates_GateMutex_Module__diagsMask__C)
                  c21be6ac    00000004     Local_pe674.oe674 (.const:ti_sysbios_hal_Hwi_E_stackOverflow__C)
                  c21be6b0    00000004     Local_pe674.oe674 (.const:ti_sysbios_heaps_HeapMem_A_align__C)
                  c21be6b4    00000004     Local_pe674.oe674 (.const:ti_sysbios_heaps_HeapMem_A_heapSize__C)
                  c21be6b8    00000004     Local_pe674.oe674 (.const:ti_sysbios_heaps_HeapMem_A_invalidFree__C)
                  c21be6bc    00000004     Local_pe674.oe674 (.const:ti_sysbios_heaps_HeapMem_A_zeroBlock__C)
                  c21be6c0    00000004     Local_pe674.oe674 (.const:ti_sysbios_heaps_HeapMem_E_memory__C)
                  c21be6c4    00000004     Local_pe674.oe674 (.const:ti_sysbios_heaps_HeapMem_Module__diagsEnabled__C)
                  c21be6c8    00000004     Local_pe674.oe674 (.const:ti_sysbios_heaps_HeapMem_Module__diagsIncluded__C)
                  c21be6cc    00000004     Local_pe674.oe674 (.const:ti_sysbios_heaps_HeapMem_Module__diagsMask__C)
                  c21be6d0    00000004     Local_pe674.oe674 (.const:ti_sysbios_heaps_HeapMem_Module__gateObj__C)
                  c21be6d4    00000004     Local_pe674.oe674 (.const:ti_sysbios_heaps_HeapMem_Object__count__C)
                  c21be6d8    00000004     Local_pe674.oe674 (.const:ti_sysbios_heaps_HeapMem_Object__table__C)
                  c21be6dc    00000004     Local_pe674.oe674 (.const:ti_sysbios_heaps_HeapMem_reqAlign__C)
                  c21be6e0    00000004     Local_pe674.oe674 (.const:ti_sysbios_knl_Clock_A_badThreadType__C)
                  c21be6e4    00000004     Local_pe674.oe674 (.const:ti_sysbios_knl_Clock_A_clockDisabled__C)
                  c21be6e8    00000004     Local_pe674.oe674 (.const:ti_sysbios_knl_Clock_LM_begin__C)
                  c21be6ec    00000004     Local_pe674.oe674 (.const:ti_sysbios_knl_Clock_LM_tick__C)
                  c21be6f0    00000004     Local_pe674.oe674 (.const:ti_sysbios_knl_Clock_LW_delayed__C)
                  c21be6f4    00000004     Local_pe674.oe674 (.const:ti_sysbios_knl_Clock_Module_State_clockQ__O)
                  c21be6f8    00000004     Local_pe674.oe674 (.const:ti_sysbios_knl_Clock_Module__diagsEnabled__C)
                  c21be6fc    00000004     Local_pe674.oe674 (.const:ti_sysbios_knl_Clock_Module__diagsIncluded__C)
                  c21be700    00000004     Local_pe674.oe674 (.const:ti_sysbios_knl_Clock_Module__diagsMask__C)
                  c21be704    00000004     Local_pe674.oe674 (.const:ti_sysbios_knl_Clock_Module__loggerFxn1__C)
                  c21be708    00000004     Local_pe674.oe674 (.const:ti_sysbios_knl_Clock_Module__loggerFxn2__C)
                  c21be70c    00000004     Local_pe674.oe674 (.const:ti_sysbios_knl_Clock_Module__loggerObj__C)
                  c21be710    00000004     Local_pe674.oe674 (.const:ti_sysbios_knl_Semaphore_A_badContext__C)
                  c21be714    00000004     Local_pe674.oe674 (.const:ti_sysbios_knl_Semaphore_A_noEvents__C)
                  c21be718    00000004     Local_pe674.oe674 (.const:ti_sysbios_knl_Semaphore_A_overflow__C)
                  c21be71c    00000004     Local_pe674.oe674 (.const:ti_sysbios_knl_Semaphore_A_pendTaskDisabled__C)
                  c21be720    00000004     Local_pe674.oe674 (.const:ti_sysbios_knl_Semaphore_Instance_State_pendQ__O)
                  c21be724    00000004     Local_pe674.oe674 (.const:ti_sysbios_knl_Semaphore_LM_pend__C)
                  c21be728    00000004     Local_pe674.oe674 (.const:ti_sysbios_knl_Semaphore_LM_post__C)
                  c21be72c    00000004     Local_pe674.oe674 (.const:ti_sysbios_knl_Semaphore_Module__diagsEnabled__C)
                  c21be730    00000004     Local_pe674.oe674 (.const:ti_sysbios_knl_Semaphore_Module__diagsIncluded__C)
                  c21be734    00000004     Local_pe674.oe674 (.const:ti_sysbios_knl_Semaphore_Module__diagsMask__C)
                  c21be738    00000004     Local_pe674.oe674 (.const:ti_sysbios_knl_Semaphore_Module__loggerFxn2__C)
                  c21be73c    00000004     Local_pe674.oe674 (.const:ti_sysbios_knl_Semaphore_Module__loggerFxn4__C)
                  c21be740    00000004     Local_pe674.oe674 (.const:ti_sysbios_knl_Semaphore_Module__loggerObj__C)
                  c21be744    00000004     Local_pe674.oe674 (.const:ti_sysbios_knl_Swi_A_badPriority__C)
                  c21be748    00000004     Local_pe674.oe674 (.const:ti_sysbios_knl_Swi_A_swiDisabled__C)
                  c21be74c    00000004     Local_pe674.oe674 (.const:ti_sysbios_knl_Swi_LD_end__C)
                  c21be750    00000004     Local_pe674.oe674 (.const:ti_sysbios_knl_Swi_LM_begin__C)
                  c21be754    00000004     Local_pe674.oe674 (.const:ti_sysbios_knl_Swi_LM_post__C)
                  c21be758    00000004     Local_pe674.oe674 (.const:ti_sysbios_knl_Swi_Module__diagsEnabled__C)
                  c21be75c    00000004     Local_pe674.oe674 (.const:ti_sysbios_knl_Swi_Module__diagsIncluded__C)
                  c21be760    00000004     Local_pe674.oe674 (.const:ti_sysbios_knl_Swi_Module__diagsMask__C)
                  c21be764    00000004     Local_pe674.oe674 (.const:ti_sysbios_knl_Swi_Module__loggerFxn1__C)
                  c21be768    00000004     Local_pe674.oe674 (.const:ti_sysbios_knl_Swi_Module__loggerFxn4__C)
                  c21be76c    00000004     Local_pe674.oe674 (.const:ti_sysbios_knl_Swi_Module__loggerObj__C)
                  c21be770    00000004     Local_pe674.oe674 (.const:ti_sysbios_knl_Swi_Object__count__C)
                  c21be774    00000004     Local_pe674.oe674 (.const:ti_sysbios_knl_Swi_Object__heap__C)
                  c21be778    00000004     Local_pe674.oe674 (.const:ti_sysbios_knl_Swi_Object__table__C)
                  c21be77c    00000004     Local_pe674.oe674 (.const:ti_sysbios_knl_Swi_numConstructedSwis__C)
                  c21be780    00000004     Local_pe674.oe674 (.const:ti_sysbios_knl_Task_A_badPriority__C)
                  c21be784    00000004     Local_pe674.oe674 (.const:ti_sysbios_knl_Task_A_badTaskState__C)
                  c21be788    00000004     Local_pe674.oe674 (.const:ti_sysbios_knl_Task_A_badThreadType__C)
                  c21be78c    00000004     Local_pe674.oe674 (.const:ti_sysbios_knl_Task_A_badTimeout__C)
                  c21be790    00000004     Local_pe674.oe674 (.const:ti_sysbios_knl_Task_A_noPendElem__C)
                  c21be794    00000004     Local_pe674.oe674 (.const:ti_sysbios_knl_Task_A_sleepTaskDisabled__C)
                  c21be798    00000004     Local_pe674.oe674 (.const:ti_sysbios_knl_Task_A_taskDisabled__C)
                  c21be79c    00000004     Local_pe674.oe674 (.const:ti_sysbios_knl_Task_E_deleteNotAllowed__C)
                  c21be7a0    00000004     Local_pe674.oe674 (.const:ti_sysbios_knl_Task_E_spOutOfBounds__C)
                  c21be7a4    00000004     Local_pe674.oe674 (.const:ti_sysbios_knl_Task_E_stackOverflow__C)
                  c21be7a8    00000004     Local_pe674.oe674 (.const:ti_sysbios_knl_Task_LD_block__C)
                  c21be7ac    00000004     Local_pe674.oe674 (.const:ti_sysbios_knl_Task_LD_exit__C)
                  c21be7b0    00000004     Local_pe674.oe674 (.const:ti_sysbios_knl_Task_LD_ready__C)
                  c21be7b4    00000004     Local_pe674.oe674 (.const:ti_sysbios_knl_Task_LM_sleep__C)
                  c21be7b8    00000004     Local_pe674.oe674 (.const:ti_sysbios_knl_Task_LM_switch__C)
                  c21be7bc    00000004     Local_pe674.oe674 (.const:ti_sysbios_knl_Task_Module_State_inactiveQ__O)
                  c21be7c0    00000004     Local_pe674.oe674 (.const:ti_sysbios_knl_Task_Module_State_terminatedQ__O)
                  c21be7c4    00000004     Local_pe674.oe674 (.const:ti_sysbios_knl_Task_Module__diagsEnabled__C)
                  c21be7c8    00000004     Local_pe674.oe674 (.const:ti_sysbios_knl_Task_Module__diagsIncluded__C)
                  c21be7cc    00000004     Local_pe674.oe674 (.const:ti_sysbios_knl_Task_Module__diagsMask__C)
                  c21be7d0    00000004     Local_pe674.oe674 (.const:ti_sysbios_knl_Task_Module__loggerFxn2__C)
                  c21be7d4    00000004     Local_pe674.oe674 (.const:ti_sysbios_knl_Task_Module__loggerFxn4__C)
                  c21be7d8    00000004     Local_pe674.oe674 (.const:ti_sysbios_knl_Task_Module__loggerObj__C)
                  c21be7dc    00000004     Local_pe674.oe674 (.const:ti_sysbios_knl_Task_Object__count__C)
                  c21be7e0    00000004     Local_pe674.oe674 (.const:ti_sysbios_knl_Task_Object__heap__C)
                  c21be7e4    00000004     Local_pe674.oe674 (.const:ti_sysbios_knl_Task_Object__table__C)
                  c21be7e8    00000004     Local_pe674.oe674 (.const:ti_sysbios_knl_Task_allBlockedFunc__C)
                  c21be7ec    00000004     Local_pe674.oe674 (.const:ti_sysbios_knl_Task_defaultStackHeap__C)
                  c21be7f0    00000004     Local_pe674.oe674 (.const:ti_sysbios_knl_Task_defaultStackSize__C)
                  c21be7f4    00000004     Local_pe674.oe674 (.const:ti_sysbios_knl_Task_numConstructedTasks__C)
                  c21be7f8    00000004     Local_pe674.oe674 (.const:ti_sysbios_timers_timer64_Timer_A_notAvailable__C)
                  c21be7fc    00000004     Local_pe674.oe674 (.const:ti_sysbios_timers_timer64_Timer_E_cannotSupport__C)
                  c21be800    00000004     Local_pe674.oe674 (.const:ti_sysbios_timers_timer64_Timer_E_invalidTimer__C)
                  c21be804    00000004     Local_pe674.oe674 (.const:ti_sysbios_timers_timer64_Timer_E_notAvailable__C)
                  c21be808    00000004     Local_pe674.oe674 (.const:ti_sysbios_timers_timer64_Timer_Module__diagsEnabled__C)
                  c21be80c    00000004     Local_pe674.oe674 (.const:ti_sysbios_timers_timer64_Timer_Module__diagsIncluded__C)
                  c21be810    00000004     Local_pe674.oe674 (.const:ti_sysbios_timers_timer64_Timer_Module__diagsMask__C)
                  c21be814    00000004     Local_pe674.oe674 (.const:ti_sysbios_timers_timer64_Timer_anyMask__C)
                  c21be818    00000004     Local_pe674.oe674 (.const:ti_sysbios_timers_timer64_Timer_defaultHalf__C)
                  c21be81c    00000004     Local_pe674.oe674 (.const:ti_sysbios_timers_timer64_Timer_freqDivisor__C)
                  c21be820    00000004     Local_pe674.oe674 (.const:ti_sysbios_timers_timer64_Timer_numLocalTimers__C)
                  c21be824    00000004     Local_pe674.oe674 (.const:ti_sysbios_timers_timer64_Timer_numTimerDevices__C)
                  c21be828    00000004     Local_pe674.oe674 (.const:ti_sysbios_utils_Load_LS_cpuLoad__C)
                  c21be82c    00000004     Local_pe674.oe674 (.const:ti_sysbios_utils_Load_LS_hwiLoad__C)
                  c21be830    00000004     Local_pe674.oe674 (.const:ti_sysbios_utils_Load_LS_swiLoad__C)
                  c21be834    00000004     Local_pe674.oe674 (.const:ti_sysbios_utils_Load_LS_taskLoad__C)
                  c21be838    00000004     Local_pe674.oe674 (.const:ti_sysbios_utils_Load_Module_State_taskList__O)
                  c21be83c    00000004     Local_pe674.oe674 (.const:ti_sysbios_utils_Load_Module__diagsEnabled__C)
                  c21be840    00000004     Local_pe674.oe674 (.const:ti_sysbios_utils_Load_Module__diagsIncluded__C)
                  c21be844    00000004     Local_pe674.oe674 (.const:ti_sysbios_utils_Load_Module__diagsMask__C)
                  c21be848    00000004     Local_pe674.oe674 (.const:ti_sysbios_utils_Load_Module__loggerFxn1__C)
                  c21be84c    00000004     Local_pe674.oe674 (.const:ti_sysbios_utils_Load_Module__loggerFxn2__C)
                  c21be850    00000004     Local_pe674.oe674 (.const:ti_sysbios_utils_Load_Module__loggerFxn4__C)
                  c21be854    00000004     Local_pe674.oe674 (.const:ti_sysbios_utils_Load_Module__loggerObj__C)
                  c21be858    00000004     Local_pe674.oe674 (.const:ti_sysbios_utils_Load_postUpdate__C)
                  c21be85c    00000004     Local_pe674.oe674 (.const:ti_sysbios_utils_Load_windowInMs__C)
                  c21be860    00000004     Local_pe674.oe674 (.const:xdc_runtime_Assert_E_assertFailed__C)
                  c21be864    00000004     Local_pe674.oe674 (.const:xdc_runtime_Core_A_initializedParams__C)
                  c21be868    00000004     Local_pe674.oe674 (.const:xdc_runtime_Core_Module__diagsEnabled__C)
                  c21be86c    00000004     Local_pe674.oe674 (.const:xdc_runtime_Core_Module__diagsIncluded__C)
                  c21be870    00000004     Local_pe674.oe674 (.const:xdc_runtime_Core_Module__diagsMask__C)
                  c21be874    00000004     Local_pe674.oe674 (.const:xdc_runtime_Error_E_memory__C)
                  c21be878    00000004     Local_pe674.oe674 (.const:xdc_runtime_Error_Module__diagsEnabled__C)
                  c21be87c    00000004     Local_pe674.oe674 (.const:xdc_runtime_Error_Module__diagsIncluded__C)
                  c21be880    00000004     Local_pe674.oe674 (.const:xdc_runtime_Error_Module__diagsMask__C)
                  c21be884    00000004     Local_pe674.oe674 (.const:xdc_runtime_Error_Module__loggerFxn8__C)
                  c21be888    00000004     Local_pe674.oe674 (.const:xdc_runtime_Error_Module__loggerObj__C)
                  c21be88c    00000004     Local_pe674.oe674 (.const:xdc_runtime_Error_policy__C)
                  c21be890    00000004     Local_pe674.oe674 (.const:xdc_runtime_Error_raiseHook__C)
                  c21be894    00000004     Local_pe674.oe674 (.const:xdc_runtime_IGateProvider_Interface__BASE__C)
                  c21be898    00000004     Local_pe674.oe674 (.const:xdc_runtime_IHeap_Interface__BASE__C)
                  c21be89c    00000004     Local_pe674.oe674 (.const:xdc_runtime_ILogger_Interface__BASE__C)
                  c21be8a0    00000004     Local_pe674.oe674 (.const:xdc_runtime_IModule_Interface__BASE__C)
                  c21be8a4    00000004     Local_pe674.oe674 (.const:xdc_runtime_Log_L_error__C)
                  c21be8a8    00000004     Local_pe674.oe674 (.const:xdc_runtime_Memory_defaultHeapInstance__C)
                  c21be8ac    00000004     Local_pe674.oe674 (.const:xdc_runtime_Startup_execImpl__C)
                  c21be8b0    00000004     Local_pe674.oe674 (.const:xdc_runtime_Startup_lastFxns__A)
                  c21be8b4    00000004     Local_pe674.oe674 (.const:xdc_runtime_Startup_maxPasses__C)
                  c21be8b8    00000004     Local_pe674.oe674 (.const:xdc_runtime_Startup_sfxnRts__C)
                  c21be8bc    00000004     Local_pe674.oe674 (.const:xdc_runtime_Startup_sfxnTab__C)
                  c21be8c0    00000004     Local_pe674.oe674 (.const:xdc_runtime_Startup_startModsFxn__C)
                  c21be8c4    00000004     Local_pe674.oe674 (.const:xdc_runtime_SysMin_bufSize__C)
                  c21be8c8    00000004     Local_pe674.oe674 (.const:xdc_runtime_SysMin_outputFunc__C)
                  c21be8cc    00000004     Local_pe674.oe674 (.const:xdc_runtime_System_Module__gateObj__C)
                  c21be8d0    00000004     Local_pe674.oe674 (.const:xdc_runtime_System_extendFxn__C)
                  c21be8d4    00000004     Local_pe674.oe674 (.const:xdc_runtime_System_maxAtexitHandlers__C)
                  c21be8d8    00000004     Local_pe674.oe674 (.const:xdc_runtime_Text_charTab__C)
                  c21be8dc    00000004     Local_pe674.oe674 (.const:xdc_runtime_Text_nameEmpty__C)
                  c21be8e0    00000004     Local_pe674.oe674 (.const:xdc_runtime_Text_nameStatic__C)
                  c21be8e4    00000004     Local_pe674.oe674 (.const:xdc_runtime_Text_nameUnknown__C)
                  c21be8e8    00000004     Local_pe674.oe674 (.const:xdc_runtime_Text_nodeTab__C)
                  c21be8ec    00000004     Local_pe674.oe674 (.const:xdc_runtime_Text_visitRopeFxn__C)
                  c21be8f0    00000002     lv_textarea.obj (.const:.string:$P$T0$1)
                  c21be8f2    00000002     Local_pe674.oe674 (.const:ti_sysbios_knl_Swi_Module__loggerDefined__C)
                  c21be8f4    00000002     Local_pe674.oe674 (.const:ti_sysbios_knl_Task_Module__id__C)
                  c21be8f6    00000002     Local_pe674.oe674 (.const:ti_sysbios_knl_Task_Module__loggerDefined__C)
                  c21be8f8    00000002     lv_img_decoder.obj (.const:.string:$P$T1$1)
                  c21be8fa    00000002     Local_pe674.oe674 (.const:ti_sysbios_knl_Task_initStackFlag__C)
                  c21be8fc    00000002     Local_pe674.oe674 (.const:ti_sysbios_timers_timer64_Timer_Module__id__C)
                  c21be8fe    00000002     Local_pe674.oe674 (.const:ti_sysbios_timers_timer64_Timer_startupNeeded__C)
                  c21be900    00000002     lv_draw_sw_letter.obj (.const:.string:_lv_bpp1_opa_table)
                  c21be902    00000002     Local_pe674.oe674 (.const:ti_sysbios_utils_Load_Module__id__C)
                  c21be904    00000002     Local_pe674.oe674 (.const:ti_sysbios_utils_Load_Module__loggerDefined__C)
                  c21be906    00000002     Local_pe674.oe674 (.const:ti_sysbios_utils_Load_autoAddTasks__C)
                  c21be908    00000002     Local_pe674.oe674 (.const:ti_sysbios_utils_Load_hwiEnabled__C)
                  c21be90a    00000002     Local_pe674.oe674 (.const:ti_sysbios_utils_Load_updateInIdle__C)
                  c21be90c    00000002     Local_pe674.oe674 (.const:xdc_runtime_Core_Module__id__C)
                  c21be90e    00000002     Local_pe674.oe674 (.const:xdc_runtime_Error_Module__loggerDefined__C)
                  c21be910    00000002     Local_pe674.oe674 (.const:xdc_runtime_Error_maxDepth__C)
                  c21be912    00000002     Local_pe674.oe674 (.const:xdc_runtime_Memory_Module__id__C)
                  c21be914    00000002     Local_pe674.oe674 (.const:xdc_runtime_SysMin_flushAtExit__C)
                  c21be916    00000002     Local_pe674.oe674 (.const:xdc_runtime_Text_charCnt__C)
                  c21be918    00000002     Local_pe674.oe674 (.const:xdc_runtime_Text_isLoaded__C)
                  c21be91a    00000002     Local_pe674.oe674 (.const:xdc_runtime_Text_registryModsLastId__C)
                  c21be91c    00000002     Local_pe674.oe674 (.const:xdc_runtime_Text_unnamedModsLastId__C)

.fardata   0    c21bec00    0000181c     UNINITIALIZED
                  c21bec00    00000400     SATA.obj (.fardata:CmdLists)
                  c21bf000    00000400     lodepng.obj (.fardata:lodepng_crc32_table)
                  c21bf400    00000400     Local_pe674.oe674 (.fardata:ti_sysbios_family_c64p_EventCombiner_Module__state__V)
                  c21bf800    000001e0     rts6740_elf.lib : defs.c.obj (.fardata:_ftable)
                  c21bf9e0    000000c0     Command.obj (.fardata:g_sCmdTable)
                  c21bfaa0    000000a0     rts6740_elf.lib : write.c.obj (.fardata:_stream)
                  c21bfb40    000000a0     Local_pe674.oe674 (.fardata:ti_sysbios_knl_Task_Object__table__V)
                  c21bfbe0    00000098     Local_pe674.oe674 (.fardata:ti_sysbios_utils_Load_Module__state__V)
                  c21bfc78    0000008c     Local_pe674.oe674 (.fardata:ti_sysbios_family_c64p_Hwi_Object__table__V)
                  c21bfd04    00000004     rts6740_elf.lib : _lock.c.obj (.fardata:_lock)
                  c21bfd08    00000080     Local_pe674.oe674 (.fardata:ti_sysbios_knl_Swi_Module_State_0_readyQ__A)
                  c21bfd88    00000080     Local_pe674.oe674 (.fardata:ti_sysbios_knl_Task_Module_State_0_readyQ__A)
                  c21bfe08    00000078     rts6740_elf.lib : write.c.obj (.fardata:_device)
                  c21bfe80    00000068     Local_pe674.oe674 (.fardata:ti_sysbios_family_c64p_Hwi_Module__state__V)
                  c21bfee8    00000060     Local_pe674.oe674 (.fardata:ti_sysbios_timers_timer64_Timer_Module_State_0_device__A)
                  c21bff48    00000050     Local_pe674.oe674 (.fardata:ti_sysbios_gates_GateMutex_Object__table__V)
                  c21bff98    00000050     Local_pe674.oe674 (.fardata:ti_sysbios_timers_timer64_Timer_Object__table__V)
                  c21bffe8    00000050     DDR2.obj (.fardata:ulDataPatternTable)
                  c21c0038    00000044     Local_pe674.oe674 (.fardata:ti_sysbios_knl_Task_Module__state__V)
                  c21c007c    00000004     rts6740_elf.lib : _lock.c.obj (.fardata:_unlock)
                  c21c0080    00000038     Local_pe674.oe674 (.fardata:ti_sysbios_utils_Load_Module_State_0_taskEnv__A)
                  c21c00b8    00000034     Local_pe674.oe674 (.fardata:ti_sysbios_knl_Swi_Object__table__V)
                  c21c00ec    00000004     rts6740_elf.lib : defs.c.obj (.fardata)
                  c21c00f0    00000030     lv_calendar_header_arrow.obj (.fardata:month_names_def)
                  c21c0120    00000030     Local_pe674.oe674 (.fardata:ti_sysbios_family_c64p_Exception_Module__state__V)
                  c21c0150    00000028     Local_pe674.oe674 (.fardata:ti_sysbios_knl_Clock_Module__state__V)
                  c21c0178    00000024     lv_keyboard.obj (.fardata:kb_ctrl)
                  c21c019c    00000004     rts6740_elf.lib : dtor_list.c.obj (.fardata)
                  c21c01a0    00000024     lv_keyboard.obj (.fardata:kb_map)
                  c21c01c4    00000004     rts6740_elf.lib : errno.c.obj (.fardata)
                  c21c01c8    00000020     LCD.obj (.fardata:palette_32b)
                  c21c01e8    00000020     Local_pe674.oe674 (.fardata:ti_sysbios_BIOS_Module__state__V)
                  c21c0208    00000020     Local_pe674.oe674 (.fardata:ti_sysbios_timers_timer64_Timer_Module_State_0_gctrl__A)
                  c21c0228    00000020     Local_pe674.oe674 (.fardata:ti_sysbios_timers_timer64_Timer_Module_State_0_handles__A)
                  c21c0248    00000020     Local_pe674.oe674 (.fardata:ti_sysbios_timers_timer64_Timer_Module_State_0_intFreqs__A)
                  c21c0268    00000020     Local_pe674.oe674 (.fardata:xdc_runtime_System_Module_State_0_atexitHandlers__A)
                  c21c0288    0000001c     lv_calendar.obj (.fardata:day_names_def)
                  c21c02a4    00000004     Local_pe674.oe674 (.fardata:ti_sysbios_family_c64p_Cache_Module__state__V)
                  c21c02a8    0000001c     lv_btnmatrix.obj (.fardata:lv_btnmatrix_def_map)
                  c21c02c4    00000004     Local_pe674.oe674 (.fardata:ti_sysbios_family_c64p_primus_TimerSupport_Module__state__V)
                  c21c02c8    0000001c     Local_pe674.oe674 (.fardata:ti_sysbios_heaps_HeapMem_Object__table__V)
                  c21c02e4    0000001c     Local_pe674.oe674 (.fardata:ti_sysbios_knl_Swi_Module__state__V)
                  c21c0300    00000014     Local_pe674.oe674 (.fardata:ti_sysbios_timers_timer64_Timer_Module__state__V)
                  c21c0314    00000004     Local_pe674.oe674 (.fardata:xdc_runtime_Memory_Module__state__V)
                  c21c0318    00000010     LEDNixie.obj (.fardata:SEGVal)
                  c21c0328    0000000c     rts6740_elf.lib : exit.c.obj (.fardata)
                  c21c0334    00000002     lv_hal_disp.obj (.fardata:bg_color_save$4)
                  c21c0336    00000002     lv_hal_disp.obj (.fardata:fg_color_save$3)
                  c21c0338    0000000c     Local_pe674.oe674 (.fardata:ti_sysbios_hal_Hwi_Object__table__V)
                  c21c0344    00000002     lv_hal_disp.obj (.fardata:res_color_saved$5)
                  c21c0346    00000002     Local_pe674.oe674 (.fardata:xdc_runtime_Error_Module__state__V)
                  c21c0348    0000000c     Local_pe674.oe674 (.fardata:ti_sysbios_hal_Timer_Object__table__V)
                  c21c0354    00000004     --HOLE--
                  c21c0358    0000000c     Local_pe674.oe674 (.fardata:xdc_runtime_LoggerSys_Object__table__V)
                  c21c0364    0000000c     Local_pe674.oe674 (.fardata:xdc_runtime_SysMin_Module__state__V)
                  c21c0370    0000000c     Local_pe674.oe674 (.fardata:xdc_runtime_System_Module__state__V)
                  c21c037c    00000008     Local_pe674.oe674 (.fardata:ti_sysbios_family_c64p_Hwi_Module__root__V)
                  c21c0384    00000004     --HOLE--
                  c21c0388    00000008     Local_pe674.oe674 (.fardata:ti_sysbios_family_c64p_primus_TimerSupport_Module_State_0_suspSrc__A)
                  c21c0390    00000008     Local_pe674.oe674 (.fardata:ti_sysbios_gates_GateHwi_Module__root__V)
                  c21c0398    00000008     Local_pe674.oe674 (.fardata:ti_sysbios_gates_GateHwi_Object__table__V)
                  c21c03a0    00000008     Local_pe674.oe674 (.fardata:ti_sysbios_gates_GateMutex_Module__root__V)
                  c21c03a8    00000008     Local_pe674.oe674 (.fardata:ti_sysbios_hal_Hwi_Module__root__V)
                  c21c03b0    00000008     Local_pe674.oe674 (.fardata:ti_sysbios_heaps_HeapMem_Module__root__V)
                  c21c03b8    00000008     Local_pe674.oe674 (.fardata:ti_sysbios_knl_Clock_Module__root__V)
                  c21c03c0    00000008     Local_pe674.oe674 (.fardata:ti_sysbios_knl_Queue_Module__root__V)
                  c21c03c8    00000008     Local_pe674.oe674 (.fardata:ti_sysbios_knl_Semaphore_Module__root__V)
                  c21c03d0    00000008     Local_pe674.oe674 (.fardata:ti_sysbios_knl_Swi_Module__root__V)
                  c21c03d8    00000008     Local_pe674.oe674 (.fardata:ti_sysbios_knl_Task_Module__root__V)
                  c21c03e0    00000008     Local_pe674.oe674 (.fardata:ti_sysbios_timers_timer64_Timer_Module__root__V)
                  c21c03e8    00000008     Local_pe674.oe674 (.fardata:xdc_runtime_LoggerSys_Module__root__V)
                  c21c03f0    00000008     Local_pe674.oe674 (.fardata:xdc_runtime_Registry_Module__state__V)
                  c21c03f8    00000008     Local_pe674.oe674 (.fardata:xdc_runtime_Startup_Module__state__V)
                  c21c0400    00000004     LEDNixie.obj (.fardata:LEDNixieVal)
                  c21c0404    00000004     --HOLE--
                  c21c0408    00000004     Local_pe674.oe674 (.fardata:ti_sysbios_knl_Task_Module_State_0_idleTask__A)
                  c21c040c    00000004     --HOLE--
                  c21c0410    00000004     Local_pe674.oe674 (.fardata:ti_sysbios_utils_Load_Module_State_0_runningTask__A)
                  c21c0414    00000004     --HOLE--
                  c21c0418    00000004     Local_pe674.oe674 (.fardata:ti_sysbios_utils_Load_Module_State_0_taskStartTime__A)

.switch.2 
*          0    c21c041c    000005cc     
                  c21c041c    00000078     tjpgd.obj (.switch:jd_prepare)
                  c21c0494    00000070     lv_event.obj (.switch:event_is_bubbled)
                  c21c0504    0000005c     rts6740_elf.lib : _scanfi.c.obj (.switch:__TI_scanfi)
                  c21c0560    0000005c     lv_printf.obj (.switch:_vsnprintf)
                  c21c05bc    00000054     lv_area.obj (.switch:lv_area_align)
                  c21c0610    00000054     lv_obj_pos.obj (.switch:lv_obj_align_to)
                  c21c0664    00000044     lv_obj_pos.obj (.switch:calc_content_width)
                  c21c06a8    00000040     lv_tabview.obj (.switch:lv_tabview_constructor)
                  c21c06e8    0000003c     lv_disp.obj (.switch:lv_scr_load_anim)
                  c21c0724    00000038     rts6740_elf.lib : _printfi.c.obj (.switch:__TI_printfi)
                  c21c075c    00000034     lv_draw_img.obj (.switch:lv_img_cf_has_alpha)
                  c21c0790    0000002c     lv_img_buf.obj (.switch:lv_img_buf_get_img_size)
                  c21c07bc    00000028     lv_hal_disp.obj (.switch:lv_disp_drv_use_generic_set_px_cb)
                  c21c07e4    00000020     Flash.obj (.switch:SPI1CSPinMuxSet)
                  c21c0804    00000020     lv_draw_sw_letter.obj (.switch:draw_letter_normal)
                  c21c0824    00000020     lv_grid.obj (.switch:item_repos)
                  c21c0844    00000020     lv_obj_pos.obj (.switch:lv_obj_refr_pos)
                  c21c0864    0000001c     lodepng.obj (.switch:checkColorValidity)
                  c21c0880    0000001c     lodepng.obj (.switch:getNumColorChannels)
                  c21c089c    0000001c     lv_grid.obj (.switch:grid_align)
                  c21c08b8    0000001c     lv_obj_style.obj (.switch:trans_anim_cb)
                  c21c08d4    00000018     lv_draw_label.obj (.switch:hex_char_to_num)
                  c21c08ec    00000014     lodepng.obj (.switch:filterScanline)
                  c21c0900    00000014     lv_chart.obj (.switch:get_tick_gsc)
                  c21c0914    00000014     lv_chart.obj (.switch:lv_chart_set_range)
                  c21c0928    00000014     lv_color.obj (.switch:lv_color_hsv_to_rgb)
                  c21c093c    00000014     lv_flex.obj (.switch:place_content)
                  c21c0950    00000014     sysbios.ae674 : BIOS.obj (.switch:ti_sysbios_timers_timer64_Timer_Instance_finalize__F)
                  c21c0964    00000014     lodepng.obj (.switch:unfilterScanline)
                  c21c0978    00000010     Command.obj (.switch:Cmd_LED)
                  c21c0988    00000010     drivers.lib : gpio.obj (.switch:GPIOIntTypeSet)
                  c21c0998    00000010     UARTConsole.obj (.switch:ReadLine)
                  c21c09a8    00000010     lv_obj_pos.obj (.switch:calc_content_height)
                  c21c09b8    00000010     lv_img_decoder.obj (.switch:lv_img_decoder_built_in_line_alpha)
                  c21c09c8    00000010     lv_img_decoder.obj (.switch:lv_img_decoder_built_in_line_indexed)
                  c21c09d8    00000010     sysbios.ae674 : BIOS.obj (.switch:ti_sysbios_family_c64p_Hwi_reconfig__E)

.cio       0    c21c0e00    00000120     UNINITIALIZED
                  c21c0e00    00000120     rts6740_elf.lib : trgmsg.c.obj (.cio)

MODULE SUMMARY

       Module                            code     ro data   rw data 
       ------                            ----     -------   ------- 
    .\
       main.obj                          512      120       0       
    +--+---------------------------------+--------+---------+----------+
       Total:                            512      120       0       
                                                                    
    .\Console\
       Command.obj                       2432     864       65728   
       UARTConsole.obj                   2464     140       2251    
       cmdline.obj                       352      0         36      
    +--+---------------------------------+--------+---------+----------+
       Total:                            5248     1004      68015   
                                                                    
    .\Helper\
       Exception.obj                     928      872       0       
       SysMinProvide.obj                 128      4         0       
    +--+---------------------------------+--------+---------+----------+
       Total:                            1056     876       0       
                                                                    
    .\LVGL\examples\get_started\
       lv_example_get_started_1.obj      320      20        1       
    +--+---------------------------------+--------+---------+----------+
       Total:                            320      20        1       
                                                                    
    .\LVGL\porting\
       lv_port_disp_c674x.obj            896      0         32104   
    +--+---------------------------------+--------+---------+----------+
       Total:                            896      0         32104   
                                                                    
    .\LVGL\src\core\
       lv_obj_pos.obj                    14784    208       5       
       lv_obj_scroll.obj                 12256    8         0       
       lv_indev.obj                      12128    0         12      
       lv_obj_style.obj                  11488    28        1       
       lv_refr.obj                       10560    52        40      
       lv_obj.obj                        9824     32        8       
       lv_indev_scroll.obj               7648     0         0       
       lv_obj_style_gen.obj              6368     0         0       
       lv_obj_draw.obj                   6208     0         0       
       lv_event.obj                      5920     112       8       
       lv_group.obj                      4960     0         4       
       lv_disp.obj                       4416     60        0       
       lv_obj_tree.obj                   4160     0         0       
       lv_obj_class.obj                  1568     0         0       
       lv_theme.obj                      896      0         0       
    +--+---------------------------------+--------+---------+----------+
       Total:                            113184   500       78      
                                                                    
    .\LVGL\src\draw\
       lv_draw_mask.obj                  20320    0         0       
       lv_img_buf.obj                    11872    64        0       
       lv_img_decoder.obj                7168     58        0       
       lv_draw_label.obj                 4096     28        0       
       lv_draw_arc.obj                   3008     0         0       
       lv_draw_img.obj                   2656     120       0       
       lv_draw_rect.obj                  608      0         0       
       lv_draw_line.obj                  384      0         0       
       lv_img_cache.obj                  320      0         0       
       lv_draw.obj                       64       0         0       
    +--+---------------------------------+--------+---------+----------+
       Total:                            50496    270       0       
                                                                    
    .\LVGL\src\draw\sw\
       lv_draw_sw_rect.obj               17504    28        0       
       lv_draw_sw_blend.obj              8864     0         0       
       lv_draw_sw_arc.obj                7776     0         0       
       lv_draw_sw_line.obj               4896     33        0       
       lv_draw_sw_gradient.obj           3296     0         9       
       lv_draw_sw_letter.obj             2656     310       264     
       lv_draw_sw_img.obj                3200     0         0       
       lv_draw_sw_polygon.obj            2144     8         0       
       lv_draw_sw.obj                    768      0         0       
    +--+---------------------------------+--------+---------+----------+
       Total:                            51104    379       273     
                                                                    
    .\LVGL\src\extra\
       lv_extra.obj                      64       0         0       
    +--+---------------------------------+--------+---------+----------+
       Total:                            64       0         0       
                                                                    
    .\LVGL\src\extra\layouts\flex\
       lv_flex.obj                       8256     20        24      
    +--+---------------------------------+--------+---------+----------+
       Total:                            8256     20        24      
                                                                    
    .\LVGL\src\extra\layouts\grid\
       lv_grid.obj                       8992     60        44      
    +--+---------------------------------+--------+---------+----------+
       Total:                            8992     60        44      
                                                                    
    .\LVGL\src\extra\libs\bmp\
       lv_bmp.obj                        1600     28        0       
    +--+---------------------------------+--------+---------+----------+
       Total:                            1600     28        0       
                                                                    
    .\LVGL\src\extra\libs\png\
       lodepng.obj                       86688    6104      1028    
       lv_png.obj                        1824     12        0       
    +--+---------------------------------+--------+---------+----------+
       Total:                            88512    6116      1028    
                                                                    
    .\LVGL\src\extra\libs\sjpg\
       tjpgd.obj                         10048    1336      0       
       lv_sjpg.obj                       8608     30        0       
    +--+---------------------------------+--------+---------+----------+
       Total:                            18656    1366      0       
                                                                    
    .\LVGL\src\extra\themes\default\
       lv_theme_default.obj              21312    48        109     
    +--+---------------------------------+--------+---------+----------+
       Total:                            21312    48        109     
                                                                    
    .\LVGL\src\extra\widgets\calendar\
       lv_calendar.obj                   3968     56        28      
       lv_calendar_header_dropdown.obj   768      680       8       
       lv_calendar_header_arrow.obj      992      128       48      
    +--+---------------------------------+--------+---------+----------+
       Total:                            5728     864       84      
                                                                    
    .\LVGL\src\extra\widgets\chart\
       lv_chart.obj                      23008    72        0       
    +--+---------------------------------+--------+---------+----------+
       Total:                            23008    72        0       
                                                                    
    .\LVGL\src\extra\widgets\colorwheel\
       lv_colorwheel.obj                 7712     28        6       
    +--+---------------------------------+--------+---------+----------+
       Total:                            7712     28        6       
                                                                    
    .\LVGL\src\extra\widgets\keyboard\
       lv_keyboard.obj                   2752     1146      72      
    +--+---------------------------------+--------+---------+----------+
       Total:                            2752     1146      72      
                                                                    
    .\LVGL\src\extra\widgets\led\
       lv_led.obj                        2080     28        0       
    +--+---------------------------------+--------+---------+----------+
       Total:                            2080     28        0       
                                                                    
    .\LVGL\src\extra\widgets\list\
       lv_list.obj                       0        84        0       
    +--+---------------------------------+--------+---------+----------+
       Total:                            0        84        0       
                                                                    
    .\LVGL\src\extra\widgets\menu\
       lv_menu.obj                       5728     256       0       
    +--+---------------------------------+--------+---------+----------+
       Total:                            5728     256       0       
                                                                    
    .\LVGL\src\extra\widgets\meter\
       lv_meter.obj                      8608     32        0       
    +--+---------------------------------+--------+---------+----------+
       Total:                            8608     32        0       
                                                                    
    .\LVGL\src\extra\widgets\msgbox\
       lv_msgbox.obj                     0        56        0       
    +--+---------------------------------+--------+---------+----------+
       Total:                            0        56        0       
                                                                    
    .\LVGL\src\extra\widgets\spinbox\
       lv_spinbox.obj                    4448     32        0       
    +--+---------------------------------+--------+---------+----------+
       Total:                            4448     32        0       
                                                                    
    .\LVGL\src\extra\widgets\spinner\
       lv_spinner.obj                    736      28        8       
    +--+---------------------------------+--------+---------+----------+
       Total:                            736      28        8       
                                                                    
    .\LVGL\src\extra\widgets\tabview\
       lv_tabview.obj                    3232     96        4       
    +--+---------------------------------+--------+---------+----------+
       Total:                            3232     96        4       
                                                                    
    .\LVGL\src\extra\widgets\tileview\
       lv_tileview.obj                   1536     56        12      
    +--+---------------------------------+--------+---------+----------+
       Total:                            1536     56        12      
                                                                    
    .\LVGL\src\extra\widgets\win\
       lv_win.obj                        704      28        2       
    +--+---------------------------------+--------+---------+----------+
       Total:                            704      28        2       
                                                                    
    .\LVGL\src\font\
       lv_font_montserrat_14.obj         0        13633     8       
       lv_font_fmt_txt.obj               2784     0         0       
       lv_font.obj                       672      0         0       
    +--+---------------------------------+--------+---------+----------+
       Total:                            3456     13633     8       
                                                                    
    .\LVGL\src\hal\
       lv_hal_disp.obj                   7296     40        13      
       lv_hal_indev.obj                  1152     0         0       
       lv_hal_tick.obj                   256      0         5       
    +--+---------------------------------+--------+---------+----------+
       Total:                            8704     40        18      
                                                                    
    .\LVGL\src\misc\
       lv_mem.obj                        5184     0         131080  
       lv_tlsf.obj                       9888     8         0       
       lv_txt.obj                        6368     12        32      
       lv_style_gen.obj                  6272     0         0       
       lv_printf.obj                     5344     92        0       
       lv_area.obj                       5280     84        0       
       lv_fs.obj                         5216     4         0       
       lv_anim.obj                       4224     0         12      
       lv_style.obj                      3456     332       6       
       lv_color.obj                      3168     400       0       
       lv_ll.obj                         2304     0         0       
       lv_math.obj                       2048     182       4       
       lv_timer.obj                      2016     0         18      
       lv_gc.obj                         352      0         532     
       lv_async.obj                      288      0         0       
       lv_utils.obj                      256      0         0       
    +--+---------------------------------+--------+---------+----------+
       Total:                            61664    1114      131684  
                                                                    
    .\LVGL\src\widgets\
       lv_btnmatrix.obj                  13184    56        28      
       lv_textarea.obj                   12928    38        4       
       lv_table.obj                      12704    32        0       
       lv_label.obj                      11968    36        0       
       lv_dropdown.obj                   11040    92        0       
       lv_arc.obj                        9600     28        0       
       lv_img.obj                        9120     28        0       
       lv_roller.obj                     7552     104       0       
       lv_bar.obj                        6880     28        0       
       lv_slider.obj                     5984     28        0       
       lv_checkbox.obj                   2656     40        0       
       lv_switch.obj                     2592     28        0       
       lv_line.obj                       1792     28        0       
       lv_btn.obj                        160      28        0       
    +--+---------------------------------+--------+---------+----------+
       Total:                            108160   594       32      
                                                                    
    .\PRU\
       LEDMatrix.obj                     96       1168      0       
       PRULoader.obj                     608      0         0       
    +--+---------------------------------+--------+---------+----------+
       Total:                            704      1168      0       
                                                                    
    .\Periph\
       DDR2.obj                          1472     424       80      
       RTC.obj                           1216     0         36      
       PLL.obj                           992      0         52      
       UART1.obj                         896      0         0       
       EHRPWM.obj                        768      0         0       
       Timer.obj                         256      0         1       
    +--+---------------------------------+--------+---------+----------+
       Total:                            5600     424       169     
                                                                    
    .\Periph\GPIO\
       LEDNixie.obj                      1248     0         20      
       LED.obj                           1024     0         4       
       KEY.obj                           992      0         8       
       BUZZER.obj                        320      0         0       
    +--+---------------------------------+--------+---------+----------+
       Total:                            3584     0         32      
                                                                    
    .\Periph\I2C\
       I2C.obj                           1664     0         10      
       EEPROM.obj                        1024     240       0       
       TempSensor.obj                    704      0         0       
    +--+---------------------------------+--------+---------+----------+
       Total:                            3392     240       10      
                                                                    
    .\Periph\LCD\
       LCD.obj                           1248     0         768068  
       Touch.obj                         1632     148       42      
    +--+---------------------------------+--------+---------+----------+
       Total:                            2880     148       768110  
                                                                    
    .\Periph\SATA\
       SATA.obj                          1696     0         1196    
       SATATest.obj                      672      56        0       
    +--+---------------------------------+--------+---------+----------+
       Total:                            2368     56        1196    
                                                                    
    .\Periph\SPI\
       Flash.obj                         2592     304       800     
    +--+---------------------------------+--------+---------+----------+
       Total:                            2592     304       800     
                                                                    
    C:\Users\F\Desktop\Board_C674x\Debug\configPkg\package\cfg\
       Local_pe674.oe674                 10464    8387      33568550
    +--+---------------------------------+--------+---------+----------+
       Total:                            10464    8387      33568550
                                                                    
    ../Library/StarterWare/Drivers/drivers.lib
       rtc.obj                           6048     0         0       
       raster.obj                        3584     0         0       
       ehrpwm.obj                        3520     0         0       
       spi.obj                           1440     0         0       
       gpio.obj                          1408     16        0       
       uart.obj                          1408     0         0       
       i2c.obj                           1216     0         0       
       psc.obj                           320      0         0       
    +--+---------------------------------+--------+---------+----------+
       Total:                            18944    16        0       
                                                                    
    C:\Users\F\Desktop\Board_C674x\BIOS\sysbios\sysbios.ae674
       BIOS.obj                          50912    1452      0       
       c64p_Hwi_disp_always.obj          512      0         0       
       c64p_Exception_asm.obj            384      0         0       
       c64p_Hwi_asm_switch.obj           288      0         0       
       c62_TaskSupport_asm.obj           224      0         0       
       c64p_Hwi_asm.obj                  160      0         0       
    +--+---------------------------------+--------+---------+----------+
       Total:                            52480    1452      0       
                                                                    
    C:\ti\ndk_2_24_03_35\packages\ti\ndk\hal\timer_bios\lib\hal_timer_bios.ae674
       lltimer.oe674                     160      0         28      
    +--+---------------------------------+--------+---------+----------+
       Total:                            160      0         28      
                                                                    
    C:\ti\ndk_2_24_03_35\packages\ti\ndk\hal\userled_stub\lib\hal_userled_stub.ae674
       llled.oe674                       32       0         0       
    +--+---------------------------------+--------+---------+----------+
       Total:                            32       0         0       
                                                                    
    C:\ti\ndk_2_24_03_35\packages\ti\ndk\os\lib\os.ae674
       task.oe674                        192      0         24      
       semaphore.oe674                   32       0         0       
    +--+---------------------------------+--------+---------+----------+
       Total:                            224      0         24      
                                                                    
    C:\ti\ti-cgt-c6000_8.3.12\lib\rts6740_elf.lib
       _printfi.c.obj                    13664    92        0       
       _scanfi.c.obj                     9056     121       0       
       strtod.c.obj                      2336     200       0       
       divd.c.obj                        1536     0         0       
       strtoll.c.obj                     1216     0         0       
       strtoull.c.obj                    1088     0         0       
       strtol.c.obj                      928      0         0       
       defs.c.obj                        0        0         804     
       imath64.c.obj                     800      0         0       
       strtoul.c.obj                     768      0         0       
       fputs.c.obj                       736      0         0       
       sscanf.c.obj                      512      0         0       
       trgmsg.c.obj                      224      0         288     
       dtor_list.c.obj                   448      0         4       
       fputc.c.obj                       448      0         0       
       frexp.c.obj                       448      0         0       
       getdevice.c.obj                   448      0         0       
       imath40.c.obj                     448      0         0       
       ldexp.c.obj                       448      0         0       
       setvbuf.c.obj                     448      0         0       
       hostrename.c.obj                  416      0         0       
       write.c.obj                       96       0         280     
       asctime.c.obj                     160      184       26      
       snprintf.c.obj                    320      0         0       
       copy_decompress_rle.c.obj         288      0         0       
       printf.c.obj                      288      0         0       
       exit.c.obj                        256      0         12      
       ctype.c.obj                       0        257       0       
       atoi.c.obj                        256      0         0       
       fclose.c.obj                      256      0         0       
       fseek.c.obj                       256      0         0       
       hostopen.c.obj                    224      0         8       
       _io_perm.c.obj                    224      0         0       
       _ltoa.c.obj                       224      0         0       
       close.c.obj                       224      0         0       
       divi.asm.obj                      224      0         0       
       hostlseek.c.obj                   224      0         0       
       hostwrite.c.obj                   224      0         0       
       llshift.c.obj                     224      0         0       
       memset.c.obj                      224      0         0       
       divu.asm.obj                      192      0         0       
       hostread.c.obj                    192      0         0       
       hostunlink.c.obj                  192      0         0       
       remi.asm.obj                      192      0         0       
       sprintf.c.obj                     192      0         0       
       fflush.c.obj                      160      0         0       
       fopen.c.obj                       160      0         0       
       hostclose.c.obj                   160      0         0       
       memcpy64.asm.obj                  160      0         0       
       remu.asm.obj                      160      0         0       
       vsprintf.c.obj                    160      0         0       
       strcat.c.obj                      128      0         0       
       unlink.c.obj                      128      0         0       
       _lock.c.obj                       96       0         8       
       lseek.c.obj                       96       0         0       
       memccpy.c.obj                     96       0         0       
       memcmp.c.obj                      96       0         0       
       strcmp.c.obj                      96       0         0       
       strcpy.c.obj                      96       0         0       
       strncmp.c.obj                     96       0         0       
       args_main.c.obj                   64       0         0       
       frcmpyd_div.c.obj                 64       0         0       
       isinf.c.obj                       64       0         0       
       push.asm.obj                      64       0         0       
       strasg.asm.obj                    64       0         0       
       strlen.c.obj                      64       0         0       
       wcslen.c.obj                      64       0         0       
       errno.c.obj                       32       0         4       
       copy_decompress_none.c.obj        32       0         0       
       signbit.c.obj                     32       0         0       
    +--+---------------------------------+--------+---------+----------+
       Total:                            44000    854       1434    
                                                                    
    C:\ti\xdctools_3_25_06_96\packages\ti\targets\rts6000\lib\boot.ae674
       autoinit.oe674                    320      0         0       
       boot.oe674                        160      0         0       
    +--+---------------------------------+--------+---------+----------+
       Total:                            480      0         0       
                                                                    
    C:\ti\xdctools_3_25_06_96\packages\ti\targets\rts6000\lib\ti.targets.rts6000.ae674
       System.oe674                      3232     25        0       
       Text.oe674                        1760     64        0       
       Error.oe674                       992      88        0       
       Startup.oe674                     864      44        0       
       Core-mem.oe674                    800      0         0       
       SysMin.oe674                      704      0         0       
       LoggerSys.oe674                   640      0         0       
       Log.oe674                         512      72        0       
       Memory.oe674                      384      0         0       
       Assert.oe674                      160      4         0       
       Core-label.oe674                  128      0         0       
       Core-params.oe674                 128      0         0       
       Gate.oe674                        64       0         0       
       Registry.oe674                    64       0         0       
    +--+---------------------------------+--------+---------+----------+
       Total:                            10432    297       0       
                                                                    
       Stack:                            0        0         16384   
       Linker Generated:                 0        3949      0       
    +--+---------------------------------+--------+---------+----------+
       Grand Total:                      776800   46289     34590343


LINKER GENERATED COPY TABLES

__TI_cinit_table @ c21c1e68 records: 5, size/record: 8, table size: 40
	.fardata: load addr=c21c0f20, load size=00000ea9 bytes, run addr=c21bec00, run size=0000181c bytes, compression=rle
	.neardata: load addr=c21c1dc9, load size=00000068 bytes, run addr=c21c0ad4, run size=000000b3 bytes, compression=rle
	SystemHeap: load addr=c21c1e31, load size=00000016 bytes, run addr=c0000000, run size=02000000 bytes, compression=rle
	.far: load addr=c21c1e47, load size=0000000d bytes, run addr=c2000000, run size=000f73fc bytes, compression=rle
	.bss: load addr=c21c1e54, load size=00000009 bytes, run addr=c21c09e8, run size=000000ea bytes, compression=rle


LINKER GENERATED HANDLER TABLE

__TI_handler_table @ c21c1e60 records: 2, size/record: 4, table size: 8
	index: 0, handler: __TI_decompress_rle24
	index: 1, handler: __TI_decompress_none


GLOBAL SYMBOLS: SORTED ALPHABETICALLY BY Name 

address   name                                                                
-------   ----                                                                
c21a976c  BUZZERBeep                                                          
c21a97c8  BUZZERInit                                                          
c21b37e0  C$$EXIT                                                             
c21b04d8  C$$IO$$                                                             
c21a2820  CRC8                                                                
c21a6e00  CacheInit                                                           
c21a1294  ChopperWaveform                                                     
c20f5d28  CmdHistory                                                          
c21c0b27  CmdHistoryDisplayIndex                                              
c21c0b26  CmdHistorySaveIndex                                                 
c21c0b25  CmdHistorySaveNo                                                    
c21a8ea0  CmdLineProcess                                                      
c21bec00  CmdLists                                                            
c218e2e8  Cmd_Buzzer                                                          
c218e154  Cmd_DDR2                                                            
c218e3a8  Cmd_Date                                                            
c218e014  Cmd_EEPROM                                                          
c218e1c4  Cmd_EHRPWM                                                          
c218de20  Cmd_Help                                                            
c218dec0  Cmd_LED                                                             
c218e100  Cmd_PRULoad                                                         
c218e454  Cmd_RTC                                                             
c218e290  Cmd_SATA                                                            
c218dfb8  Cmd_SPIFlash                                                        
c218e06c  Cmd_TL2640                                                          
c218e6e0  Cmd_WIFI                                                            
c21af340  ConsoleLogger                                                       
c2198f18  DSP_core_MEM_Test                                                   
c219b3ec  Delay                                                               
c219cd70  EEPROMByteWrite                                                     
c219ce54  EEPROMPageRead                                                      
c219cdc8  EEPROMPageWrite                                                     
c219cee4  EEPROMRandomRead                                                    
c219cb40  EEPROMTest                                                          
c21837ec  EHRPWMAQContSWForceOnA                                              
c2183848  EHRPWMAQContSWForceOnB                                              
c2183a78  EHRPWMChopperDisable                                                
c2183a54  EHRPWMChopperEnable                                                 
c2183f84  EHRPWMClockDisable                                                  
c2183fc0  EHRPWMClockDisableStatusGet                                         
c2183f68  EHRPWMClockEnable                                                   
c2183fa0  EHRPWMClockEnableStatusGet                                          
c2183ed8  EHRPWMConfigHR                                                      
c2183640  EHRPWMConfigureAQActionOnA                                          
c21836f4  EHRPWMConfigureAQActionOnB                                          
c21839a0  EHRPWMConfigureChopperDuty                                          
c21839d8  EHRPWMConfigureChopperFreq                                          
c2183a20  EHRPWMConfigureChopperOSPW                                          
c218396c  EHRPWMDBConfigureFED                                                
c218393c  EHRPWMDBConfigureRED                                                
c218390c  EHRPWMDBOutput                                                      
c21838d8  EHRPWMDBPolaritySelect                                              
c21838a4  EHRPWMDBSourceSelect                                                
c2183db4  EHRPWMETEventCount                                                  
c2183df4  EHRPWMETIntClear                                                    
c2183d08  EHRPWMETIntDisable                                                  
c2183d2c  EHRPWMETIntEnable                                                   
c2183d84  EHRPWMETIntPrescale                                                 
c2183e18  EHRPWMETIntSWForce                                                  
c2183d50  EHRPWMETIntSourceSelect                                             
c2183dd4  EHRPWMETIntStatus                                                   
c2183f44  EHRPWMHRDisable                                                     
c21834f4  EHRPWMLoadCMPA                                                      
c2183e74  EHRPWMLoadCMPAHR                                                    
c2183594  EHRPWMLoadCMPB                                                      
c2183e40  EHRPWMLoadTBPHSHR                                                   
c21832e0  EHRPWMPWMOpFreqSet                                                  
c2183490  EHRPWMReadTBCount                                                   
c21837a8  EHRPWMSWForceA                                                      
c21837cc  EHRPWMSWForceB                                                      
c218344c  EHRPWMSyncOutModeSet                                                
c21834c8  EHRPWMTBClearStatus                                                 
c2183384  EHRPWMTBEmulationModeSet                                            
c21834a8  EHRPWMTBStatusGet                                                   
c2183ca0  EHRPWMTZFlagClear                                                   
c2183c78  EHRPWMTZFlagGet                                                     
c2183b54  EHRPWMTZForceAOnTrip                                                
c2183b88  EHRPWMTZForceBOnTrip                                                
c2183c18  EHRPWMTZIntDisable                                                  
c2183bbc  EHRPWMTZIntEnable                                                   
c2183cc0  EHRPWMTZSWFrcEvent                                                  
c2183af8  EHRPWMTZTripEventDisable                                            
c2183aa0  EHRPWMTZTripEventEnable                                             
c2183220  EHRPWMTimebaseClkConfig                                             
c2183410  EHRPWMTimebaseSyncDisable                                           
c21833b8  EHRPWMTimebaseSyncEnable                                            
c2183430  EHRPWMTriggerSWSync                                                 
c2183478  EHRPWMWriteTBCount                                                  
c21a50a0  ExceptionHook                                                       
c21a52a8  ExceptionReturnHook                                                 
c21a5270  ExternalExceptionHook                                               
c21b18c0  FunEntryHook                                                        
c21b18d0  FunExitHook                                                         
c2199b24  GPIOBankIntDisable                                                  
c2199af4  GPIOBankIntEnable                                                   
c21a1060  GPIOBankPinMuxSet                                                   
c2199b50  GPIOBankPinsWrite                                                   
c2199718  GPIODirModeGet                                                      
c2199680  GPIODirModeSet                                                      
c21999c4  GPIOIntTypeGet                                                      
c2199858  GPIOIntTypeSet                                                      
c2199aac  GPIOPinIntClear                                                     
c2199a4c  GPIOPinIntStatus                                                    
c21997f8  GPIOPinRead                                                         
c2199778  GPIOPinWrite                                                        
c21ae080  HOSTclose                                                           
c21abf60  HOSTlseek                                                           
c21ac040  HOSTopen                                                            
c21ad540  HOSTread                                                            
c21a7dc0  HOSTrename                                                          
c21ad600  HOSTunlink                                                          
c21ac120  HOSTwrite                                                           
c21a6e6c  HardwareInit                                                        
c219b964  I2CDMARxEventDisable                                                
c219b918  I2CDMARxEventEnable                                                 
c219b940  I2CDMATxEventDisable                                                
c219b8f4  I2CDMATxEventEnable                                                 
c219b8e0  I2CDMATxRxEventDisable                                              
c20f7398  I2CData                                                             
c2195768  I2CHWRegRead                                                        
c2195648  I2CHWRegWrite                                                       
c2195960  I2CInit                                                             
c219b8a8  I2CInterruptVectorGet                                               
c219b708  I2CMasterBusBusy                                                    
c219b750  I2CMasterControl                                                    
c219b820  I2CMasterDataGet                                                    
c219b7f8  I2CMasterDataPut                                                    
c219b5b8  I2CMasterDisable                                                    
c219b580  I2CMasterEnable                                                     
c219b7d0  I2CMasterErr                                                        
c219b4e0  I2CMasterInitExpClk                                                 
c219b6c4  I2CMasterIntClearEx                                                 
c219b624  I2CMasterIntDisableEx                                               
c219b5d8  I2CMasterIntEnableEx                                                
c219b66c  I2CMasterIntStatus                                                  
c219b72c  I2CMasterIsBusy                                                     
c219b6f0  I2CMasterSlaveAddrSet                                               
c219b778  I2CMasterStart                                                      
c219b798  I2CMasterStop                                                       
c219b890  I2COwnAddressSet                                                    
c21954d0  I2CRcvBlocking                                                      
c21958c8  I2CRegBitClr                                                        
c2195828  I2CRegBitSet                                                        
c21956c0  I2CRegRead                                                          
c21955e0  I2CRegWrite                                                         
c21953c4  I2CSendBlocking                                                     
c219b878  I2CSetDataCount                                                     
c219b8c4  I2CSlaveAddressGet                                                  
c219b860  I2CSlaveDataGet                                                     
c219b838  I2CSlaveDataPut                                                     
c219b6d8  I2CSlaveIntClearEx                                                  
c219b648  I2CSlaveIntDisableEx                                                
c219b600  I2CSlaveIntEnableEx                                                 
c219b688  I2CSlaveIntStatus                                                   
c219b6a4  I2CSlaveIntStatusEx                                                 
c219b7b8  I2CStatusClear                                                      
c21a5238  InternalExceptionHook                                               
c219d9cc  KEY4Hwi                                                             
c219d8a8  KEY4Swi                                                             
c21c0a50  KEY4SwiHandle                                                       
c219da28  KEY6Hwi                                                             
c219d900  KEY6Swi                                                             
c21c0a54  KEY6SwiHandle                                                       
c219dad8  KEYInit                                                             
c219a2d4  LCDBacklightDisable                                                 
c219a288  LCDBacklightEnable                                                  
c219a324  LCDHwi                                                              
c219a444  LCDInit                                                             
c219a3e4  LCDTask                                                             
c219a414  LCDVersionGet                                                       
c219d0d4  LEDControl                                                          
c219d2f0  LEDInit                                                             
c21b03c0  LEDMatrixInit                                                       
c219a864  LEDNixieDisplay                                                     
c219aaec  LEDNixieInit                                                        
c219aa0c  LEDNixieTask                                                        
c21c0400  LEDNixieVal                                                         
c219d1d8  LEDTask                                                             
c21c0b5b  LED_OP                                                              
c21b3580  LED_TOGGLE                                                          
c21c0b6c  LODEPNG_VERSION_STRING                                              
c219f9c0  LVGLTask                                                            
c219f98c  LVGLTick                                                            
c21c0a58  LV_LAYOUT_FLEX                                                      
c21c0a5c  LV_LAYOUT_GRID                                                      
c21c0a60  LV_STYLE_FLEX_CROSS_PLACE                                           
c21c0a64  LV_STYLE_FLEX_FLOW                                                  
c21c0a68  LV_STYLE_FLEX_GROW                                                  
c21c0a6c  LV_STYLE_FLEX_MAIN_PLACE                                            
c21c0a70  LV_STYLE_FLEX_TRACK_PLACE                                           
c21c0a74  LV_STYLE_GRID_CELL_COLUMN_POS                                       
c21c0a78  LV_STYLE_GRID_CELL_COLUMN_SPAN                                      
c21c0a7c  LV_STYLE_GRID_CELL_ROW_POS                                          
c21c0a80  LV_STYLE_GRID_CELL_ROW_SPAN                                         
c21c0a84  LV_STYLE_GRID_CELL_X_ALIGN                                          
c21c0a88  LV_STYLE_GRID_CELL_Y_ALIGN                                          
c21c0a8c  LV_STYLE_GRID_COLUMN_ALIGN                                          
c21c0a90  LV_STYLE_GRID_COLUMN_DSC_ARRAY                                      
c21c0a94  LV_STYLE_GRID_ROW_ALIGN                                             
c21c0a98  LV_STYLE_GRID_ROW_DSC_ARRAY                                         
c2198c74  MEM_AddrTest                                                        
c2198dcc  MEM_Bit_Walking                                                     
c2198b20  MEM_FillTest                                                        
c21b0420  NDK_hookCreate                                                      
c21b1900  NDK_hookExit                                                        
c21b35a0  NDK_hookInit                                                        
c21a9160  NMIHook                                                             
c21c0b64  OSCINFreq                                                           
c219db20  PLLClockGet                                                         
c219de98  PLLClockOut                                                         
c21a4514  PRUDisable                                                          
c21a44c0  PRUEnable                                                           
c21a4558  PRULoad                                                             
c21a464c  PRURun                                                              
c21a4690  PRUWaitForHalt                                                      
c21a9be0  PSCModuleControl                                                    
c21a10f4  PWM1ABasic                                                          
c21a1300  PWMInit                                                             
c216ff8c  RTC32KClkClockControl                                               
c216ff18  RTC32KClkSourceSelect                                               
c2170328  RTCAlarm2CalendarSet                                                
c2170280  RTCAlarm2IntStatusClear                                             
c2170260  RTCAlarm2IntStatusGet                                               
c21702a0  RTCAlarm2TimeSet                                                    
c216fc68  RTCAlarmCalendarGet                                                 
c216fc00  RTCAlarmCalendarSet                                                 
c216fb20  RTCAlarmDayOfMonthGet                                               
c216fad4  RTCAlarmDayOfMonthSet                                               
c216f924  RTCAlarmHourGet                                                     
c216f998  RTCAlarmHourMeridiemGet                                             
c216f940  RTCAlarmHourMeridiemSet                                             
c216f8d8  RTCAlarmHourSet                                                     
c216eee0  RTCAlarmIntStatusClear                                              
c216eec0  RTCAlarmIntStatusGet                                                
c216f8c0  RTCAlarmMinuteGet                                                   
c216f874  RTCAlarmMinuteSet                                                   
c216fb84  RTCAlarmMonthGet                                                    
c216fb38  RTCAlarmMonthSet                                                    
c216f858  RTCAlarmSecondGet                                                   
c216f810  RTCAlarmSecondSet                                                   
c216fa2c  RTCAlarmTimeGet                                                     
c216f9b8  RTCAlarmTimeSet                                                     
c216fbe8  RTCAlarmYearGet                                                     
c216fba0  RTCAlarmYearSet                                                     
c216f000  RTCAutoCompDisable                                                  
c216efb8  RTCAutoCompEnable                                                   
c216ee88  RTCBusyStatusGet                                                    
c216f798  RTCCalendarGet                                                      
c216f724  RTCCalendarSet                                                      
c216fd24  RTCCompensationGet                                                  
c216fcc0  RTCCompensationSet                                                  
c217011c  RTCConfigPmicExtWake                                                
c2170178  RTCConfigPmicExtWakeDebounce                                        
c21700ac  RTCConfigPmicExtWakePolarity                                        
c217006c  RTCConfigPmicPowerEnable                                            
c216f4d0  RTCDayOfMonthGet                                                    
c216f484  RTCDayOfMonthSet                                                    
c216f5f4  RTCDayOfTheWeekGet                                                  
c216f5ac  RTCDayOfTheWeekSet                                                  
c216f1d4  RTCDisable                                                          
c216f214  RTCEnable                                                           
c216f278  RTCEnableStatus                                                     
c216ef00  RTCEventUpdateGet                                                   
c2170020  RTCFeedbackResistanceSelect                                         
c216f3f4  RTCHourGet                                                          
c216f0cc  RTCHourModeGet                                                      
c216f058  RTCHourModeSet                                                      
c216f3a8  RTCHourSet                                                          
c219b204  RTCHwi                                                              
c216fde4  RTCIdleModeConfigure                                                
c219b460  RTCInit                                                             
c217021c  RTCIntAlarm2Enable                                                  
c216ed84  RTCIntAlarmDisable                                                  
c216ed3c  RTCIntAlarmEnable                                                   
c216ee40  RTCIntTimerDisable                                                  
c216edcc  RTCIntTimerEnable                                                   
c216f464  RTCMeridiemGet                                                      
c216f410  RTCMeridiemSet                                                      
c216ef64  RTCMinRoundingDisable                                               
c216ef20  RTCMinRoundingEnable                                                
c216f38c  RTCMinuteGet                                                        
c216f340  RTCMinuteSet                                                        
c216f534  RTCMonthGet                                                         
c216f4ec  RTCMonthSet                                                         
c216ffd8  RTCOscillatorStateControl                                           
c21701e8  RTCPmicExtWakeStatusClear                                           
c216fdcc  RTCRevisionIDGet                                                    
c216ec20  RTCRun                                                              
c216eea4  RTCRunStatusGet                                                     
c216fd88  RTCScratchPadGet                                                    
c216fd60  RTCScratchPadSet                                                    
c216f324  RTCSecondGet                                                        
c216f2d8  RTCSecondSet                                                        
c219b100  RTCSet                                                              
c216f154  RTCSet32CounterDisable                                              
c216f0e8  RTCSet32CounterEnable                                               
c216fdac  RTCSoftwareReset                                                    
c216f2b8  RTCSplitPwrDisable                                                  
c216f298  RTCSplitPwrEnable                                                   
c216ec64  RTCStop                                                             
c216fecc  RTCTestModeControl                                                  
c20f7228  RTCTime                                                             
c216f6a0  RTCTimeGet                                                          
c216f610  RTCTimeSet                                                          
c216fe30  RTCWakeUpAlarmEventControl                                          
c216fe80  RTCWakeUpTimerEventControl                                          
c216ed08  RTCWriteProtectDisable                                              
c216ece0  RTCWriteProtectEnable                                               
c216f594  RTCYearGet                                                          
c216f550  RTCYearSet                                                          
c2182494  RasterAutoUnderFlowDisable                                          
c2182474  RasterAutoUnderFlowEnable                                           
c21829c8  RasterByteSwapDisable                                               
c21829a4  RasterByteSwapEnable                                                
c2182b54  RasterClearGetIntStatus                                             
c2182420  RasterClkConfig                                                     
c2182db4  RasterClocksEnable                                                  
c218310c  RasterContextRestore                                                
c2183024  RasterContextSave                                                   
c2182968  RasterDMAConfig                                                     
c2182b0c  RasterDMAFBConfig                                                   
c2182e40  RasterDMASoftWareClkDisable                                         
c2182e18  RasterDMASoftWareClkEnable                                          
c21824d8  RasterDisable                                                       
c2182f48  RasterDmaMasterPrioritySet                                          
c21824b4  RasterEnable                                                        
c2182a10  RasterEndOfFrameIntDisable                                          
c21829ec  RasterEndOfFrameIntEnable                                           
c21826e0  RasterFIFODMADelayConfig                                            
c2182728  RasterHparamConfig                                                  
c2182460  RasterIdGet                                                         
c2182fd8  RasterIdleModeConfig                                                
c2182648  RasterIntDisable                                                    
c21825e0  RasterIntEnable                                                     
c2182a94  RasterIntRawStatus                                                  
c2182ae0  RasterIntRawStatusSet                                               
c2182a34  RasterIntStatus                                                     
c21825a0  RasterLSBDataOrderSelect                                            
c21825c0  RasterMSBDataOrderSelect                                            
c2182500  RasterModeConfig                                                    
c21826c0  RasterNibbleModeDisable                                             
c21826a0  RasterNibbleModeEnable                                              
c2182df4  RasterSoftWareClkDisable                                            
c2182dd0  RasterSoftWareClkEnable                                             
c2182ed4  RasterSoftWareResetControlDisable                                   
c2182e64  RasterSoftWareResetControlEnable                                    
c2182f90  RasterStandbyModeConfig                                             
c2182c10  RasterSubPanelConfig                                                
c2182bec  RasterSubPanelDisable                                               
c2182bcc  RasterSubPanelEnable                                                
c21828f4  RasterTiming2Configure                                              
c2182804  RasterVparamConfig                                                  
c20f6f00  RcvFis                                                              
c218d844  ReadLine                                                            
c219b430  RtcVersionGet                                                       
c21a2f48  SATATest                                                            
c21c0318  SEGVal                                                              
c218c0b8  SPI1CSPinMuxSet                                                     
c2199358  SPICSTimerDisable                                                   
c2199380  SPICSTimerEnable                                                    
c21993a8  SPICharLengthSet                                                    
c21990e0  SPIClkConfigure                                                     
c21993f8  SPIConfigClkFormat                                                  
c21992c8  SPIDat1Config                                                       
c2199630  SPIDataReceive                                                      
c21992a4  SPIDefaultCSSet                                                     
c21991e4  SPIDelayConfigure                                                   
c2199128  SPIEnable                                                           
c218ca08  SPIFlashInit                                                        
c218c9c0  SPIFlashTest                                                        
c218c860  SPIHwi                                                              
c21995d0  SPIIntDisable                                                       
c21995ac  SPIIntEnable                                                        
c2199584  SPIIntLevelSet                                                      
c219960c  SPIIntStatus                                                        
c21995f4  SPIIntStatusClear                                                   
c219964c  SPIInterruptVectorGet                                               
c2199174  SPIModeConfigure                                                    
c2199160  SPIOutOfReset                                                       
c21994d4  SPIParityDisable                                                    
c2199480  SPIParityEnable                                                     
c2199198  SPIPinControl                                                       
c2199144  SPIReset                                                            
c2199454  SPIShiftLsbFirst                                                    
c219942c  SPIShiftMsbFirst                                                    
c219932c  SPITransmitData1                                                    
c2199558  SPIWaitDisable                                                      
c2199530  SPIWaitEnable                                                       
c2199500  SPIWdelaySet                                                        
c21b35c0  SemPost                                                             
c21c0b60  SoftPWM                                                             
c21bfb90  TSK_idle                                                            
c21a5f40  TaskExit                                                            
c219c720  TaskSleep                                                           
c21a28f0  TempSensorGet                                                       
c21a2a70  TempSensorInit                                                      
c21aabb8  TimerHwi                                                            
c21aac00  TimerInit                                                           
c21a8440  Timer_getNextAvailableTimerId                                       
c2195d0c  TouchHwi                                                            
c20f71fc  TouchInfo                                                           
c2195dc0  TouchInit                                                           
c2195b38  TouchXYGet                                                          
c219f6d4  UART1Hwi                                                            
c219f890  UART1Init                                                           
c219f7d8  UART1Puts                                                           
c219a064  UARTBreakCtl                                                        
c2199f54  UARTCharGet                                                         
c2199f28  UARTCharGetNonBlocking                                              
c2199f90  UARTCharPut                                                         
c2199ee8  UARTCharPutNonBlocking                                              
c2199e98  UARTCharsAvail                                                      
c2199c94  UARTConfigGetExpClk                                                 
c2199c00  UARTConfigSetExpClk                                                 
c218d644  UARTConsoleHwi                                                      
c218ddc4  UARTConsoleInit                                                     
c21c0a9c  UARTConsoleSemHandle                                                
c218dc44  UARTConsoleTask                                                     
c21c0aa0  UARTConsoleTaskHandle                                               
c2199d6c  UARTDMADisable                                                      
c2199d4c  UARTDMAEnable                                                       
c2199e14  UARTDisable                                                         
c2199df8  UARTEnable                                                          
c2199e54  UARTFIFODisable                                                     
c2199e40  UARTFIFOEnable                                                      
c2199d28  UARTFIFOLevelSet                                                    
c219a010  UARTIntDisable                                                      
c2199fe8  UARTIntEnable                                                       
c219a038  UARTIntStatus                                                       
c219a0f0  UARTModemControlClear                                               
c219a124  UARTModemControlGet                                                 
c219a098  UARTModemControlSet                                                 
c219a144  UARTModemStatusGet                                                  
c2199dd4  UARTParityModeGet                                                   
c2199d8c  UARTParityModeSet                                                   
c2199ec8  UARTRxErrorGet                                                      
c2199e6c  UARTSpaceAvail                                                      
c218d7ac  UARTprintf                                                          
c21ad6c0  _Z23__finalize_destructionsPP20a_needed_destructionPv               
c0000000  __ASM__                                                             
c21c0e00  __CIOBUF_                                                           
c0000058  __ISA__                                                             
c0000070  __PLAT__                                                            
c00000a0  __TARG__                                                            
c21c1e68  __TI_CINIT_Base                                                     
c21c1e90  __TI_CINIT_Limit                                                    
c21c1e60  __TI_Handler_Table_Base                                             
c21c1e68  __TI_Handler_Table_Limit                                            
UNDEFED   __TI_INITARRAY_Base                                                 
UNDEFED   __TI_INITARRAY_Limit                                                
00804000  __TI_STACK_END                                                      
00004000  __TI_STACK_SIZE                                                     
c21c09e8  __TI_STATIC_BASE                                                    
c21ae120  __TI_cleanup                                                        
c21c0328  __TI_cleanup_ptr                                                    
c21aac60  __TI_closefile                                                      
c21b3820  __TI_decompress_none                                                
c21b3840  __TI_decompress_rle24                                               
c21ae1c0  __TI_doflush                                                        
c21c032c  __TI_dtors_ptr                                                      
c21c0330  __TI_enable_exit_profile_output                                     
c21b1940  __TI_frcmpyd_div                                                    
c21c00ec  __TI_ft_end                                                         
c21ac200  __TI_ltoa                                                           
ffffffff  __TI_pprof_out_hndl                                                 
c2155ce0  __TI_printfi                                                        
ffffffff  __TI_prof_data_size                                                 
ffffffff  __TI_prof_data_start                                                
c21af3c0  __TI_readmsg                                                        
c2157da0  __TI_scanfi                                                         
c20f6928  __TI_tmpnams                                                        
c21b0480  __TI_writemsg                                                       
c21ac2e0  __TI_wrt_ok                                                         
c00000c8  __TRDR__                                                            
ffffffff  __binit__                                                           
c2197920  __c6xabi_divd                                                       
c21ac3c0  __c6xabi_divi                                                       
c21ad840  __c6xabi_divu                                                       
c21a6700  __c6xabi_divul                                                      
c21a4720  __c6xabi_divull                                                     
c21b35e0  __c6xabi_errno_addr                                                 
c21b1980  __c6xabi_isinf                                                      
c21af440  __c6xabi_llshl                                                      
c21b04e0  __c6xabi_llshru                                                     
c21b3620  __c6xabi_pop_rts                                                    
c21b3640  __c6xabi_push_rts                                                   
c21ad900  __c6xabi_remi                                                       
c21ae260  __c6xabi_remu                                                       
c21b0540  __c6xabi_remull                                                     
c21b1a00  __c6xabi_strasgi_64plus                                             
ffffffff  __c_args__                                                          
c21ad780  __cxa_atexit                                                        
c21b3600  __cxa_ia64_exit                                                     
c21ac3c0  __divi                                                              
c21ad840  __divu                                                              
c21c01c4  __errno                                                             
c21b3620  __pop_rts                                                           
c21b3640  __push_rts                                                          
c21ad900  __remi                                                              
c21ae260  __remu                                                              
c21b1a00  __strasgi_64plus                                                    
c21b1a40  _args_main                                                          
00000000  _argsize                                                            
c21a9820  _auto_init_elf                                                      
c21ae300  _c_int00                                                            
c21bc2f8  _ctypes_                                                            
c21bfe08  _device                                                             
c21bf800  _ftable                                                             
c21bfd04  _lock                                                               
c217e3e0  _lv_anim_core_init                                                  
c20f7314  _lv_anim_ll                                                         
c21760d0  _lv_area_intersect                                                  
c2176ae4  _lv_area_is_equal                                                   
c2176710  _lv_area_is_in                                                      
c2176670  _lv_area_is_on                                                      
c2176904  _lv_area_is_out                                                     
c21762c0  _lv_area_is_point_on                                                
c21761e8  _lv_area_join                                                       
c2175ee0  _lv_area_set_pos                                                    
c21be900  _lv_bpp1_opa_table                                                  
c21be628  _lv_bpp2_opa_table                                                  
c21be4f0  _lv_bpp4_opa_table                                                  
c21bc400  _lv_bpp8_opa_table                                                  
c20f70a0  _lv_circle_cache                                                    
c217e120  _lv_disp_get_refr_timer                                             
c20f7320  _lv_disp_ll                                                         
c213f528  _lv_disp_refr_timer                                                 
c2117a00  _lv_draw_mask_cleanup                                               
c20f6e80  _lv_draw_mask_list                                                  
c2171ea8  _lv_event_mark_deleted                                              
c2188e24  _lv_font_clean_up_fmt_txt                                           
c2177220  _lv_fs_init                                                         
c20f732c  _lv_fsdrv_ll                                                        
c21a9000  _lv_gc_clear_roots                                                  
c21c0aa4  _lv_grad_cache_mem                                                  
c2179ac0  _lv_group_init                                                      
c20f7338  _lv_group_ll                                                        
c21381e8  _lv_img_buf_get_transformed_area                                    
c2138894  _lv_img_buf_transform                                               
c2138d6c  _lv_img_buf_transform_anti_alias                                    
c2137eac  _lv_img_buf_transform_init                                          
c21a9e60  _lv_img_cache_open                                                  
c20f71d0  _lv_img_cache_single                                                
c21653a4  _lv_img_decoder_init                                                
c20f7344  _lv_img_decoder_ll                                                  
c20f7350  _lv_indev_ll                                                        
c219c1e0  _lv_indev_read                                                      
c215fbb0  _lv_indev_scroll_handler                                            
c215fe28  _lv_indev_scroll_throw_handler                                      
c213f214  _lv_inv_area                                                        
c21c0aa8  _lv_layout_list                                                     
c218f4b0  _lv_ll_chg_list                                                     
c218f444  _lv_ll_clear                                                        
c218f5a8  _lv_ll_get_head                                                     
c218f6ec  _lv_ll_get_len                                                      
c218f64c  _lv_ll_get_next                                                     
c218f698  _lv_ll_get_prev                                                     
c218f5f8  _lv_ll_get_tail                                                     
c218f0c0  _lv_ll_init                                                         
c218f114  _lv_ll_ins_head                                                     
c218f1b0  _lv_ll_ins_prev                                                     
c218f2b8  _lv_ll_ins_tail                                                     
c218f838  _lv_ll_is_empty                                                     
c218f750  _lv_ll_move_before                                                  
c218f354  _lv_ll_remove                                                       
c2196fe0  _lv_obj_destruct                                                    
c216ebac  _lv_obj_get_ext_draw_size                                           
c213a7b4  _lv_obj_style_apply_color_filter                                    
c213a454  _lv_obj_style_create_transition                                     
c213984c  _lv_obj_style_init                                                  
c213a874  _lv_obj_style_state_compare                                         
c20f735c  _lv_obj_style_trans_ll                                              
c213f4c4  _lv_refr_get_disp_refreshing                                        
c213ef00  _lv_refr_init                                                       
c213f4f0  _lv_refr_set_disp_refreshing                                        
c21bd2d8  _lv_style_builtin_prop_flag_lookup_table                            
c21c0aac  _lv_style_custom_prop_flag_lookup_table                             
c21c0b50  _lv_style_custom_prop_flag_lookup_table_size                        
c2184c18  _lv_style_get_prop_group                                            
c2184c70  _lv_style_prop_lookup_flags                                         
c21c0ab0  _lv_theme_basic_styles                                              
c21c0ab4  _lv_theme_default_styles                                            
c21c0ab8  _lv_timer_act                                                       
c2191ae0  _lv_timer_core_init                                                 
c20f7368  _lv_timer_ll                                                        
c216af24  _lv_txt_cut                                                         
c21c0adc  _lv_txt_encoded_conv_wc                                             
c21c0ae8  _lv_txt_encoded_get_byte_id                                         
c21c0aec  _lv_txt_encoded_get_char_id                                         
c216b0b8  _lv_txt_encoded_letter_next_2                                       
c21c0ae0  _lv_txt_encoded_next                                                
c21c0ae4  _lv_txt_encoded_prev                                                
c21c0ad4  _lv_txt_encoded_size                                                
c21c0af0  _lv_txt_get_encoded_length                                          
c216a8ec  _lv_txt_get_next_line                                               
c216ae08  _lv_txt_ins                                                         
c216ad2c  _lv_txt_is_cmd                                                      
c216b00c  _lv_txt_set_text_vfmt                                               
c21c0ad8  _lv_txt_unicode_to_encoded                                          
c21ab260  _lv_utils_bsearch                                                   
c21b3680  _nop                                                                
c21b3720  _register_lock                                                      
c21b3740  _register_unlock                                                    
c21b3760  _signbit                                                            
00800000  _stack                                                              
c21bfaa0  _stream                                                             
c21b05a0  _subcull                                                            
c21c007c  _unlock                                                             
c21b37e0  abort                                                               
c21ae4e0  asctime                                                             
c21b3800  atexit                                                              
c21aaf60  atoi                                                                
c219b078  bcd2dec                                                             
ffffffff  binit                                                               
c20db828  buff                                                                
c2194454  cfgDmaSetting                                                       
c21ac4a0  close                                                               
c219b0b4  dec2bcd                                                             
c211fa2c  draw_border_generic                                                 
c2194188  enableRcvFis                                                        
c21c01c4  errno                                                               
c21ac580  exit                                                                
c21ae580  finddevice                                                          
c21a68c0  fputc                                                               
c21a2260  fputs                                                               
c21b1c00  free                                                                
c21a6a80  frexp                                                               
c21a6a80  frexpl                                                              
c21ab060  fseek                                                               
c20f7160  g_cCmdBuf                                                           
c2000000  g_pucBuffer                                                         
c21bf9e0  g_sCmdTable                                                         
c2111fa8  get_tick_gsc                                                        
c21aa5c0  getdevice                                                           
c2194494  initBaseAddresses                                                   
c21945e0  initPhyAndDmaPars                                                   
c21943ec  invokeHBAReset                                                      
c2143be0  jd_decomp                                                           
c2143238  jd_prepare                                                          
c21a6c40  ldexp                                                               
c21a6c40  ldexpl                                                              
c21ae620  llTimerTick                                                         
c20ffbe0  lodepng_add_itext                                                   
c20ff6c4  lodepng_add_text                                                    
c20feda4  lodepng_can_have_alpha                                              
c20fd9ac  lodepng_chunk_ancillary                                             
c20fdfa0  lodepng_chunk_append                                                
c20fdad4  lodepng_chunk_check_crc                                             
c20fe248  lodepng_chunk_create                                                
c20fda78  lodepng_chunk_data                                                  
c20fdaa8  lodepng_chunk_data_const                                            
c20fde84  lodepng_chunk_find                                                  
c20fdf10  lodepng_chunk_find_const                                            
c20fdb54  lodepng_chunk_generate_crc                                          
c20fd834  lodepng_chunk_length                                                
c20fdbb0  lodepng_chunk_next                                                  
c20fdd20  lodepng_chunk_next_const                                            
c20fd9f0  lodepng_chunk_private                                               
c20fda34  lodepng_chunk_safetocopy                                            
c20fd874  lodepng_chunk_type                                                  
c20fd8e4  lodepng_chunk_type_equals                                           
c20ffd88  lodepng_clear_icc                                                   
c20ff9c0  lodepng_clear_itext                                                 
c20ff710  lodepng_clear_text                                                  
c20fe700  lodepng_color_mode_cleanup                                          
c20fe72c  lodepng_color_mode_copy                                             
c20fe598  lodepng_color_mode_init                                             
c20fe7e0  lodepng_color_mode_make                                             
c2102a98  lodepng_color_stats_init                                            
c20fd4f0  lodepng_compress_settings_init                                      
c2102bd4  lodepng_compute_color_stats                                         
c210230c  lodepng_convert                                                     
c20fd5c4  lodepng_crc32                                                       
c21076a0  lodepng_decode                                                      
c21079b0  lodepng_decode24                                                    
c2107b20  lodepng_decode24_file                                               
c2107944  lodepng_decode32                                                    
c2107acc  lodepng_decode32_file                                               
c2107a24  lodepng_decode_file                                                 
c210788c  lodepng_decode_memory                                               
c2107b70  lodepng_decoder_settings_init                                       
c20fd570  lodepng_decompress_settings_init                                    
c20fcd38  lodepng_deflate                                                     
c210ac04  lodepng_encode                                                      
c210bac8  lodepng_encode24                                                    
c210bc24  lodepng_encode24_file                                               
c210ba54  lodepng_encode32                                                    
c210bbd0  lodepng_encode32_file                                               
c210bb38  lodepng_encode_file                                                 
c210b994  lodepng_encode_memory                                               
c210bc74  lodepng_encoder_settings_init                                       
c210bce4  lodepng_error_text                                                  
c20febc0  lodepng_get_bpp                                                     
c20fec08  lodepng_get_channels                                                
c20feea0  lodepng_get_raw_size                                                
c20fed08  lodepng_has_palette_alpha                                           
c20f9994  lodepng_huffman_code_lengths                                        
c20faccc  lodepng_inflate                                                     
c20ffecc  lodepng_info_cleanup                                                
c20fff24  lodepng_info_copy                                                   
c20ffdf0  lodepng_info_init                                                   
c2103f64  lodepng_inspect                                                     
c2106964  lodepng_inspect_chunk                                               
c20fec94  lodepng_is_alpha_type                                               
c20fec4c  lodepng_is_greyscale_type                                           
c20fecd4  lodepng_is_palette_type                                             
c20f80c4  lodepng_load_file                                                   
c20feaac  lodepng_palette_add                                                 
c20fea60  lodepng_palette_clear                                               
c20f816c  lodepng_save_file                                                   
c20ffd14  lodepng_set_icc                                                     
c2107c50  lodepng_state_cleanup                                               
c2107c94  lodepng_state_copy                                                  
c2107bec  lodepng_state_init                                                  
c20fd2cc  lodepng_zlib_compress                                               
c20fd140  lodepng_zlib_decompress                                             
c21b06c0  lseek                                                               
c217e934  lv_anim_count_running                                               
c217e760  lv_anim_del                                                         
c217e840  lv_anim_del_all                                                     
c217e878  lv_anim_get                                                         
c217e644  lv_anim_get_playtime                                                
c217e438  lv_anim_init                                                        
c217ed60  lv_anim_path_bounce                                                 
c217eaf4  lv_anim_path_ease_in                                                
c217ec2c  lv_anim_path_ease_in_out                                            
c217eb8c  lv_anim_path_ease_out                                               
c217ea70  lv_anim_path_linear                                                 
c217ecc4  lv_anim_path_overshoot                                              
c217ef44  lv_anim_path_step                                                   
c217ea44  lv_anim_refr_now                                                    
c217e9c8  lv_anim_speed_to_time                                               
c217e4c0  lv_anim_start                                                       
c21bdebc  lv_arc_class                                                        
c2148b88  lv_arc_create                                                       
c21496ac  lv_arc_get_angle_end                                                
c2149678  lv_arc_get_angle_start                                              
c2149710  lv_arc_get_bg_angle_end                                             
c21496e0  lv_arc_get_bg_angle_start                                           
c21497a8  lv_arc_get_max_value                                                
c2149774  lv_arc_get_min_value                                                
c21497d8  lv_arc_get_mode                                                     
c2149744  lv_arc_get_value                                                    
c2148ee4  lv_arc_set_angles                                                   
c2149230  lv_arc_set_bg_angles                                                
c21490b0  lv_arc_set_bg_end_angle                                             
c2148f34  lv_arc_set_bg_start_angle                                           
c2149628  lv_arc_set_change_rate                                              
c2148d58  lv_arc_set_end_angle                                                
c21492d8  lv_arc_set_mode                                                     
c214952c  lv_arc_set_range                                                    
c2149284  lv_arc_set_rotation                                                 
c2148bd4  lv_arc_set_start_angle                                              
c2149430  lv_arc_set_value                                                    
c2176b80  lv_area_align                                                       
c2175f68  lv_area_get_size                                                    
c2175fc8  lv_area_increase                                                    
c217604c  lv_area_move                                                        
c2175dd0  lv_area_set                                                         
c2175e94  lv_area_set_height                                                  
c2175e48  lv_area_set_width                                                   
c21aa6e0  lv_async_call                                                       
c21915ec  lv_atan2                                                            
c21bded8  lv_bar_class                                                        
c2167124  lv_bar_create                                                       
c2167628  lv_bar_get_max_value                                                
c21675e8  lv_bar_get_min_value                                                
c2167668  lv_bar_get_mode                                                     
c2167558  lv_bar_get_start_value                                              
c2167500  lv_bar_get_value                                                    
c2167470  lv_bar_set_mode                                                     
c2167378  lv_bar_set_range                                                    
c2167270  lv_bar_set_start_value                                              
c216716c  lv_bar_set_value                                                    
c2191444  lv_bezier3                                                          
c21966a0  lv_bmp_init                                                         
c21bdef4  lv_btn_class                                                        
c21ae6c0  lv_btn_create                                                       
c21bdf10  lv_btnmatrix_class                                                  
c212494c  lv_btnmatrix_clear_btn_ctrl                                         
c2124a98  lv_btnmatrix_clear_btn_ctrl_all                                     
c21242c0  lv_btnmatrix_create                                                 
c2124cec  lv_btnmatrix_get_btn_text                                           
c2124c6c  lv_btnmatrix_get_map                                                
c2124ee8  lv_btnmatrix_get_one_checked                                        
c2189914  lv_btnmatrix_get_popovers                                           
c2124cac  lv_btnmatrix_get_selected_btn                                       
c2124e44  lv_btnmatrix_has_btn_ctrl                                           
c212486c  lv_btnmatrix_set_btn_ctrl                                           
c2124a00  lv_btnmatrix_set_btn_ctrl_all                                       
c2124b34  lv_btnmatrix_set_btn_width                                          
c2124760  lv_btnmatrix_set_ctrl_map                                           
c212430c  lv_btnmatrix_set_map                                                
c2124c04  lv_btnmatrix_set_one_checked                                        
c21247c4  lv_btnmatrix_set_selected_btn                                       
c21bdf2c  lv_calendar_class                                                   
c21814e4  lv_calendar_create                                                  
c21819ec  lv_calendar_get_btnmatrix                                           
c2181aac  lv_calendar_get_highlighted_dates                                   
c2181aec  lv_calendar_get_highlighted_dates_num                               
c2181b2c  lv_calendar_get_pressed_date                                        
c2181a6c  lv_calendar_get_showed_date                                         
c2181a2c  lv_calendar_get_today_date                                          
c21bdf48  lv_calendar_header_arrow_class                                      
c219df44  lv_calendar_header_arrow_create                                     
c21bdf64  lv_calendar_header_dropdown_class                                   
c21a1360  lv_calendar_header_dropdown_create                                  
c218152c  lv_calendar_set_day_names                                           
c2181610  lv_calendar_set_highlighted_dates                                   
c2181678  lv_calendar_set_showed_date                                         
c21815a4  lv_calendar_set_today_date                                          
c210da70  lv_chart_add_cursor                                                 
c210d5e0  lv_chart_add_series                                                 
c21bdf80  lv_chart_class                                                      
c210c84c  lv_chart_create                                                     
c210dc38  lv_chart_get_cursor_point                                           
c210d100  lv_chart_get_point_count                                            
c210d180  lv_chart_get_point_pos_by_id                                        
c210e198  lv_chart_get_pressed_point                                          
c210d9f8  lv_chart_get_series_next                                            
c210d0b0  lv_chart_get_type                                                   
c210e158  lv_chart_get_x_array                                                
c210d140  lv_chart_get_x_start_point                                          
c210e118  lv_chart_get_y_array                                                
c210cf10  lv_chart_get_zoom_x                                                 
c210cf54  lv_chart_get_zoom_y                                                 
c210d8a0  lv_chart_hide_series                                                
c210d5a8  lv_chart_refresh                                                    
c210d818  lv_chart_remove_series                                              
c210dc78  lv_chart_set_all_value                                              
c210cf98  lv_chart_set_axis_tick                                              
c210dbb0  lv_chart_set_cursor_point                                           
c210db38  lv_chart_set_cursor_pos                                             
c210cd48  lv_chart_set_div_line_count                                         
c210e090  lv_chart_set_ext_x_array                                            
c210e00c  lv_chart_set_ext_y_array                                            
c210dd2c  lv_chart_set_next_value                                             
c210ddc8  lv_chart_set_next_value2                                            
c210ca38  lv_chart_set_point_count                                            
c210cb68  lv_chart_set_range                                                  
c210d920  lv_chart_set_series_color                                           
c210c898  lv_chart_set_type                                                   
c210cca8  lv_chart_set_update_mode                                            
c210de94  lv_chart_set_value_by_id                                            
c210df2c  lv_chart_set_value_by_id2                                           
c210d978  lv_chart_set_x_start_point                                          
c210cdf8  lv_chart_set_zoom_x                                                 
c210ce84  lv_chart_set_zoom_y                                                 
c21bdf9c  lv_checkbox_class                                                   
c218a30c  lv_checkbox_create                                                  
c218a490  lv_checkbox_get_text                                                
c218a358  lv_checkbox_set_text                                                
c218a410  lv_checkbox_set_text_static                                         
c2123714  lv_clamp_height                                                     
c2123564  lv_clamp_width                                                      
c2187750  lv_color_change_lightness                                           
c21876f8  lv_color_darken                                                     
c2187540  lv_color_fill                                                       
c2187818  lv_color_hsv_to_rgb                                                 
c21876a4  lv_color_lighten                                                    
c2187aa4  lv_color_rgb_to_hsv                                                 
c2187d64  lv_color_to_hsv                                                     
c21bdfb8  lv_colorwheel_class                                                 
c215df34  lv_colorwheel_create                                                
c215e26c  lv_colorwheel_get_color_mode                                        
c215e2b4  lv_colorwheel_get_color_mode_fixed                                  
c215e1d8  lv_colorwheel_get_hsv                                               
c215e214  lv_colorwheel_get_rgb                                               
c215df94  lv_colorwheel_set_hsv                                               
c215e10c  lv_colorwheel_set_mode                                              
c215e180  lv_colorwheel_set_mode_fixed                                        
c215e0a4  lv_colorwheel_set_rgb                                               
c2146a28  lv_deinit                                                           
c217e0a0  lv_disp_clean_dcache                                                
c2163bf4  lv_disp_draw_buf_init                                               
c2163aec  lv_disp_drv_init                                                    
c2163c60  lv_disp_drv_register                                                
c2163f30  lv_disp_drv_update                                                  
c2164bcc  lv_disp_drv_use_generic_set_px_cb                                   
c21649cc  lv_disp_flush_is_last                                               
c2164988  lv_disp_flush_ready                                                 
c21648a0  lv_disp_get_antialiasing                                            
c21642c8  lv_disp_get_default                                                 
c2164924  lv_disp_get_dpi                                                     
c2164aa0  lv_disp_get_draw_buf                                                
c21642f4  lv_disp_get_hor_res                                                 
c217df84  lv_disp_get_inactive_time                                           
c217d58c  lv_disp_get_layer_sys                                               
c217d52c  lv_disp_get_layer_top                                               
c2164a20  lv_disp_get_next                                                    
c2164638  lv_disp_get_offset_x                                                
c216476c  lv_disp_get_offset_y                                                
c2164450  lv_disp_get_physical_hor_res                                        
c2164544  lv_disp_get_physical_ver_res                                        
c2164b68  lv_disp_get_rotation                                                
c217d394  lv_disp_get_scr_act                                                 
c217d3f4  lv_disp_get_scr_prev                                                
c217d6ac  lv_disp_get_theme                                                   
c21643a4  lv_disp_get_ver_res                                                 
c217d454  lv_disp_load_scr                                                    
c2164124  lv_disp_remove                                                      
c217d6ec  lv_disp_set_bg_color                                                
c217d7ac  lv_disp_set_bg_image                                                
c217d854  lv_disp_set_bg_opa                                                  
c2164290  lv_disp_set_default                                                 
c2164ad0  lv_disp_set_rotation                                                
c217d5ec  lv_disp_set_theme                                                   
c217e034  lv_disp_trig_activity                                               
c21880ac  lv_draw_arc                                                         
c2188054  lv_draw_arc_dsc_init                                                
c2188184  lv_draw_arc_get_area                                                
c218ad34  lv_draw_img                                                         
c218b070  lv_draw_img_decoded                                                 
c218acc8  lv_draw_img_dsc_init                                                
c21b1c40  lv_draw_init                                                        
c2180690  lv_draw_label                                                       
c21805f8  lv_draw_label_dsc_init                                              
c2181338  lv_draw_letter                                                      
c21a86ac  lv_draw_line                                                        
c21a8654  lv_draw_line_dsc_init                                               
c21174d8  lv_draw_mask_add                                                    
c21181e0  lv_draw_mask_angle_init                                             
c21175c4  lv_draw_mask_apply                                                  
c21176b8  lv_draw_mask_apply_ids                                              
c2118864  lv_draw_mask_fade_init                                              
c2117944  lv_draw_mask_free_param                                             
c2117ab8  lv_draw_mask_get_cnt                                                
c2117b58  lv_draw_mask_is_any                                                 
c211812c  lv_draw_mask_line_angle_init                                        
c2117cd4  lv_draw_mask_line_points_init                                       
c2118910  lv_draw_mask_map_init                                               
c2118984  lv_draw_mask_polygon_init                                           
c2118458  lv_draw_mask_radius_init                                            
c211788c  lv_draw_mask_remove_custom                                          
c21177f8  lv_draw_mask_remove_id                                              
c21a4b60  lv_draw_rect                                                        
c21a4a80  lv_draw_rect_dsc_init                                               
c215bf00  lv_draw_sw_arc                                                      
c211c438  lv_draw_sw_bg                                                       
c214fda4  lv_draw_sw_blend                                                    
c214fe58  lv_draw_sw_blend_basic                                              
c21a17f0  lv_draw_sw_buffer_copy                                              
c21a1784  lv_draw_sw_deinit_ctx                                               
c2186960  lv_draw_sw_img_decoded                                              
c21a1688  lv_draw_sw_init_ctx                                                 
c218b654  lv_draw_sw_letter                                                   
c217ae48  lv_draw_sw_line                                                     
c2190260  lv_draw_sw_polygon                                                  
c211c3c0  lv_draw_sw_rect                                                     
c21a17c8  lv_draw_sw_wait_for_finish                                          
c213c6d8  lv_dropdown_add_option                                              
c21bdfd4  lv_dropdown_class                                                   
c213c9d0  lv_dropdown_clear_options                                           
c213d520  lv_dropdown_close                                                   
c213c354  lv_dropdown_create                                                  
c213cfe0  lv_dropdown_get_dir                                                 
c213cc90  lv_dropdown_get_list                                                
c213cda4  lv_dropdown_get_option_cnt                                          
c213cd0c  lv_dropdown_get_options                                             
c213cd64  lv_dropdown_get_selected                                            
c213cf8c  lv_dropdown_get_selected_highlight                                  
c213cde4  lv_dropdown_get_selected_str                                        
c213cf4c  lv_dropdown_get_symbol                                              
c213cccc  lv_dropdown_get_text                                                
c213d58c  lv_dropdown_is_open                                                 
c213d028  lv_dropdown_open                                                    
c213cb28  lv_dropdown_set_dir                                                 
c213c40c  lv_dropdown_set_options                                             
c213c598  lv_dropdown_set_options_static                                      
c213ca80  lv_dropdown_set_selected                                            
c213cc14  lv_dropdown_set_selected_highlight                                  
c213cbc8  lv_dropdown_set_symbol                                              
c213c3a4  lv_dropdown_set_text                                                
c21bdff0  lv_dropdownlist_class                                               
c2171d4c  lv_event_get_code                                                   
c2172c38  lv_event_get_cover_area                                             
c2171d20  lv_event_get_current_target                                         
c21728ec  lv_event_get_draw_ctx                                               
c2172878  lv_event_get_draw_part_dsc                                          
c2172bd4  lv_event_get_hit_test_info                                          
c2172738  lv_event_get_indev                                                  
c2172a0c  lv_event_get_key                                                    
c21729a8  lv_event_get_old_size                                               
c2171d8c  lv_event_get_param                                                  
c2172a98  lv_event_get_scroll_anim                                            
c2172b70  lv_event_get_self_size_info                                         
c2171cf0  lv_event_get_target                                                 
c2171db8  lv_event_get_user_data                                              
c2171e68  lv_event_register_id                                                
c2171b20  lv_event_send                                                       
c2172ca8  lv_event_set_cover_res                                              
c2172af8  lv_event_set_ext_draw_size                                          
c2171de8  lv_event_stop_bubbling                                              
c2171e28  lv_event_stop_processing                                            
c21a9dcc  lv_example_get_started_1                                            
c21b1c80  lv_extra_init                                                       
c215a138  lv_flex_init                                                        
c2188b80  lv_font_get_bitmap_fmt_txt                                          
c21a3580  lv_font_get_glyph_bitmap                                            
c21a35d4  lv_font_get_glyph_dsc                                               
c2188c54  lv_font_get_glyph_dsc_fmt_txt                                       
c21a37b8  lv_font_get_glyph_width                                             
c21be00c  lv_font_montserrat_14                                               
c2177494  lv_fs_close                                                         
c2177fd8  lv_fs_dir_close                                                     
c2177dd8  lv_fs_dir_open                                                      
c2177f14  lv_fs_dir_read                                                      
c2178094  lv_fs_drv_init                                                      
c21780c4  lv_fs_drv_register                                                  
c2178138  lv_fs_get_drv                                                       
c21782a4  lv_fs_get_ext                                                       
c21784cc  lv_fs_get_last                                                      
c21781e4  lv_fs_get_letters                                                   
c2177254  lv_fs_is_ready                                                      
c21772ec  lv_fs_open                                                          
c21778b8  lv_fs_read                                                          
c2177a8c  lv_fs_seek                                                          
c2177cec  lv_fs_tell                                                          
c217838c  lv_fs_up                                                            
c21779b4  lv_fs_write                                                         
c21856c4  lv_gradient_calculate                                               
c21859f4  lv_gradient_cleanup                                                 
c2185460  lv_gradient_free_cache                                              
c2185514  lv_gradient_get                                                     
c21854a8  lv_gradient_set_cache_size                                          
c214d814  lv_grid_init                                                        
c2179d50  lv_group_add_obj                                                    
c2179af4  lv_group_create                                                     
c2179bcc  lv_group_del                                                        
c217a478  lv_group_focus_freeze                                               
c217a3f8  lv_group_focus_next                                                 
c217a210  lv_group_focus_obj                                                  
c217a438  lv_group_focus_prev                                                 
c2179d24  lv_group_get_default                                                
c217a850  lv_group_get_editing                                                
c217a800  lv_group_get_focus_cb                                               
c217a788  lv_group_get_focused                                                
c217a934  lv_group_get_obj_count                                              
c217a8c4  lv_group_get_wrap                                                   
c217a150  lv_group_remove_all_objs                                            
c2179fc8  lv_group_remove_obj                                                 
c217a4e4  lv_group_send_data                                                  
c2179ce8  lv_group_set_default                                                
c217a5a4  lv_group_set_editing                                                
c217a564  lv_group_set_focus_cb                                               
c217a6d0  lv_group_set_refocus_policy                                         
c217a724  lv_group_set_wrap                                                   
c2179ea0  lv_group_swap_obj                                                   
c2137a04  lv_img_buf_alloc                                                    
c2137bac  lv_img_buf_free                                                     
c2137c04  lv_img_buf_get_img_size                                             
c2136d18  lv_img_buf_get_px_alpha                                             
c2136960  lv_img_buf_get_px_color                                             
c21378f0  lv_img_buf_set_palette                                              
c21370a0  lv_img_buf_set_px_alpha                                             
c213746c  lv_img_buf_set_px_color                                             
c21a9f74  lv_img_cache_invalidate_src                                         
c21a9f48  lv_img_cache_set_size                                               
c218ae30  lv_img_cf_get_px_size                                               
c218af34  lv_img_cf_has_alpha                                                 
c218aed0  lv_img_cf_is_chroma_keyed                                           
c21be028  lv_img_class                                                        
c214b240  lv_img_create                                                       
c2166414  lv_img_decoder_built_in_close                                       
c2165aa0  lv_img_decoder_built_in_info                                        
c2165d64  lv_img_decoder_built_in_open                                        
c216622c  lv_img_decoder_built_in_read_line                                   
c2165854  lv_img_decoder_close                                                
c21658e4  lv_img_decoder_create                                               
c2165950  lv_img_decoder_delete                                               
c2165444  lv_img_decoder_get_info                                             
c2165560  lv_img_decoder_open                                                 
c21657c4  lv_img_decoder_read_line                                            
c2165a60  lv_img_decoder_set_close_cb                                         
c21659a0  lv_img_decoder_set_info_cb                                          
c21659e0  lv_img_decoder_set_open_cb                                          
c2165a20  lv_img_decoder_set_read_line_cb                                     
c214c060  lv_img_get_angle                                                    
c214c12c  lv_img_get_antialias                                                
c214bfe0  lv_img_get_offset_x                                                 
c214c020  lv_img_get_offset_y                                                 
c214c0a0  lv_img_get_pivot                                                    
c214c188  lv_img_get_size_mode                                                
c214bfa4  lv_img_get_src                                                      
c214c0ec  lv_img_get_zoom                                                     
c214b740  lv_img_set_angle                                                    
c214be64  lv_img_set_antialias                                                
c214b670  lv_img_set_offset_x                                                 
c214b6d4  lv_img_set_offset_y                                                 
c214b9a4  lv_img_set_pivot                                                    
c214bf04  lv_img_set_size_mode                                                
c214b28c  lv_img_set_src                                                      
c214bbf4  lv_img_set_zoom                                                     
c218afb0  lv_img_src_get_type                                                 
c219c0d4  lv_indev_delete                                                     
c219be60  lv_indev_drv_init                                                   
c219bee4  lv_indev_drv_register                                               
c219bfd0  lv_indev_drv_update                                                 
c2130ac8  lv_indev_enable                                                     
c2130b90  lv_indev_get_act                                                    
c2131074  lv_indev_get_gesture_dir                                            
c21310b0  lv_indev_get_key                                                    
c219c160  lv_indev_get_next                                                   
c2131314  lv_indev_get_obj_act                                                
c2130fc0  lv_indev_get_point                                                  
c2131344  lv_indev_get_read_timer                                             
c2131108  lv_indev_get_scroll_dir                                             
c2131198  lv_indev_get_scroll_obj                                             
c2130bc0  lv_indev_get_type                                                   
c2131220  lv_indev_get_vect                                                   
c21308c0  lv_indev_read_timer_cb                                              
c2130c14  lv_indev_reset                                                      
c2130de0  lv_indev_reset_long_press                                           
c21603c0  lv_indev_scroll_get_snap_dist                                       
c21602ac  lv_indev_scroll_throw_predict                                       
c2131394  lv_indev_search_obj                                                 
c2130f6c  lv_indev_set_button_points                                          
c2130e34  lv_indev_set_cursor                                                 
c2130f04  lv_indev_set_group                                                  
c21312b8  lv_indev_wait_release                                               
c2146910  lv_init                                                             
c21468e4  lv_is_initialized                                                   
c21be044  lv_keyboard_class                                                   
c2189660  lv_keyboard_create                                                  
c218996c  lv_keyboard_def_event_cb                                            
c21898d0  lv_keyboard_get_mode                                                
c2189894  lv_keyboard_get_textarea                                            
c218982c  lv_keyboard_set_map                                                 
c2189720  lv_keyboard_set_mode                                                
c2189794  lv_keyboard_set_popovers                                            
c21896ac  lv_keyboard_set_textarea                                            
c21be060  lv_label_class                                                      
c2133b04  lv_label_create                                                     
c2134fa0  lv_label_cut_text                                                   
c21345ac  lv_label_get_letter_on                                              
c21341b0  lv_label_get_letter_pos                                             
c213410c  lv_label_get_long_mode                                              
c2134154  lv_label_get_recolor                                                
c21340cc  lv_label_get_text                                                   
c2134e38  lv_label_get_text_selection_end                                     
c2134e00  lv_label_get_text_selection_start                                   
c2134e78  lv_label_ins_text                                                   
c2134a00  lv_label_is_char_under_pos                                          
c2133e48  lv_label_set_long_mode                                              
c2133f78  lv_label_set_recolor                                                
c2133b4c  lv_label_set_text                                                   
c2133cc4  lv_label_set_text_fmt                                               
c2134078  lv_label_set_text_sel_end                                           
c213402c  lv_label_set_text_sel_start                                         
c2133dac  lv_label_set_text_static                                            
c21216a8  lv_layout_register                                                  
c21be07c  lv_led_class                                                        
c2190ce0  lv_led_create                                                       
c2190f00  lv_led_get_brightness                                               
c2190e6c  lv_led_off                                                          
c2190e38  lv_led_on                                                           
c2190d84  lv_led_set_brightness                                               
c2190d2c  lv_led_set_color                                                    
c2190ea0  lv_led_toggle                                                       
c21be098  lv_line_class                                                       
c21938a0  lv_line_create                                                      
c2193a00  lv_line_get_y_invert                                                
c21938ec  lv_line_set_points                                                  
c2193954  lv_line_set_y_invert                                                
c21be0b4  lv_list_btn_class                                                   
c21be0d0  lv_list_class                                                       
c21be0ec  lv_list_text_class                                                  
c2191924  lv_map                                                              
c21786f8  lv_mem_alloc                                                        
c20f6fa0  lv_mem_buf                                                          
c2178e04  lv_mem_buf_free_all                                                 
c2178a4c  lv_mem_buf_get                                                      
c2178d44  lv_mem_buf_release                                                  
c21786c0  lv_mem_deinit                                                       
c2178774  lv_mem_free                                                         
c2178680  lv_mem_init                                                         
c2178960  lv_mem_monitor                                                      
c21787f0  lv_mem_realloc                                                      
c21788b0  lv_mem_test                                                         
c2178eec  lv_memcpy                                                           
c217950c  lv_memset                                                           
c21796f8  lv_memset_00                                                        
c2179888  lv_memset_ff                                                        
c2173d0c  lv_menu_back_btn_is_root                                            
c21be108  lv_menu_class                                                       
c2173da4  lv_menu_clear_history                                               
c21be124  lv_menu_cont_class                                                  
c2173348  lv_menu_cont_create                                                 
c2173240  lv_menu_create                                                      
c2173b90  lv_menu_get_cur_main_page                                           
c2173bcc  lv_menu_get_cur_sidebar_page                                        
c2173c0c  lv_menu_get_main_header                                             
c2173c4c  lv_menu_get_main_header_back_btn                                    
c2173c8c  lv_menu_get_sidebar_header                                          
c2173ccc  lv_menu_get_sidebar_header_back_btn                                 
c21be140  lv_menu_main_cont_class                                             
c21be15c  lv_menu_main_header_cont_class                                      
c21be178  lv_menu_page_class                                                  
c217328c  lv_menu_page_create                                                 
c21be194  lv_menu_section_class                                               
c2173394  lv_menu_section_create                                              
c21be1b0  lv_menu_separator_class                                             
c21733e4  lv_menu_separator_create                                            
c2173ab4  lv_menu_set_load_page_event                                         
c2173980  lv_menu_set_mode_header                                             
c2173a28  lv_menu_set_mode_root_back_btn                                      
c21734b8  lv_menu_set_page                                                    
c2173720  lv_menu_set_sidebar_page                                            
c21be1cc  lv_menu_sidebar_cont_class                                          
c21be1e8  lv_menu_sidebar_header_cont_class                                   
c2151f48  lv_meter_add_arc                                                    
c2151ea0  lv_meter_add_needle_img                                             
c2151de8  lv_meter_add_needle_line                                            
c2151b88  lv_meter_add_scale                                                  
c2152000  lv_meter_add_scale_lines                                            
c21be204  lv_meter_class                                                      
c2151b38  lv_meter_create                                                     
c2152280  lv_meter_set_indicator_end_value                                    
c21521cc  lv_meter_set_indicator_start_value                                  
c21520e4  lv_meter_set_indicator_value                                        
c2151cd4  lv_meter_set_scale_major_ticks                                      
c2151d6c  lv_meter_set_scale_range                                            
c2151c50  lv_meter_set_scale_ticks                                            
c21be220  lv_msgbox_backdrop_class                                            
c21be23c  lv_msgbox_class                                                     
c2171f28  lv_obj_add_event_cb                                                 
c2146ab4  lv_obj_add_flag                                                     
c2146c98  lv_obj_add_state                                                    
c2139884  lv_obj_add_style                                                    
c2121784  lv_obj_align                                                        
c21217e8  lv_obj_align_to                                                     
c2146f38  lv_obj_allocate_spec_attr                                           
c2123078  lv_obj_area_is_visible                                              
c216e7a4  lv_obj_calculate_ext_draw_size                                      
c213af28  lv_obj_calculate_style_text_align                                   
c2146fec  lv_obj_check_type                                                   
c21be258  lv_obj_class                                                        
c2196ce0  lv_obj_class_create_obj                                             
c2196f04  lv_obj_class_init_obj                                               
c217f5f8  lv_obj_clean                                                        
c2146ba0  lv_obj_clear_flag                                                   
c2146d14  lv_obj_clear_state                                                  
c2146a68  lv_obj_create                                                       
c217f4f8  lv_obj_del                                                          
c217f714  lv_obj_del_anim_ready_cb                                            
c217f748  lv_obj_del_async                                                    
c217f694  lv_obj_del_delayed                                                  
c216ea24  lv_obj_draw_dsc_init                                                
c216ea6c  lv_obj_draw_part_check_type                                         
c213a054  lv_obj_enable_style_refresh                                         
c2171be8  lv_obj_event_base                                                   
c213ad8c  lv_obj_fade_in                                                      
c213ae2c  lv_obj_fade_out                                                     
c217fde8  lv_obj_get_child                                                    
c217fed0  lv_obj_get_child_cnt                                                
c21470d4  lv_obj_get_class                                                    
c21233a4  lv_obj_get_click_area                                               
c212232c  lv_obj_get_content_coords                                           
c21222a8  lv_obj_get_content_height                                           
c2122224  lv_obj_get_content_width                                            
c2121e98  lv_obj_get_coords                                                   
c217fcb0  lv_obj_get_disp                                                     
c217262c  lv_obj_get_event_user_data                                          
c2146ee4  lv_obj_get_group                                                    
c21221d4  lv_obj_get_height                                                   
c217ff28  lv_obj_get_index                                                    
c213a224  lv_obj_get_local_style_prop                                         
c217fd94  lv_obj_get_parent                                                   
c217fc68  lv_obj_get_screen                                                   
c212dfa8  lv_obj_get_scroll_bottom                                            
c212dd74  lv_obj_get_scroll_dir                                               
c212e560  lv_obj_get_scroll_end                                               
c212e144  lv_obj_get_scroll_left                                              
c212e36c  lv_obj_get_scroll_right                                             
c212ddd4  lv_obj_get_scroll_snap_x                                            
c212de34  lv_obj_get_scroll_snap_y                                            
c212df4c  lv_obj_get_scroll_top                                               
c212de94  lv_obj_get_scroll_x                                                 
c212def0  lv_obj_get_scroll_y                                                 
c212eecc  lv_obj_get_scrollbar_area                                           
c212dd14  lv_obj_get_scrollbar_mode                                           
c2122474  lv_obj_get_self_height                                              
c2122424  lv_obj_get_self_width                                               
c2146e4c  lv_obj_get_state                                                    
c213a08c  lv_obj_get_style_prop                                               
c212218c  lv_obj_get_width                                                    
c2121ed8  lv_obj_get_x                                                        
c2121f88  lv_obj_get_x2                                                       
c21220f8  lv_obj_get_x_aligned                                                
c2121fe8  lv_obj_get_y                                                        
c212209c  lv_obj_get_y2                                                       
c2122144  lv_obj_get_y_aligned                                                
c2147060  lv_obj_has_class                                                    
c2146d90  lv_obj_has_flag                                                     
c2146df0  lv_obj_has_flag_any                                                 
c2146e80  lv_obj_has_state                                                    
c2123450  lv_obj_hit_test                                                     
c216e624  lv_obj_init_draw_arc_dsc                                            
c216e2d8  lv_obj_init_draw_img_dsc                                            
c216e150  lv_obj_init_draw_label_dsc                                          
c216e460  lv_obj_init_draw_line_dsc                                           
c216dbc4  lv_obj_init_draw_rect_dsc                                           
c2122fa8  lv_obj_invalidate                                                   
c2122f38  lv_obj_invalidate_area                                              
c2197064  lv_obj_is_editable                                                  
c2197118  lv_obj_is_group_def                                                 
c21214b4  lv_obj_is_layout_positioned                                         
c212edec  lv_obj_is_scrolling                                                 
c2147104  lv_obj_is_valid                                                     
c2123298  lv_obj_is_visible                                                   
c212156c  lv_obj_mark_layout_as_dirty                                         
c2122e20  lv_obj_move_children_by                                             
c2122b40  lv_obj_move_to                                                      
c217f9c0  lv_obj_move_to_index                                                
c212fdb8  lv_obj_readjust_scroll                                              
c2122554  lv_obj_refr_pos                                                     
c2120bd0  lv_obj_refr_size                                                    
c216eae0  lv_obj_refresh_ext_draw_size                                        
c21224c8  lv_obj_refresh_self_size                                            
c2139e8c  lv_obj_refresh_style                                                
c2172070  lv_obj_remove_event_cb                                              
c217224c  lv_obj_remove_event_cb_with_user_data                               
c2172454  lv_obj_remove_event_dsc                                             
c213a32c  lv_obj_remove_local_style_prop                                      
c2139a90  lv_obj_remove_style                                                 
c2139dd0  lv_obj_report_style_change                                          
c212e884  lv_obj_scroll_by                                                    
c212e5f4  lv_obj_scroll_by_bounded                                            
c212eba8  lv_obj_scroll_to                                                    
c212ece8  lv_obj_scroll_to_view                                               
c212ed4c  lv_obj_scroll_to_view_recursive                                     
c212ec00  lv_obj_scroll_to_x                                                  
c212ec70  lv_obj_scroll_to_y                                                  
c212fd0c  lv_obj_scrollbar_invalidate                                         
c2121738  lv_obj_set_align                                                    
c21213e4  lv_obj_set_content_height                                           
c2121360  lv_obj_set_content_width                                            
c212334c  lv_obj_set_ext_click_area                                           
c215a200  lv_obj_set_flex_align                                               
c215a1b0  lv_obj_set_flex_flow                                                
c215a26c  lv_obj_set_flex_grow                                                
c214d938  lv_obj_set_grid_align                                               
c214d984  lv_obj_set_grid_cell                                                
c214d8e0  lv_obj_set_grid_dsc_array                                           
c21212cc  lv_obj_set_height                                                   
c2121468  lv_obj_set_layout                                                   
c213a1c4  lv_obj_set_local_style_prop                                         
c217f784  lv_obj_set_parent                                                   
c2120a60  lv_obj_set_pos                                                      
c212dbb4  lv_obj_set_scroll_dir                                               
c212dc44  lv_obj_set_scroll_snap_x                                            
c212dca8  lv_obj_set_scroll_snap_y                                            
c212db0c  lv_obj_set_scrollbar_mode                                           
c21211f0  lv_obj_set_size                                                     
c2168c0c  lv_obj_set_style_align                                              
c216a070  lv_obj_set_style_anim                                               
c216a104  lv_obj_set_style_anim_speed                                         
c216a0b8  lv_obj_set_style_anim_time                                          
c2169be8  lv_obj_set_style_arc_color                                          
c2169c88  lv_obj_set_style_arc_img_src                                        
c2169c38  lv_obj_set_style_arc_opa                                            
c2169b98  lv_obj_set_style_arc_rounded                                        
c2169b4c  lv_obj_set_style_arc_width                                          
c216a230  lv_obj_set_style_base_dir                                           
c2169000  lv_obj_set_style_bg_color                                           
c2169224  lv_obj_set_style_bg_dither_mode                                     
c21691d8  lv_obj_set_style_bg_grad                                            
c21690a0  lv_obj_set_style_bg_grad_color                                      
c21690f0  lv_obj_set_style_bg_grad_dir                                        
c216918c  lv_obj_set_style_bg_grad_stop                                       
c21692b8  lv_obj_set_style_bg_img_opa                                         
c2169308  lv_obj_set_style_bg_img_recolor                                     
c2169358  lv_obj_set_style_bg_img_recolor_opa                                 
c2169270  lv_obj_set_style_bg_img_src                                         
c21693a8  lv_obj_set_style_bg_img_tiled                                       
c2169140  lv_obj_set_style_bg_main_stop                                       
c2169050  lv_obj_set_style_bg_opa                                             
c216a194  lv_obj_set_style_blend_mode                                         
c21693f4  lv_obj_set_style_border_color                                       
c2169444  lv_obj_set_style_border_opa                                         
c216952c  lv_obj_set_style_border_post                                        
c21694e0  lv_obj_set_style_border_side                                        
c2169490  lv_obj_set_style_border_width                                       
c2169f40  lv_obj_set_style_clip_corner                                        
c2169fd8  lv_obj_set_style_color_filter_dsc                                   
c216a024  lv_obj_set_style_color_filter_opa                                   
c215a4f0  lv_obj_set_style_flex_cross_place                                   
c215a44c  lv_obj_set_style_flex_flow                                          
c215a594  lv_obj_set_style_flex_grow                                          
c215a4a0  lv_obj_set_style_flex_main_place                                    
c215a544  lv_obj_set_style_flex_track_place                                   
c214de98  lv_obj_set_style_grid_cell_column_pos                               
c214def0  lv_obj_set_style_grid_cell_column_span                              
c214df48  lv_obj_set_style_grid_cell_row_pos                                  
c214dfa0  lv_obj_set_style_grid_cell_row_span                                 
c214dff4  lv_obj_set_style_grid_cell_x_align                                  
c214e04c  lv_obj_set_style_grid_cell_y_align                                  
c214de48  lv_obj_set_style_grid_column_align                                  
c214dda4  lv_obj_set_style_grid_column_dsc_array                              
c214ddf4  lv_obj_set_style_grid_row_align                                     
c214dd50  lv_obj_set_style_grid_row_dsc_array                                 
c2168a88  lv_obj_set_style_height                                             
c216988c  lv_obj_set_style_img_opa                                            
c21698d8  lv_obj_set_style_img_recolor                                        
c2169928  lv_obj_set_style_img_recolor_opa                                    
c216a1e4  lv_obj_set_style_layout                                             
c2169aac  lv_obj_set_style_line_color                                         
c2169a10  lv_obj_set_style_line_dash_gap                                      
c21699c4  lv_obj_set_style_line_dash_width                                    
c2169b00  lv_obj_set_style_line_opa                                           
c2169a60  lv_obj_set_style_line_rounded                                       
c2169974  lv_obj_set_style_line_width                                         
c2168b24  lv_obj_set_style_max_height                                         
c2168a38  lv_obj_set_style_max_width                                          
c2168ad4  lv_obj_set_style_min_height                                         
c21689ec  lv_obj_set_style_min_width                                          
c2169f8c  lv_obj_set_style_opa                                                
c21695c8  lv_obj_set_style_outline_color                                      
c2169618  lv_obj_set_style_outline_opa                                        
c2169668  lv_obj_set_style_outline_pad                                        
c2169578  lv_obj_set_style_outline_width                                      
c2168e78  lv_obj_set_style_pad_bottom                                         
c2168fb0  lv_obj_set_style_pad_column                                         
c2168ec8  lv_obj_set_style_pad_left                                           
c2168f14  lv_obj_set_style_pad_right                                          
c2168f64  lv_obj_set_style_pad_row                                            
c2168e2c  lv_obj_set_style_pad_top                                            
c2169ef0  lv_obj_set_style_radius                                             
c21697ec  lv_obj_set_style_shadow_color                                       
c2169704  lv_obj_set_style_shadow_ofs_x                                       
c2169750  lv_obj_set_style_shadow_ofs_y                                       
c2169840  lv_obj_set_style_shadow_opa                                         
c21697a0  lv_obj_set_style_shadow_spread                                      
c21696b4  lv_obj_set_style_shadow_width                                       
c2169ea4  lv_obj_set_style_text_align                                         
c2169cd0  lv_obj_set_style_text_color                                         
c2169e54  lv_obj_set_style_text_decor                                         
c2169d70  lv_obj_set_style_text_font                                          
c2169db8  lv_obj_set_style_text_letter_space                                  
c2169e08  lv_obj_set_style_text_line_space                                    
c2169d24  lv_obj_set_style_text_opa                                           
c2168de0  lv_obj_set_style_transform_angle                                    
c2168ca8  lv_obj_set_style_transform_height                                   
c2168c58  lv_obj_set_style_transform_width                                    
c2168d90  lv_obj_set_style_transform_zoom                                     
c216a14c  lv_obj_set_style_transition                                         
c2168cf4  lv_obj_set_style_translate_x                                        
c2168d44  lv_obj_set_style_translate_y                                        
c21689a0  lv_obj_set_style_width                                              
c2168b70  lv_obj_set_style_x                                                  
c2168bc0  lv_obj_set_style_y                                                  
c2197fec  lv_obj_set_tile                                                     
c2198078  lv_obj_set_tile_id                                                  
c2121240  lv_obj_set_width                                                    
c2120ab0  lv_obj_set_x                                                        
c2120b44  lv_obj_set_y                                                        
c213aeec  lv_obj_style_get_selector_part                                      
c213aec4  lv_obj_style_get_selector_state                                     
c217fb64  lv_obj_swap                                                         
c217ffd0  lv_obj_tree_walk                                                    
c21215f0  lv_obj_update_layout                                                
c212ee68  lv_obj_update_snap                                                  
c2187ef0  lv_palette_darken                                                   
c2187e2c  lv_palette_lighten                                                  
c2187dc0  lv_palette_main                                                     
c2192ac4  lv_png_init                                                         
c219f9ec  lv_port_disp_init                                                   
c2191860  lv_pow                                                              
c2191a40  lv_rand                                                             
c213faec  lv_refr_get_fps_avg                                                 
c213ef48  lv_refr_now                                                         
c213efcc  lv_refr_obj                                                         
c213faac  lv_refr_reset_fps_counter                                           
c21be274  lv_roller_class                                                     
c2161a74  lv_roller_create                                                    
c2162164  lv_roller_get_option_cnt                                            
c2162120  lv_roller_get_options                                               
c2161f38  lv_roller_get_selected                                              
c2161fd4  lv_roller_get_selected_str                                          
c21be290  lv_roller_label_class                                               
c2161ac4  lv_roller_set_options                                               
c2161d20  lv_roller_set_selected                                              
c2161eac  lv_roller_set_visible_row_count                                     
c217d910  lv_scr_load_anim                                                    
c21be2ac  lv_slider_class                                                     
c21705a4  lv_slider_create                                                    
c21705ec  lv_slider_is_dragged                                                
c2175ca0  lv_snprintf                                                         
c21be2c8  lv_spinbox_class                                                    
c217c140  lv_spinbox_create                                                   
c217c960  lv_spinbox_decrement                                                
c217c800  lv_spinbox_get_rollover                                             
c217c68c  lv_spinbox_get_step                                                 
c217c648  lv_spinbox_get_value                                                
c217c850  lv_spinbox_increment                                                
c217c274  lv_spinbox_set_digit_format                                         
c217c5e4  lv_spinbox_set_digit_step_direction                                 
c217c4f4  lv_spinbox_set_pos                                                  
c217c44c  lv_spinbox_set_range                                                
c217c220  lv_spinbox_set_rollover                                             
c217c3f8  lv_spinbox_set_step                                                 
c217c18c  lv_spinbox_set_value                                                
c217c6cc  lv_spinbox_step_next                                                
c217c744  lv_spinbox_step_prev                                                
c21be2e4  lv_spinner_class                                                    
c21a2610  lv_spinner_create                                                   
c2153b40  lv_split_jpeg_init                                                  
c2191550  lv_sqrt                                                             
c218436c  lv_style_get_num_custom_props                                       
c21849d8  lv_style_get_prop                                                   
c21841d8  lv_style_init                                                       
c2184bd4  lv_style_is_empty                                                   
c2184ac0  lv_style_prop_get_default                                           
c2184284  lv_style_register_prop                                              
c21843a4  lv_style_remove_prop                                                
c218420c  lv_style_reset                                                      
c216bdc4  lv_style_set_align                                                  
c216d1e4  lv_style_set_anim                                                   
c216d26c  lv_style_set_anim_speed                                             
c216d228  lv_style_set_anim_time                                              
c216cd78  lv_style_set_arc_color                                              
c216ce14  lv_style_set_arc_img_src                                            
c216cdc8  lv_style_set_arc_opa                                                
c216cd2c  lv_style_set_arc_rounded                                            
c216cce0  lv_style_set_arc_width                                              
c216d390  lv_style_set_base_dir                                               
c216c1ac  lv_style_set_bg_color                                               
c216c3c8  lv_style_set_bg_dither_mode                                         
c216c384  lv_style_set_bg_grad                                                
c216c24c  lv_style_set_bg_grad_color                                          
c216c2a0  lv_style_set_bg_grad_dir                                            
c216c338  lv_style_set_bg_grad_stop                                           
c216c458  lv_style_set_bg_img_opa                                             
c216c4a4  lv_style_set_bg_img_recolor                                         
c216c4f4  lv_style_set_bg_img_recolor_opa                                     
c216c414  lv_style_set_bg_img_src                                             
c216c544  lv_style_set_bg_img_tiled                                           
c216c2ec  lv_style_set_bg_main_stop                                           
c216c200  lv_style_set_bg_opa                                                 
c216d2f4  lv_style_set_blend_mode                                             
c216c590  lv_style_set_border_color                                           
c216c5e0  lv_style_set_border_opa                                             
c216c6c4  lv_style_set_border_post                                            
c216c678  lv_style_set_border_side                                            
c216c62c  lv_style_set_border_width                                           
c216d0b8  lv_style_set_clip_corner                                            
c216d150  lv_style_set_color_filter_dsc                                       
c216d194  lv_style_set_color_filter_opa                                       
c215a360  lv_style_set_flex_cross_place                                       
c215a2c4  lv_style_set_flex_flow                                              
c215a3f8  lv_style_set_flex_grow                                              
c215a310  lv_style_set_flex_main_place                                        
c215a3ac  lv_style_set_flex_track_place                                       
c214db64  lv_style_set_grid_cell_column_pos                                   
c214dbb4  lv_style_set_grid_cell_column_span                                  
c214dc08  lv_style_set_grid_cell_row_pos                                      
c214dc58  lv_style_set_grid_cell_row_span                                     
c214dcac  lv_style_set_grid_cell_x_align                                      
c214dd00  lv_style_set_grid_cell_y_align                                      
c214db18  lv_style_set_grid_column_align                                      
c214da80  lv_style_set_grid_column_dsc_array                                  
c214dacc  lv_style_set_grid_row_align                                         
c214da30  lv_style_set_grid_row_dsc_array                                     
c216bc44  lv_style_set_height                                                 
c216ca20  lv_style_set_img_opa                                                
c216ca6c  lv_style_set_img_recolor                                            
c216cac0  lv_style_set_img_recolor_opa                                        
c216d344  lv_style_set_layout                                                 
c216cc40  lv_style_set_line_color                                             
c216cba4  lv_style_set_line_dash_gap                                          
c216cb58  lv_style_set_line_dash_width                                        
c216cc90  lv_style_set_line_opa                                               
c216cbf0  lv_style_set_line_rounded                                           
c216cb0c  lv_style_set_line_width                                             
c216bce0  lv_style_set_max_height                                             
c216bbf8  lv_style_set_max_width                                              
c216bc90  lv_style_set_min_height                                             
c216bbac  lv_style_set_min_width                                              
c216d104  lv_style_set_opa                                                    
c216c760  lv_style_set_outline_color                                          
c216c7b0  lv_style_set_outline_opa                                            
c216c800  lv_style_set_outline_pad                                            
c216c710  lv_style_set_outline_width                                          
c216c02c  lv_style_set_pad_bottom                                             
c216c160  lv_style_set_pad_column                                             
c216c078  lv_style_set_pad_left                                               
c216c0c4  lv_style_set_pad_right                                              
c216c110  lv_style_set_pad_row                                                
c216bfe0  lv_style_set_pad_top                                                
c21846a0  lv_style_set_prop                                                   
c216d06c  lv_style_set_radius                                                 
c216c980  lv_style_set_shadow_color                                           
c216c898  lv_style_set_shadow_ofs_x                                           
c216c8e4  lv_style_set_shadow_ofs_y                                           
c216c9d0  lv_style_set_shadow_opa                                             
c216c930  lv_style_set_shadow_spread                                          
c216c84c  lv_style_set_shadow_width                                           
c216d020  lv_style_set_text_align                                             
c216ce58  lv_style_set_text_color                                             
c216cfd0  lv_style_set_text_decor                                             
c216cef4  lv_style_set_text_font                                              
c216cf38  lv_style_set_text_letter_space                                      
c216cf84  lv_style_set_text_line_space                                        
c216cea8  lv_style_set_text_opa                                               
c216bf90  lv_style_set_transform_angle                                        
c216be60  lv_style_set_transform_height                                       
c216be10  lv_style_set_transform_width                                        
c216bf44  lv_style_set_transform_zoom                                         
c216d2b0  lv_style_set_transition                                             
c216beac  lv_style_set_translate_x                                            
c216bef8  lv_style_set_translate_y                                            
c216bb60  lv_style_set_width                                                  
c216bd2c  lv_style_set_x                                                      
c216bd78  lv_style_set_y                                                      
c2184a28  lv_style_transition_dsc_init                                        
c21be300  lv_switch_class                                                     
c218cc34  lv_switch_create                                                    
c212b350  lv_table_add_cell_ctrl                                              
c21be31c  lv_table_class                                                      
c212b4b8  lv_table_clear_cell_ctrl                                            
c212a9ac  lv_table_create                                                     
c212b630  lv_table_get_cell_value                                             
c212b760  lv_table_get_col_cnt                                                
c212b7a0  lv_table_get_col_width                                              
c212b720  lv_table_get_row_cnt                                                
c212b924  lv_table_get_selected_cell                                          
c212b810  lv_table_has_cell_ctrl                                              
c212a9f4  lv_table_set_cell_value                                             
c212aba0  lv_table_set_cell_value_fmt                                         
c212afe8  lv_table_set_col_cnt                                                
c212b2d0  lv_table_set_col_width                                              
c212ada0  lv_table_set_row_cnt                                                
c2185b6c  lv_tabview_add_tab                                                  
c21be338  lv_tabview_class                                                    
c2185af8  lv_tabview_create                                                   
c2185f84  lv_tabview_get_content                                              
c2185f44  lv_tabview_get_tab_act                                              
c2185fcc  lv_tabview_get_tab_btns                                             
c2185dc4  lv_tabview_set_act                                                  
c212780c  lv_textarea_add_char                                                
c2127a24  lv_textarea_add_text                                                
c21be354  lv_textarea_class                                                   
c2128c74  lv_textarea_clear_selection                                         
c21277c0  lv_textarea_create                                                  
c2128da0  lv_textarea_cursor_down                                             
c2128d4c  lv_textarea_cursor_left                                             
c2128d08  lv_textarea_cursor_right                                            
c2128ea0  lv_textarea_cursor_up                                               
c2127c60  lv_textarea_del_char                                                
c2127e14  lv_textarea_del_char_forward                                        
c2128ae4  lv_textarea_get_accepted_chars                                      
c21289d4  lv_textarea_get_cursor_click_pos                                    
c2128994  lv_textarea_get_cursor_pos                                          
c2128958  lv_textarea_get_label                                               
c2128b20  lv_textarea_get_max_length                                          
c2128a8c  lv_textarea_get_one_line                                            
c2128a30  lv_textarea_get_password_mode                                       
c2128c34  lv_textarea_get_password_show_time                                  
c21288f8  lv_textarea_get_placeholder_text                                    
c2128890  lv_textarea_get_text                                                
c2128be4  lv_textarea_get_text_selection                                      
c2128650  lv_textarea_set_accepted_chars                                      
c21287e8  lv_textarea_set_align                                               
c2128324  lv_textarea_set_cursor_click_pos                                    
c2128124  lv_textarea_set_cursor_pos                                          
c21286e0  lv_textarea_set_insert_replace                                      
c2128698  lv_textarea_set_max_length                                          
c21284f4  lv_textarea_set_one_line                                            
c2128394  lv_textarea_set_password_mode                                       
c2128798  lv_textarea_set_password_show_time                                  
c2128040  lv_textarea_set_placeholder_text                                    
c2127e70  lv_textarea_set_text                                                
c2128724  lv_textarea_set_text_selection                                      
c2128b58  lv_textarea_text_is_selected                                        
c219fcd0  lv_theme_apply                                                      
c21154e8  lv_theme_default_get                                                
c2115374  lv_theme_default_init                                               
c2115538  lv_theme_default_is_inited                                          
c219feac  lv_theme_get_color_primary                                          
c219ff08  lv_theme_get_color_secondary                                        
c219fe58  lv_theme_get_font_large                                             
c219fe08  lv_theme_get_font_normal                                            
c219fdb4  lv_theme_get_font_small                                             
c219fc74  lv_theme_get_from_obj                                               
c219fd74  lv_theme_set_apply_cb                                               
c219fd34  lv_theme_set_parent                                                 
c21ab1e8  lv_tick_elaps                                                       
c21ab1a4  lv_tick_get                                                         
c21ab160  lv_tick_inc                                                         
c2197f6c  lv_tileview_add_tile                                                
c21be370  lv_tileview_class                                                   
c2197f20  lv_tileview_create                                                  
c21981a0  lv_tileview_get_tile_act                                            
c21be38c  lv_tileview_tile_class                                              
c2191d98  lv_timer_create                                                     
c2191d64  lv_timer_create_basic                                               
c2191ea4  lv_timer_del                                                        
c2192070  lv_timer_enable                                                     
c21920a8  lv_timer_get_idle                                                   
c21920d4  lv_timer_get_next                                                   
c2191b18  lv_timer_handler                                                    
c2191ef0  lv_timer_pause                                                      
c2191fb4  lv_timer_ready                                                      
c2192038  lv_timer_reset                                                      
c2191f34  lv_timer_resume                                                     
c2191e64  lv_timer_set_cb                                                     
c2191f74  lv_timer_set_period                                                 
c2191ff8  lv_timer_set_repeat_count                                           
c2145dd8  lv_tlsf_add_pool                                                    
c2145cf4  lv_tlsf_align_size                                                  
c2145dac  lv_tlsf_alloc_overhead                                              
c2145c20  lv_tlsf_block_size                                                  
c2145d50  lv_tlsf_block_size_max                                              
c2145d24  lv_tlsf_block_size_min                                              
c2145860  lv_tlsf_check                                                       
c2145c70  lv_tlsf_check_pool                                                  
c2145f8c  lv_tlsf_create                                                      
c2145ff4  lv_tlsf_create_with_pool                                            
c2146058  lv_tlsf_destroy                                                     
c2146260  lv_tlsf_free                                                        
c2146084  lv_tlsf_get_pool                                                    
c21460c0  lv_tlsf_malloc                                                      
c2146124  lv_tlsf_memalign                                                    
c2145d80  lv_tlsf_pool_overhead                                               
c21462e8  lv_tlsf_realloc                                                     
c2145ee4  lv_tlsf_remove_pool                                                 
c2145cc8  lv_tlsf_size                                                        
c2145b64  lv_tlsf_walk_pool                                                   
c21912e0  lv_trigo_sin                                                        
c216a398  lv_txt_get_size                                                     
c216abb0  lv_txt_get_width                                                    
c2175d14  lv_vsnprintf                                                        
c21a2bac  lv_win_add_btn                                                      
c21a2b44  lv_win_add_title                                                    
c21be3a8  lv_win_class                                                        
c21a2ae0  lv_win_create                                                       
c21a2c70  lv_win_get_content                                                  
c21a2c30  lv_win_get_header                                                   
c21a6ed0  main                                                                
c21b0720  malloc                                                              
c21b0780  memccpy                                                             
c21b07e0  memcmp                                                              
c21ae760  memcpy                                                              
c21ac660  memset                                                              
c21c0abc  p_rx                                                                
c21c0ac0  p_tx                                                                
c21c01c8  palette_32b                                                         
c20f73a8  parmbuf                                                             
c21944e4  performFirmwareInit                                                 
c2193fc8  placeHbaInIdle                                                      
c20f71a0  pllcfg                                                              
c21ac740  printf                                                              
c21a68c0  putc                                                                
c21aff40  remove                                                              
c20f6a68  rx_data                                                             
c21c0ac4  rx_len                                                              
c21c0b28  sataRegs                                                            
c21a6c40  scalbn                                                              
c21a6c40  scalbnl                                                             
c2194380  setSataSpeed                                                        
c21a6fc0  setvbuf                                                             
c21af5c0  snprintf                                                            
c21c0b5c  spi_flag                                                            
c21941e4  spinUpDeviceAndWaitForInitToComplete                                
c21b0840  sprintf                                                             
c21b08a0  sscanf                                                              
c21af640  strcat                                                              
c21b0900  strcmp                                                              
c21b0960  strcpy                                                              
c21b1cc0  strlen                                                              
c21b09c0  strncmp                                                             
c218e7a0  strtod                                                              
c219ee20  strtol                                                              
c218e7a0  strtold                                                             
c219b9a0  strtoll                                                             
c21a1960  strtoul                                                             
c219c2e0  strtoull                                                            
c20bb824  swCtrlFeatures                                                      
c21c0b2c  temp                                                                
c21b0a80  ti_ndk_config_Global_stackThread                                    
c21b3860  ti_ndk_config_global_taskCreateHook                                 
c21b3880  ti_ndk_config_global_taskExitHook                                   
c21bde7c  ti_sysbios_BIOS_Module__diagsEnabled__C                             
c21bde9c  ti_sysbios_BIOS_Module__diagsIncluded__C                            
c21be3c4  ti_sysbios_BIOS_Module__diagsMask__C                                
c21b85ea  ti_sysbios_BIOS_Module__id__C                                       
c21c01e8  ti_sysbios_BIOS_Module__state__V                                    
c21b38a0  ti_sysbios_BIOS_RtsGateProxy_enter__E                               
c21b38c0  ti_sysbios_BIOS_RtsGateProxy_leave__E                               
c21b0ae0  ti_sysbios_BIOS_errorRaiseHook__I                                   
c21b0b40  ti_sysbios_BIOS_exitFunc__I                                         
c21b1d00  ti_sysbios_BIOS_exit__E                                             
c21b1d40  ti_sysbios_BIOS_getCpuFreq__E                                       
c21b38e0  ti_sysbios_BIOS_getThreadType__E                                    
c21be444  ti_sysbios_BIOS_installedErrorHook__C                               
c21b3900  ti_sysbios_BIOS_nullFunc__I                                         
c21b1d80  ti_sysbios_BIOS_registerRTSLock__I                                  
c21b1dc0  ti_sysbios_BIOS_removeRTSLock__I                                    
c21b0ba0  ti_sysbios_BIOS_rtsLock__I                                          
c21ab360  ti_sysbios_BIOS_rtsUnlock__I                                        
c21b1e00  ti_sysbios_BIOS_setThreadType__E                                    
c21b1e40  ti_sysbios_BIOS_startFunc__I                                        
c21b3920  ti_sysbios_BIOS_start__E                                            
c21b3940  ti_sysbios_family_c62_TaskSupport_Module__startupDone__S            
c21b1b40  ti_sysbios_family_c62_TaskSupport_buildTaskStack                    
c21b1e80  ti_sysbios_family_c62_TaskSupport_checkStack__E                     
c21b3960  ti_sysbios_family_c62_TaskSupport_getStackAlignment__E              
c21b3780  ti_sysbios_family_c62_TaskSupport_glue                              
c21be4b4  ti_sysbios_family_c62_TaskSupport_stackAlignment__C                 
c21ae800  ti_sysbios_family_c62_TaskSupport_start__E                          
c21af540  ti_sysbios_family_c62_TaskSupport_swap__E                           
c21be4cc  ti_sysbios_family_c64p_Cache_EMIFA_BASE__C                          
c21be554  ti_sysbios_family_c64p_Cache_EMIFA_CFG__C                           
c21be564  ti_sysbios_family_c64p_Cache_EMIFA_LENGTH__C                        
c21be574  ti_sysbios_family_c64p_Cache_EMIFB_BASE__C                          
c21be594  ti_sysbios_family_c64p_Cache_EMIFB_CFG__C                           
c21be61c  ti_sysbios_family_c64p_Cache_EMIFB_LENGTH__C                        
c21be624  ti_sysbios_family_c64p_Cache_EMIFC_BASE__C                          
c21be62c  ti_sysbios_family_c64p_Cache_EMIFC_CFG__C                           
c21be630  ti_sysbios_family_c64p_Cache_EMIFC_LENGTH__C                        
c21be634  ti_sysbios_family_c64p_Cache_MAR0_31__C                             
c21be638  ti_sysbios_family_c64p_Cache_MAR128_159__C                          
c21be63c  ti_sysbios_family_c64p_Cache_MAR160_191__C                          
c21be640  ti_sysbios_family_c64p_Cache_MAR192_223__C                          
c21be644  ti_sysbios_family_c64p_Cache_MAR224_255__C                          
c21be648  ti_sysbios_family_c64p_Cache_MAR32_63__C                            
c21be64c  ti_sysbios_family_c64p_Cache_MAR64_95__C                            
c21be650  ti_sysbios_family_c64p_Cache_MAR96_127__C                           
c21c02a4  ti_sysbios_family_c64p_Cache_Module__state__V                       
c21b3980  ti_sysbios_family_c64p_Cache_Module_startup__E                      
c21ac820  ti_sysbios_family_c64p_Cache_Module_startup__F                      
c21ae8a0  ti_sysbios_family_c64p_Cache_all__I                                 
c21aa800  ti_sysbios_family_c64p_Cache_block__I                               
c21be548  ti_sysbios_family_c64p_Cache_initSize__C                            
c21b39a0  ti_sysbios_family_c64p_Cache_invL1pAll__E                           
c21ae940  ti_sysbios_family_c64p_Cache_marInit__I                             
c21ae9e0  ti_sysbios_family_c64p_Cache_setMar__E                              
c21af6c0  ti_sysbios_family_c64p_Cache_setSize__E                             
c21af740  ti_sysbios_family_c64p_Cache_wait__E                                
c21b39c0  ti_sysbios_family_c64p_Cache_wbInvAll__E                            
c21b1ec0  ti_sysbios_family_c64p_Cache_wbInv__E                               
c21be520  ti_sysbios_family_c64p_EventCombiner_EVTMASK__C                     
c21be654  ti_sysbios_family_c64p_EventCombiner_E_unpluggedEvent__C            
c21ba4ae  ti_sysbios_family_c64p_EventCombiner_Module__id__C                  
c21bf400  ti_sysbios_family_c64p_EventCombiner_Module__state__V               
c21b39e0  ti_sysbios_family_c64p_EventCombiner_Module_startup__E              
c21af7c0  ti_sysbios_family_c64p_EventCombiner_Module_startup__F              
c21b3a00  ti_sysbios_family_c64p_EventCombiner_disableEvent__E                
c21af840  ti_sysbios_family_c64p_EventCombiner_disableEvent__F                
c21b1f00  ti_sysbios_family_c64p_EventCombiner_dispatchPlug__E                
c21b0c00  ti_sysbios_family_c64p_EventCombiner_dispatchPlug__F                
c21b3a20  ti_sysbios_family_c64p_EventCombiner_dispatch__E                    
c21ab460  ti_sysbios_family_c64p_EventCombiner_dispatch__F                    
c21af8c0  ti_sysbios_family_c64p_EventCombiner_enableEvent__F                 
c21b3a40  ti_sysbios_family_c64p_EventCombiner_unused__E                      
c21b0c60  ti_sysbios_family_c64p_EventCombiner_unused__F                      
c21be658  ti_sysbios_family_c64p_Exception_E_exceptionMax__C                  
c21bc3fe  ti_sysbios_family_c64p_Exception_Module__id__C                      
c21c0120  ti_sysbios_family_c64p_Exception_Module__state__V                   
c21b3a60  ti_sysbios_family_c64p_Exception_Module_startup__E                  
c21ab560  ti_sysbios_family_c64p_Exception_Module_startup__F                  
c21aa920  ti_sysbios_family_c64p_Exception_decodeMpfsr__I                     
c21a8740  ti_sysbios_family_c64p_Exception_dispatch__E                        
c21b1f40  ti_sysbios_family_c64p_Exception_evtEvtClear__E                     
c21b0cc0  ti_sysbios_family_c64p_Exception_evtExpMaskEnable__E                
c21be65c  ti_sysbios_family_c64p_Exception_exceptionHook__C                   
c21a9fa0  ti_sysbios_family_c64p_Exception_externalHandler__I                 
c21be660  ti_sysbios_family_c64p_Exception_externalHook__C                    
c21af940  ti_sysbios_family_c64p_Exception_getLastStatus__E                   
c21922c0  ti_sysbios_family_c64p_Exception_handler__I                         
c21a88c0  ti_sysbios_family_c64p_Exception_internalHandler__I                 
c21be664  ti_sysbios_family_c64p_Exception_internalHook__C                    
c21b0d20  ti_sysbios_family_c64p_Exception_nmiHandler__I                      
c21be668  ti_sysbios_family_c64p_Exception_nmiHook__C                         
c21bc946  ti_sysbios_family_c64p_Exception_useInternalBuffer__C               
c21c0c00  ti_sysbios_family_c64p_Hwi0                                         
c21be66c  ti_sysbios_family_c64p_Hwi_E_alreadyDefined__C                      
c21be670  ti_sysbios_family_c64p_Hwi_E_handleNotFound__C                      
c20f73d0  ti_sysbios_family_c64p_Hwi_Instance_State_0_hookEnv__A              
c20f73d8  ti_sysbios_family_c64p_Hwi_Instance_State_1_hookEnv__A              
c20f73e0  ti_sysbios_family_c64p_Hwi_Instance_State_2_hookEnv__A              
c20f73e8  ti_sysbios_family_c64p_Hwi_Instance_State_3_hookEnv__A              
c20f73f0  ti_sysbios_family_c64p_Hwi_Instance_State_4_hookEnv__A              
c21a7180  ti_sysbios_family_c64p_Hwi_Instance_finalize__F                     
c21aa0e0  ti_sysbios_family_c64p_Hwi_Instance_init__F                         
c21be674  ti_sysbios_family_c64p_Hwi_LD_end__C                                
c21be678  ti_sysbios_family_c64p_Hwi_LM_begin__C                              
c21be67c  ti_sysbios_family_c64p_Hwi_Module__diagsEnabled__C                  
c21be680  ti_sysbios_family_c64p_Hwi_Module__diagsIncluded__C                 
c21be684  ti_sysbios_family_c64p_Hwi_Module__diagsMask__C                     
c21bc9fe  ti_sysbios_family_c64p_Hwi_Module__id__C                            
c21bccae  ti_sysbios_family_c64p_Hwi_Module__loggerDefined__C                 
c21be688  ti_sysbios_family_c64p_Hwi_Module__loggerFxn1__C                    
c21be68c  ti_sysbios_family_c64p_Hwi_Module__loggerFxn8__C                    
c21be690  ti_sysbios_family_c64p_Hwi_Module__loggerObj__C                     
c21c037c  ti_sysbios_family_c64p_Hwi_Module__root__V                          
c21b1f80  ti_sysbios_family_c64p_Hwi_Module__startupDone__F                   
c21b3a80  ti_sysbios_family_c64p_Hwi_Module__startupDone__S                   
c21bfe80  ti_sysbios_family_c64p_Hwi_Module__state__V                         
c21b3aa0  ti_sysbios_family_c64p_Hwi_Module_startup__E                        
c21a7340  ti_sysbios_family_c64p_Hwi_Module_startup__F                        
c21bdc2c  ti_sysbios_family_c64p_Hwi_Object__DESC__C                          
c21bd988  ti_sysbios_family_c64p_Hwi_Object__PARAMS__C                        
c21ac900  ti_sysbios_family_c64p_Hwi_Object__create__S                        
c21b1fc0  ti_sysbios_family_c64p_Hwi_Object__delete__S                        
c21be694  ti_sysbios_family_c64p_Hwi_Object__heap__C                          
c21bfc78  ti_sysbios_family_c64p_Hwi_Object__table__V                         
c21b2000  ti_sysbios_family_c64p_Hwi_Params__init__S                          
c21b2040  ti_sysbios_family_c64p_Hwi_clearInterrupt__E                        
c21b0d80  ti_sysbios_family_c64p_Hwi_disableIER__E                            
c21b2080  ti_sysbios_family_c64p_Hwi_disableInterrupt__E                      
c21a5b40  ti_sysbios_family_c64p_Hwi_dispatchAlways                           
c21b20c0  ti_sysbios_family_c64p_Hwi_dispatchC__I                             
c219e2e0  ti_sysbios_family_c64p_Hwi_dispatchCore__I                          
c21b0de0  ti_sysbios_family_c64p_Hwi_enableIER__E                             
c21b2100  ti_sysbios_family_c64p_Hwi_enableInterrupt__E                       
c21ada80  ti_sysbios_family_c64p_Hwi_eventMap__E                              
c21af9c0  ti_sysbios_family_c64p_Hwi_getEventId__E                            
c21b2140  ti_sysbios_family_c64p_Hwi_getIsrStackAddress__I                    
c21adb40  ti_sysbios_family_c64p_Hwi_getStackInfo__E                          
c21be4a0  ti_sysbios_family_c64p_Hwi_hooks__A                                 
c21be5c8  ti_sysbios_family_c64p_Hwi_hooks__C                                 
c21c0c00  ti_sysbios_family_c64p_Hwi_int0                                     
c21c0c20  ti_sysbios_family_c64p_Hwi_int1                                     
c21c0d40  ti_sysbios_family_c64p_Hwi_int10                                    
c21c0d60  ti_sysbios_family_c64p_Hwi_int11                                    
c21c0d80  ti_sysbios_family_c64p_Hwi_int12                                    
c21c0da0  ti_sysbios_family_c64p_Hwi_int13                                    
c21c0dc0  ti_sysbios_family_c64p_Hwi_int14                                    
c21c0de0  ti_sysbios_family_c64p_Hwi_int15                                    
c21c0c40  ti_sysbios_family_c64p_Hwi_int2                                     
c21c0c60  ti_sysbios_family_c64p_Hwi_int3                                     
c21c0c80  ti_sysbios_family_c64p_Hwi_int4                                     
c21c0ca0  ti_sysbios_family_c64p_Hwi_int5                                     
c21c0cc0  ti_sysbios_family_c64p_Hwi_int6                                     
c21c0ce0  ti_sysbios_family_c64p_Hwi_int7                                     
c21c0d00  ti_sysbios_family_c64p_Hwi_int8                                     
c21c0d20  ti_sysbios_family_c64p_Hwi_int9                                     
c21ae440  ti_sysbios_family_c64p_Hwi_plug__E                                  
c21ac9e0  ti_sysbios_family_c64p_Hwi_postInit__I                              
c21a7500  ti_sysbios_family_c64p_Hwi_reconfig__E                              
c21b3ac0  ti_sysbios_family_c64p_Hwi_startup__E                               
c21b0600  ti_sysbios_family_c64p_Hwi_switchAndDispatch__I                     
c21b3ae0  ti_sysbios_family_c64p_Hwi_switchFromBootStack__E                   
c21b3b00  ti_sysbios_family_c64p_Hwi_unPluggedInterrupt__I                    
c21b3b20  ti_sysbios_family_c64p_TimestampProvider_Module_startup__E          
c21b3b40  ti_sysbios_family_c64p_TimestampProvider_Module_startup__F          
c21b3b60  ti_sysbios_family_c64p_TimestampProvider_get32__E                   
c21b2180  ti_sysbios_family_c64p_TimestampProvider_get64__E                   
c21b3b80  ti_sysbios_family_c64p_TimestampProvider_getFreq__E                 
c21c0388  ti_sysbios_family_c64p_primus_TimerSupport_Module_State_0_suspSrc__A
c21c02c4  ti_sysbios_family_c64p_primus_TimerSupport_Module__state__V         
c21aea80  ti_sysbios_family_c64p_primus_TimerSupport_enable__E                
c21b0660  ti_sysbios_family_xxx_Hwi_switchAndRunFunc                          
c21b1b80  ti_sysbios_family_xxx_Hwi_switchToIsrStack                          
c21b37a0  ti_sysbios_family_xxx_Hwi_switchToTaskStack                         
c21b0e40  ti_sysbios_gates_GateHwi_Handle__label__S                           
c21b3ba0  ti_sysbios_gates_GateHwi_Instance_init__F                           
c21bdb28  ti_sysbios_gates_GateHwi_Module__FXNS__C                            
c21c0390  ti_sysbios_gates_GateHwi_Module__root__V                            
c21bdc4c  ti_sysbios_gates_GateHwi_Object__DESC__C                            
c21be3fc  ti_sysbios_gates_GateHwi_Object__PARAMS__C                          
c21afa40  ti_sysbios_gates_GateHwi_Object__create__S                          
c21b21c0  ti_sysbios_gates_GateHwi_Object__delete__S                          
c21c0398  ti_sysbios_gates_GateHwi_Object__table__V                           
c21b2200  ti_sysbios_gates_GateHwi_enter__E                                   
c21b3bc0  ti_sysbios_gates_GateHwi_leave__E                                   
c21b3be0  ti_sysbios_gates_GateHwi_query__E                                   
c21b3c00  ti_sysbios_gates_GateHwi_query__F                                   
c21be698  ti_sysbios_gates_GateMutex_A_badContext__C                          
c21b0ea0  ti_sysbios_gates_GateMutex_Handle__label__S                         
c21be69c  ti_sysbios_gates_GateMutex_Instance_State_sem__O                    
c21b2280  ti_sysbios_gates_GateMutex_Instance_finalize__F                     
c21b22c0  ti_sysbios_gates_GateMutex_Instance_init__F                         
c21bdb4c  ti_sysbios_gates_GateMutex_Module__FXNS__C                          
c21be6a0  ti_sysbios_gates_GateMutex_Module__diagsEnabled__C                  
c21be6a4  ti_sysbios_gates_GateMutex_Module__diagsIncluded__C                 
c21be6a8  ti_sysbios_gates_GateMutex_Module__diagsMask__C                     
c21bcd4e  ti_sysbios_gates_GateMutex_Module__id__C                            
c21c03a0  ti_sysbios_gates_GateMutex_Module__root__V                          
c21bdc6c  ti_sysbios_gates_GateMutex_Object__DESC__C                          
c21be414  ti_sysbios_gates_GateMutex_Object__PARAMS__C                        
c21afac0  ti_sysbios_gates_GateMutex_Object__create__S                        
c21b2300  ti_sysbios_gates_GateMutex_Object__delete__S                        
c21bff48  ti_sysbios_gates_GateMutex_Object__table__V                         
c21a7f60  ti_sysbios_gates_GateMutex_enter__E                                 
c21b2340  ti_sysbios_gates_GateMutex_leave__E                                 
c21b3c20  ti_sysbios_gates_GateMutex_query__E                                 
c21b3c40  ti_sysbios_gates_GateMutex_query__F                                 
c21be6ac  ti_sysbios_hal_Hwi_E_stackOverflow__C                               
c21b3c60  ti_sysbios_hal_Hwi_HwiProxy_Module__startupDone__S                  
c21b2380  ti_sysbios_hal_Hwi_HwiProxy_Object__create__S                       
c21b3c80  ti_sysbios_hal_Hwi_HwiProxy_Object__delete__S                       
c21b3ca0  ti_sysbios_hal_Hwi_HwiProxy_clearInterrupt__E                       
c21b3ce0  ti_sysbios_hal_Hwi_HwiProxy_disableInterrupt__E                     
c21b3d00  ti_sysbios_hal_Hwi_HwiProxy_enableInterrupt__E                      
c21b2400  ti_sysbios_hal_Hwi_HwiProxy_getStackInfo__E                         
c21b3d20  ti_sysbios_hal_Hwi_HwiProxy_startup__E                              
c21b3d40  ti_sysbios_hal_Hwi_HwiProxy_switchFromBootStack__E                  
c21b2440  ti_sysbios_hal_Hwi_Instance_finalize__F                             
c21b0f00  ti_sysbios_hal_Hwi_Instance_init__F                                 
c21bdade  ti_sysbios_hal_Hwi_Module__id__C                                    
c21c03a8  ti_sysbios_hal_Hwi_Module__root__V                                  
c21b3d60  ti_sysbios_hal_Hwi_Module_startup__E                                
c21b3d80  ti_sysbios_hal_Hwi_Module_startup__F                                
c21bdc8c  ti_sysbios_hal_Hwi_Object__DESC__C                                  
c21bd9e4  ti_sysbios_hal_Hwi_Object__PARAMS__C                                
c21acac0  ti_sysbios_hal_Hwi_Object__create__S                                
c21b2480  ti_sysbios_hal_Hwi_Object__delete__S                                
c21c0338  ti_sysbios_hal_Hwi_Object__table__V                                 
c21b24c0  ti_sysbios_hal_Hwi_Params__init__S                                  
c21b0f60  ti_sysbios_hal_Hwi_checkStack                                       
c21b3dc0  ti_sysbios_hal_Hwi_clearInterrupt__E                                
c21b3e00  ti_sysbios_hal_Hwi_disableInterrupt__E                              
c21b3e20  ti_sysbios_hal_Hwi_enableInterrupt__E                               
c21b2580  ti_sysbios_hal_Hwi_getStackInfo__E                                  
c21b0fc0  ti_sysbios_hal_Hwi_initStack                                        
c21b3e40  ti_sysbios_hal_Hwi_startup__E                                       
c21b3e60  ti_sysbios_hal_Hwi_switchFromBootStack__E                           
c21b25c0  ti_sysbios_hal_Timer_Module__startupDone__F                         
c21b3e80  ti_sysbios_hal_Timer_Module__startupDone__S                         
c21b3ea0  ti_sysbios_hal_Timer_Module_startup__E                              
c21b3ec0  ti_sysbios_hal_Timer_Module_startup__F                              
c21c0348  ti_sysbios_hal_Timer_Object__table__V                               
c21b3ee0  ti_sysbios_hal_Timer_TimerProxy_Module__startupDone__S              
c21b3f00  ti_sysbios_hal_Timer_TimerProxy_getPeriod__E                        
c21b3f20  ti_sysbios_hal_Timer_TimerProxy_startup__E                          
c21b3f40  ti_sysbios_hal_Timer_getPeriod__E                                   
c21b3f60  ti_sysbios_hal_Timer_startup__E                                     
c21be6b0  ti_sysbios_heaps_HeapMem_A_align__C                                 
c21be6b4  ti_sysbios_heaps_HeapMem_A_heapSize__C                              
c21be6b8  ti_sysbios_heaps_HeapMem_A_invalidFree__C                           
c21be6bc  ti_sysbios_heaps_HeapMem_A_zeroBlock__C                             
c21be6c0  ti_sysbios_heaps_HeapMem_E_memory__C                                
c21b1020  ti_sysbios_heaps_HeapMem_Handle__label__S                           
c0000000  ti_sysbios_heaps_HeapMem_Instance_State_0_buf__A                    
c219e6a0  ti_sysbios_heaps_HeapMem_Instance_init__F                           
c21b3f80  ti_sysbios_heaps_HeapMem_Module_GateProxy_enter__E                  
c21b3fa0  ti_sysbios_heaps_HeapMem_Module_GateProxy_leave__E                  
c21b3fc0  ti_sysbios_heaps_HeapMem_Module_GateProxy_query__E                  
c21bda68  ti_sysbios_heaps_HeapMem_Module__FXNS__C                            
c21be6c4  ti_sysbios_heaps_HeapMem_Module__diagsEnabled__C                    
c21be6c8  ti_sysbios_heaps_HeapMem_Module__diagsIncluded__C                   
c21be6cc  ti_sysbios_heaps_HeapMem_Module__diagsMask__C                       
c21be6d0  ti_sysbios_heaps_HeapMem_Module__gateObj__C                         
c21bdc02  ti_sysbios_heaps_HeapMem_Module__id__C                              
c21c03b0  ti_sysbios_heaps_HeapMem_Module__root__V                            
c21bdcac  ti_sysbios_heaps_HeapMem_Object__DESC__C                            
c21bdb70  ti_sysbios_heaps_HeapMem_Object__PARAMS__C                          
c21be6d4  ti_sysbios_heaps_HeapMem_Object__count__C                           
c21afb40  ti_sysbios_heaps_HeapMem_Object__create__S                          
c21b2600  ti_sysbios_heaps_HeapMem_Object__delete__S                          
c21b1080  ti_sysbios_heaps_HeapMem_Object__get__S                             
c21be6d8  ti_sysbios_heaps_HeapMem_Object__table__C                           
c21c02c8  ti_sysbios_heaps_HeapMem_Object__table__V                           
c2197300  ti_sysbios_heaps_HeapMem_alloc__E                                   
c2193160  ti_sysbios_heaps_HeapMem_free__E                                    
c21acba0  ti_sysbios_heaps_HeapMem_getStats__E                                
c21aeb20  ti_sysbios_heaps_HeapMem_init__I                                    
c21b4000  ti_sysbios_heaps_HeapMem_isBlocking__E                              
c21be6dc  ti_sysbios_heaps_HeapMem_reqAlign__C                                
c21b2640  ti_sysbios_heaps_HeapMem_restore__E                                 
c21be6e0  ti_sysbios_knl_Clock_A_badThreadType__C                             
c21be6e4  ti_sysbios_knl_Clock_A_clockDisabled__C                             
c219ffe0  ti_sysbios_knl_Clock_Instance_init__F                               
c21be6e8  ti_sysbios_knl_Clock_LM_begin__C                                    
c21be6ec  ti_sysbios_knl_Clock_LM_tick__C                                     
c21be6f0  ti_sysbios_knl_Clock_LW_delayed__C                                  
c21be6f4  ti_sysbios_knl_Clock_Module_State_clockQ__O                         
c21be6f8  ti_sysbios_knl_Clock_Module__diagsEnabled__C                        
c21be6fc  ti_sysbios_knl_Clock_Module__diagsIncluded__C                       
c21be700  ti_sysbios_knl_Clock_Module__diagsMask__C                           
c21bdc2a  ti_sysbios_knl_Clock_Module__id__C                                  
c21be3e2  ti_sysbios_knl_Clock_Module__loggerDefined__C                       
c21be704  ti_sysbios_knl_Clock_Module__loggerFxn1__C                          
c21be708  ti_sysbios_knl_Clock_Module__loggerFxn2__C                          
c21be70c  ti_sysbios_knl_Clock_Module__loggerObj__C                           
c21c03b8  ti_sysbios_knl_Clock_Module__root__V                                
c21c0150  ti_sysbios_knl_Clock_Module__state__V                               
c21b4020  ti_sysbios_knl_Clock_Module_startup__E                              
c21b2700  ti_sysbios_knl_Clock_Module_startup__F                              
c21bdccc  ti_sysbios_knl_Clock_Object__DESC__C                                
c21bdb94  ti_sysbios_knl_Clock_Object__PARAMS__C                              
c21aebc0  ti_sysbios_knl_Clock_Object__create__S                              
c21b2740  ti_sysbios_knl_Clock_Params__init__S                                
c21b10e0  ti_sysbios_knl_Clock_addI__E                                        
c21b1140  ti_sysbios_knl_Clock_doTick__I                                      
c21b4060  ti_sysbios_knl_Clock_getTicks__E                                    
c21acc80  ti_sysbios_knl_Clock_logTick__E                                     
c21b40c0  ti_sysbios_knl_Clock_removeI__E                                     
c21b27c0  ti_sysbios_knl_Clock_startI__E                                      
c21ab660  ti_sysbios_knl_Clock_start__E                                       
c21a3820  ti_sysbios_knl_Clock_workFunc__E                                    
c21be558  ti_sysbios_knl_Idle_coreList__A                                     
c21be5d0  ti_sysbios_knl_Idle_coreList__C                                     
c21be568  ti_sysbios_knl_Idle_funcList__A                                     
c21be5d8  ti_sysbios_knl_Idle_funcList__C                                     
c21b40e0  ti_sysbios_knl_Idle_loop__E                                         
c21aec60  ti_sysbios_knl_Idle_run__E                                          
c21b4100  ti_sysbios_knl_Queue_Instance_init__F                               
c21c03c0  ti_sysbios_knl_Queue_Module__root__V                                
c21bdcec  ti_sysbios_knl_Queue_Object__DESC__C                                
c21be42c  ti_sysbios_knl_Queue_Object__PARAMS__C                              
c21afbc0  ti_sysbios_knl_Queue_Object__create__S                              
c21b2800  ti_sysbios_knl_Queue_Object__destruct__S                            
c21b2840  ti_sysbios_knl_Queue_Object__get__S                                 
c21b28c0  ti_sysbios_knl_Queue_dequeue__E                                     
c21b4180  ti_sysbios_knl_Queue_elemClear__E                                   
c21b2900  ti_sysbios_knl_Queue_empty__E                                       
c21b2940  ti_sysbios_knl_Queue_enqueue__E                                     
c21b41a0  ti_sysbios_knl_Queue_head__E                                        
c21b41c0  ti_sysbios_knl_Queue_insert__E                                      
c21b41e0  ti_sysbios_knl_Queue_next__E                                        
c21b11a0  ti_sysbios_knl_Queue_put__E                                         
c21b2980  ti_sysbios_knl_Queue_remove__E                                      
c21be710  ti_sysbios_knl_Semaphore_A_badContext__C                            
c21be714  ti_sysbios_knl_Semaphore_A_noEvents__C                              
c21be718  ti_sysbios_knl_Semaphore_A_overflow__C                              
c21be71c  ti_sysbios_knl_Semaphore_A_pendTaskDisabled__C                      
c21be720  ti_sysbios_knl_Semaphore_Instance_State_pendQ__O                    
c21b2a00  ti_sysbios_knl_Semaphore_Instance_finalize__F                       
c21a76c0  ti_sysbios_knl_Semaphore_Instance_init__F                           
c21be724  ti_sysbios_knl_Semaphore_LM_pend__C                                 
c21be728  ti_sysbios_knl_Semaphore_LM_post__C                                 
c21be72c  ti_sysbios_knl_Semaphore_Module__diagsEnabled__C                    
c21be730  ti_sysbios_knl_Semaphore_Module__diagsIncluded__C                   
c21be734  ti_sysbios_knl_Semaphore_Module__diagsMask__C                       
c21be4ca  ti_sysbios_knl_Semaphore_Module__id__C                              
c21be58a  ti_sysbios_knl_Semaphore_Module__loggerDefined__C                   
c21be738  ti_sysbios_knl_Semaphore_Module__loggerFxn2__C                      
c21be73c  ti_sysbios_knl_Semaphore_Module__loggerFxn4__C                      
c21be740  ti_sysbios_knl_Semaphore_Module__loggerObj__C                       
c21c03c8  ti_sysbios_knl_Semaphore_Module__root__V                            
c21bdd0c  ti_sysbios_knl_Semaphore_Object__DESC__C                            
c21bdbb8  ti_sysbios_knl_Semaphore_Object__PARAMS__C                          
c21aed00  ti_sysbios_knl_Semaphore_Object__create__S                          
c21b2a40  ti_sysbios_knl_Semaphore_Object__destruct__S                        
c21b2a80  ti_sysbios_knl_Semaphore_Params__init__S                            
c21afc40  ti_sysbios_knl_Semaphore_pendTimeout__I                             
c2194620  ti_sysbios_knl_Semaphore_pend__E                                    
c21a1c60  ti_sysbios_knl_Semaphore_post__E                                    
c21be744  ti_sysbios_knl_Swi_A_badPriority__C                                 
c21be748  ti_sysbios_knl_Swi_A_swiDisabled__C                                 
c20f73f8  ti_sysbios_knl_Swi_Instance_State_0_hookEnv__A                      
c21a7880  ti_sysbios_knl_Swi_Instance_finalize__F                             
c21a0340  ti_sysbios_knl_Swi_Instance_init__F                                 
c21be74c  ti_sysbios_knl_Swi_LD_end__C                                        
c21be750  ti_sysbios_knl_Swi_LM_begin__C                                      
c21be754  ti_sysbios_knl_Swi_LM_post__C                                       
c21bfd08  ti_sysbios_knl_Swi_Module_State_0_readyQ__A                         
c21be758  ti_sysbios_knl_Swi_Module__diagsEnabled__C                          
c21be75c  ti_sysbios_knl_Swi_Module__diagsIncluded__C                         
c21be760  ti_sysbios_knl_Swi_Module__diagsMask__C                             
c21be616  ti_sysbios_knl_Swi_Module__id__C                                    
c21be8f2  ti_sysbios_knl_Swi_Module__loggerDefined__C                         
c21be764  ti_sysbios_knl_Swi_Module__loggerFxn1__C                            
c21be768  ti_sysbios_knl_Swi_Module__loggerFxn4__C                            
c21be76c  ti_sysbios_knl_Swi_Module__loggerObj__C                             
c21c03d0  ti_sysbios_knl_Swi_Module__root__V                                  
c21c02e4  ti_sysbios_knl_Swi_Module__state__V                                 
c21b4260  ti_sysbios_knl_Swi_Module_startup__E                                
c21a92c0  ti_sysbios_knl_Swi_Module_startup__F                                
c21bdd2c  ti_sysbios_knl_Swi_Object__DESC__C                                  
c21bda90  ti_sysbios_knl_Swi_Object__PARAMS__C                                
c21be770  ti_sysbios_knl_Swi_Object__count__C                                 
c21acd60  ti_sysbios_knl_Swi_Object__create__S                                
c21b1200  ti_sysbios_knl_Swi_Object__get__S                                   
c21be774  ti_sysbios_knl_Swi_Object__heap__C                                  
c21be778  ti_sysbios_knl_Swi_Object__table__C                                 
c21c00b8  ti_sysbios_knl_Swi_Object__table__V                                 
c21b2b00  ti_sysbios_knl_Swi_Params__init__S                                  
c21b2b40  ti_sysbios_knl_Swi_disable__E                                       
c21b42a0  ti_sysbios_knl_Swi_enabled__E                                       
c21be448  ti_sysbios_knl_Swi_hooks__A                                         
c21be5e0  ti_sysbios_knl_Swi_hooks__C                                         
c21be77c  ti_sysbios_knl_Swi_numConstructedSwis__C                            
c21ace40  ti_sysbios_knl_Swi_postInit__I                                      
c21a5d40  ti_sysbios_knl_Swi_post__E                                          
c21ab760  ti_sysbios_knl_Swi_restoreHwi__E                                    
c21afcc0  ti_sysbios_knl_Swi_restore__E                                       
c21acf20  ti_sysbios_knl_Swi_runLoop__I                                       
c219f1c0  ti_sysbios_knl_Swi_run__I                                           
c21ad000  ti_sysbios_knl_Swi_schedule__I                                      
c21b42c0  ti_sysbios_knl_Swi_startup__E                                       
c21be780  ti_sysbios_knl_Task_A_badPriority__C                                
c21be784  ti_sysbios_knl_Task_A_badTaskState__C                               
c21be788  ti_sysbios_knl_Task_A_badThreadType__C                              
c21be78c  ti_sysbios_knl_Task_A_badTimeout__C                                 
c21be790  ti_sysbios_knl_Task_A_noPendElem__C                                 
c21be794  ti_sysbios_knl_Task_A_sleepTaskDisabled__C                          
c21be798  ti_sysbios_knl_Task_A_taskDisabled__C                               
c21be79c  ti_sysbios_knl_Task_E_deleteNotAllowed__C                           
c21be7a0  ti_sysbios_knl_Task_E_spOutOfBounds__C                              
c21be7a4  ti_sysbios_knl_Task_E_stackOverflow__C                              
c20f7378  ti_sysbios_knl_Task_Instance_State_0_hookEnv__A                     
c20f3528  ti_sysbios_knl_Task_Instance_State_0_stack__A                       
c20f7388  ti_sysbios_knl_Task_Instance_State_1_hookEnv__A                     
c20f5528  ti_sysbios_knl_Task_Instance_State_1_stack__A                       
c2194cc0  ti_sysbios_knl_Task_Instance_finalize__F                            
c2198520  ti_sysbios_knl_Task_Instance_init__F                                
c21be7a8  ti_sysbios_knl_Task_LD_block__C                                     
c21be7ac  ti_sysbios_knl_Task_LD_exit__C                                      
c21be7b0  ti_sysbios_knl_Task_LD_ready__C                                     
c21be7b4  ti_sysbios_knl_Task_LM_sleep__C                                     
c21be7b8  ti_sysbios_knl_Task_LM_switch__C                                    
c21c0408  ti_sysbios_knl_Task_Module_State_0_idleTask__A                      
c21bfd88  ti_sysbios_knl_Task_Module_State_0_readyQ__A                        
c21be7bc  ti_sysbios_knl_Task_Module_State_inactiveQ__O                       
c21be7c0  ti_sysbios_knl_Task_Module_State_terminatedQ__O                     
c21be7c4  ti_sysbios_knl_Task_Module__diagsEnabled__C                         
c21be7c8  ti_sysbios_knl_Task_Module__diagsIncluded__C                        
c21be7cc  ti_sysbios_knl_Task_Module__diagsMask__C                            
c21be8f4  ti_sysbios_knl_Task_Module__id__C                                   
c21be8f6  ti_sysbios_knl_Task_Module__loggerDefined__C                        
c21be7d0  ti_sysbios_knl_Task_Module__loggerFxn2__C                           
c21be7d4  ti_sysbios_knl_Task_Module__loggerFxn4__C                           
c21be7d8  ti_sysbios_knl_Task_Module__loggerObj__C                            
c21c03d8  ti_sysbios_knl_Task_Module__root__V                                 
c21c0038  ti_sysbios_knl_Task_Module__state__V                                
c21b42e0  ti_sysbios_knl_Task_Module_startup__E                               
c21a9420  ti_sysbios_knl_Task_Module_startup__F                               
c21bdd4c  ti_sysbios_knl_Task_Object__DESC__C                                 
c21bd810  ti_sysbios_knl_Task_Object__PARAMS__C                               
c21be7dc  ti_sysbios_knl_Task_Object__count__C                                
c21ad0e0  ti_sysbios_knl_Task_Object__create__S                               
c21b2c00  ti_sysbios_knl_Task_Object__delete__S                               
c21b2c40  ti_sysbios_knl_Task_Object__first__S                                
c21b2c80  ti_sysbios_knl_Task_Object__get__S                                  
c21be7e0  ti_sysbios_knl_Task_Object__heap__C                                 
c21b2cc0  ti_sysbios_knl_Task_Object__next__S                                 
c21be7e4  ti_sysbios_knl_Task_Object__table__C                                
c21bfb40  ti_sysbios_knl_Task_Object__table__V                                
c21b2d00  ti_sysbios_knl_Task_Params__init__S                                 
c21b4360  ti_sysbios_knl_Task_SupportProxy_Module__startupDone__S             
c21b4380  ti_sysbios_knl_Task_SupportProxy_checkStack__E                      
c21b43a0  ti_sysbios_knl_Task_SupportProxy_getStackAlignment__E               
c21b43c0  ti_sysbios_knl_Task_SupportProxy_start__E                           
c21b43e0  ti_sysbios_knl_Task_SupportProxy_swap__E                            
c21be7e8  ti_sysbios_knl_Task_allBlockedFunc__C                               
c21adc00  ti_sysbios_knl_Task_allBlockedFunction__I                           
c21a8a40  ti_sysbios_knl_Task_blockI__E                                       
c21a8bc0  ti_sysbios_knl_Task_checkStacks__E                                  
c21be7ec  ti_sysbios_knl_Task_defaultStackHeap__C                             
c21be7f0  ti_sysbios_knl_Task_defaultStackSize__C                             
c21afd40  ti_sysbios_knl_Task_deleteTerminatedTasksFunc__I                    
c21b2d40  ti_sysbios_knl_Task_disable__E                                      
c21b2d80  ti_sysbios_knl_Task_enabled__E                                      
c21b2dc0  ti_sysbios_knl_Task_enter__I                                        
c21a5f40  ti_sysbios_knl_Task_exit__E                                         
c21b4420  ti_sysbios_knl_Task_getHookContext__E                               
c21b4440  ti_sysbios_knl_Task_getIdleTask__E                                  
c21b1260  ti_sysbios_knl_Task_getMode__E                                      
c21b4460  ti_sysbios_knl_Task_getPri__E                                       
c21bd748  ti_sysbios_knl_Task_hooks__A                                        
c21be5e8  ti_sysbios_knl_Task_hooks__C                                        
c21be8fa  ti_sysbios_knl_Task_initStackFlag__C                                
c21be7f4  ti_sysbios_knl_Task_numConstructedTasks__C                          
c21a6340  ti_sysbios_knl_Task_postInit__I                                     
c21b12c0  ti_sysbios_knl_Task_processVitalTaskFlag__I                         
c21b2e00  ti_sysbios_knl_Task_restoreHwi__E                                   
c21b1320  ti_sysbios_knl_Task_restore__E                                      
c21a3ac0  ti_sysbios_knl_Task_schedule__I                                     
c21b44a0  ti_sysbios_knl_Task_self__E                                         
c21b2e40  ti_sysbios_knl_Task_setHookContext__E                               
c21b1380  ti_sysbios_knl_Task_sleepTimeout__I                                 
c219c720  ti_sysbios_knl_Task_sleep__E                                        
c21a3d40  ti_sysbios_knl_Task_startCore__E                                    
c21b44c0  ti_sysbios_knl_Task_startup__E                                      
c21a6520  ti_sysbios_knl_Task_unblockI__E                                     
c21b2e80  ti_sysbios_knl_Task_unblock__E                                      
c21be7f8  ti_sysbios_timers_timer64_Timer_A_notAvailable__C                   
c21be7fc  ti_sysbios_timers_timer64_Timer_E_cannotSupport__C                  
c21be800  ti_sysbios_timers_timer64_Timer_E_invalidTimer__C                   
c21be804  ti_sysbios_timers_timer64_Timer_E_notAvailable__C                   
c21adcc0  ti_sysbios_timers_timer64_Timer_Instance_finalize__F                
c219ea60  ti_sysbios_timers_timer64_Timer_Instance_init__F                    
c21bfee8  ti_sysbios_timers_timer64_Timer_Module_State_0_device__A            
c21c0208  ti_sysbios_timers_timer64_Timer_Module_State_0_gctrl__A             
c21c0228  ti_sysbios_timers_timer64_Timer_Module_State_0_handles__A           
c21c0248  ti_sysbios_timers_timer64_Timer_Module_State_0_intFreqs__A          
c21be808  ti_sysbios_timers_timer64_Timer_Module__diagsEnabled__C             
c21be80c  ti_sysbios_timers_timer64_Timer_Module__diagsIncluded__C            
c21be810  ti_sysbios_timers_timer64_Timer_Module__diagsMask__C                
c21be8fc  ti_sysbios_timers_timer64_Timer_Module__id__C                       
c21c03e0  ti_sysbios_timers_timer64_Timer_Module__root__V                     
c21b2ec0  ti_sysbios_timers_timer64_Timer_Module__startupDone__F              
c21b44e0  ti_sysbios_timers_timer64_Timer_Module__startupDone__S              
c21c0300  ti_sysbios_timers_timer64_Timer_Module__state__V                    
c21b4500  ti_sysbios_timers_timer64_Timer_Module_startup__E                   
c219ab40  ti_sysbios_timers_timer64_Timer_Module_startup__F                   
c21bdd6c  ti_sysbios_timers_timer64_Timer_Object__DESC__C                     
c21bd418  ti_sysbios_timers_timer64_Timer_Object__PARAMS__C                   
c21ab860  ti_sysbios_timers_timer64_Timer_Object__create__S                   
c21bff98  ti_sysbios_timers_timer64_Timer_Object__table__V                    
c21b2f00  ti_sysbios_timers_timer64_Timer_Params__init__S                     
c21b4520  ti_sysbios_timers_timer64_Timer_TimerSupportProxy_enable__E         
c21be814  ti_sysbios_timers_timer64_Timer_anyMask__C                          
c21b2f40  ti_sysbios_timers_timer64_Timer_checkOverflow__I                    
c21be818  ti_sysbios_timers_timer64_Timer_defaultHalf__C                      
c21a06a0  ti_sysbios_timers_timer64_Timer_deviceConfig__I                     
c21be81c  ti_sysbios_timers_timer64_Timer_freqDivisor__C                      
c21a8100  ti_sysbios_timers_timer64_Timer_getFreq__E                          
c21aeda0  ti_sysbios_timers_timer64_Timer_getPeriod__E                        
c21a9580  ti_sysbios_timers_timer64_Timer_initDevice__I                       
c21a0d40  ti_sysbios_timers_timer64_Timer_initObj__I                          
c21be820  ti_sysbios_timers_timer64_Timer_numLocalTimers__C                   
c21be824  ti_sysbios_timers_timer64_Timer_numTimerDevices__C                  
c21b2f80  ti_sysbios_timers_timer64_Timer_postInit__I                         
c21a52e0  ti_sysbios_timers_timer64_Timer_setPeriodMicroSecs__E               
c21a4be0  ti_sysbios_timers_timer64_Timer_start__E                            
c21be8fe  ti_sysbios_timers_timer64_Timer_startupNeeded__C                    
c21aee40  ti_sysbios_timers_timer64_Timer_startup__E                          
c21ad1c0  ti_sysbios_timers_timer64_Timer_stop__E                             
c21be828  ti_sysbios_utils_Load_LS_cpuLoad__C                                 
c21be82c  ti_sysbios_utils_Load_LS_hwiLoad__C                                 
c21be830  ti_sysbios_utils_Load_LS_swiLoad__C                                 
c21be834  ti_sysbios_utils_Load_LS_taskLoad__C                                
c21c0410  ti_sysbios_utils_Load_Module_State_0_runningTask__A                 
c21c0080  ti_sysbios_utils_Load_Module_State_0_taskEnv__A                     
c21c0418  ti_sysbios_utils_Load_Module_State_0_taskStartTime__A               
c21be838  ti_sysbios_utils_Load_Module_State_taskList__O                      
c21be83c  ti_sysbios_utils_Load_Module__diagsEnabled__C                       
c21be840  ti_sysbios_utils_Load_Module__diagsIncluded__C                      
c21be844  ti_sysbios_utils_Load_Module__diagsMask__C                          
c21be902  ti_sysbios_utils_Load_Module__id__C                                 
c21be904  ti_sysbios_utils_Load_Module__loggerDefined__C                      
c21be848  ti_sysbios_utils_Load_Module__loggerFxn1__C                         
c21be84c  ti_sysbios_utils_Load_Module__loggerFxn2__C                         
c21be850  ti_sysbios_utils_Load_Module__loggerFxn4__C                         
c21be854  ti_sysbios_utils_Load_Module__loggerObj__C                          
c21bfbe0  ti_sysbios_utils_Load_Module__state__V                              
c21add80  ti_sysbios_utils_Load_addTask__E                                    
c21be906  ti_sysbios_utils_Load_autoAddTasks__C                               
c21b4540  ti_sysbios_utils_Load_getCPULoad__E                                 
c21afdc0  ti_sysbios_utils_Load_getGlobalHwiLoad__E                           
c21b13e0  ti_sysbios_utils_Load_getGlobalSwiLoad__E                           
c21afe40  ti_sysbios_utils_Load_getTaskLoad__E                                
c21aa220  ti_sysbios_utils_Load_hwiBeginHook__E                               
c21be908  ti_sysbios_utils_Load_hwiEnabled__C                                 
c21ade40  ti_sysbios_utils_Load_hwiEndHook__E                                 
c21a7a40  ti_sysbios_utils_Load_idleFxn__E                                    
c21adf00  ti_sysbios_utils_Load_logCPULoad__I                                 
c21a1f60  ti_sysbios_utils_Load_logLoads__I                                   
c21be858  ti_sysbios_utils_Load_postUpdate__C                                 
c21afec0  ti_sysbios_utils_Load_removeTask__E                                 
c21ab960  ti_sysbios_utils_Load_swiBeginHook__E                               
c21aeee0  ti_sysbios_utils_Load_swiEndHook__E                                 
c21aba60  ti_sysbios_utils_Load_taskCreateHook__E                             
c21aef80  ti_sysbios_utils_Load_taskDeleteHook__E                             
c21b4560  ti_sysbios_utils_Load_taskRegHook__E                                
c21abb60  ti_sysbios_utils_Load_taskSwitchHook__E                             
c21a82a0  ti_sysbios_utils_Load_updateCurrentThreadTime__E                    
c21be90a  ti_sysbios_utils_Load_updateInIdle__C                               
c21a5500  ti_sysbios_utils_Load_updateLoads__E                                
c21a3fc0  ti_sysbios_utils_Load_updateThreadContexts__E                       
c21b4580  ti_sysbios_utils_Load_update__E                                     
c21be85c  ti_sysbios_utils_Load_windowInMs__C                                 
c20f6b70  tx_data                                                             
c21c0ac8  tx_len                                                              
c21bffe8  ulDataPatternTable                                                  
c21aff40  unlink                                                              
c20f6c78  vrf_data                                                            
c21b3000  vsprintf                                                            
c2194114  waitForXms                                                          
c21b3040  wcslen                                                              
c21b1440  write                                                               
c21be860  xdc_runtime_Assert_E_assertFailed__C                                
c21af020  xdc_runtime_Assert_raise__I                                         
c21be864  xdc_runtime_Core_A_initializedParams__C                             
c21be868  xdc_runtime_Core_Module__diagsEnabled__C                            
c21be86c  xdc_runtime_Core_Module__diagsIncluded__C                           
c21be870  xdc_runtime_Core_Module__diagsMask__C                               
c21be90c  xdc_runtime_Core_Module__id__C                                      
c21affc0  xdc_runtime_Core_assignLabel__I                                     
c21b0040  xdc_runtime_Core_assignParams__I                                    
c21a5720  xdc_runtime_Core_createObject__I                                    
c21abc60  xdc_runtime_Core_deleteObject__I                                    
c21be874  xdc_runtime_Error_E_memory__C                                       
c21be878  xdc_runtime_Error_Module__diagsEnabled__C                           
c21be87c  xdc_runtime_Error_Module__diagsIncluded__C                          
c21be880  xdc_runtime_Error_Module__diagsMask__C                              
c21be90e  xdc_runtime_Error_Module__loggerDefined__C                          
c21be884  xdc_runtime_Error_Module__loggerFxn8__C                             
c21be888  xdc_runtime_Error_Module__loggerObj__C                              
c21c0346  xdc_runtime_Error_Module__state__V                                  
c21b45c0  xdc_runtime_Error_check__E                                          
c21b3080  xdc_runtime_Error_check__F                                          
c21b45e0  xdc_runtime_Error_init__E                                           
c21b30c0  xdc_runtime_Error_init__F                                           
c21be910  xdc_runtime_Error_maxDepth__C                                       
c21be88c  xdc_runtime_Error_policy__C                                         
c21b4600  xdc_runtime_Error_print__E                                          
c21ad2a0  xdc_runtime_Error_print__F                                          
c21be890  xdc_runtime_Error_raiseHook__C                                      
c21b14a0  xdc_runtime_Error_raiseX__E                                         
c21a4240  xdc_runtime_Error_raiseX__F                                         
c21b4620  xdc_runtime_Gate_enterSystem__E                                     
c21b4640  xdc_runtime_Gate_enterSystem__F                                     
c21b4660  xdc_runtime_Gate_leaveSystem__E                                     
c21b4680  xdc_runtime_Gate_leaveSystem__F                                     
c21be894  xdc_runtime_IGateProvider_Interface__BASE__C                        
c21be898  xdc_runtime_IHeap_Interface__BASE__C                                
c21be89c  xdc_runtime_ILogger_Interface__BASE__C                              
c21be8a0  xdc_runtime_IModule_Interface__BASE__C                              
c21be8a4  xdc_runtime_Log_L_error__C                                          
c21b46a0  xdc_runtime_Log_doPrint__E                                          
c21a6140  xdc_runtime_Log_doPrint__F                                          
c21b1500  xdc_runtime_LoggerSys_Handle__label__S                              
c21b46c0  xdc_runtime_LoggerSys_Instance_init__F                              
c21bd8b8  xdc_runtime_LoggerSys_Module__FXNS__C                               
c21c03e8  xdc_runtime_LoggerSys_Module__root__V                               
c21bdd8c  xdc_runtime_LoggerSys_Object__DESC__C                               
c21be460  xdc_runtime_LoggerSys_Object__PARAMS__C                             
c21b00c0  xdc_runtime_LoggerSys_Object__create__S                             
c21b3180  xdc_runtime_LoggerSys_Object__delete__S                             
c21c0358  xdc_runtime_LoggerSys_Object__table__V                              
c21b46e0  xdc_runtime_LoggerSys_TimestampProxy_get64__E                       
c21b4700  xdc_runtime_LoggerSys_disable__E                                    
c21b4720  xdc_runtime_LoggerSys_disable__F                                    
c21b4740  xdc_runtime_LoggerSys_enable__E                                     
c21b4760  xdc_runtime_LoggerSys_enable__F                                     
c21b31c0  xdc_runtime_LoggerSys_write0__E                                     
c21b1560  xdc_runtime_LoggerSys_write0__F                                     
c21b3200  xdc_runtime_LoggerSys_write1__E                                     
c21b15c0  xdc_runtime_LoggerSys_write1__F                                     
c21b3240  xdc_runtime_LoggerSys_write2__E                                     
c21b3280  xdc_runtime_LoggerSys_write2__F                                     
c21b1620  xdc_runtime_LoggerSys_write4__E                                     
c21b32c0  xdc_runtime_LoggerSys_write4__F                                     
c21b0140  xdc_runtime_LoggerSys_write8__E                                     
c21ad380  xdc_runtime_LoggerSys_write8__F                                     
c21b4780  xdc_runtime_Memory_HeapProxy_alloc__E                               
c21b47a0  xdc_runtime_Memory_HeapProxy_free__E                                
c21be912  xdc_runtime_Memory_Module__id__C                                    
c21c0314  xdc_runtime_Memory_Module__state__V                                 
c21b47c0  xdc_runtime_Memory_alloc__E                                         
c21ad460  xdc_runtime_Memory_alloc__F                                         
c21b47e0  xdc_runtime_Memory_calloc__E                                        
c21b1680  xdc_runtime_Memory_calloc__F                                        
c21be8a8  xdc_runtime_Memory_defaultHeapInstance__C                           
c21b4800  xdc_runtime_Memory_free__E                                          
c21b3300  xdc_runtime_Memory_free__F                                          
c21c03f0  xdc_runtime_Registry_Module__state__V                               
c21b4820  xdc_runtime_Registry_findById__E                                    
c21b3340  xdc_runtime_Registry_findById__F                                    
c21c03f8  xdc_runtime_Startup_Module__state__V                                
00000001  xdc_runtime_Startup__EXECFXN__C                                     
00000001  xdc_runtime_Startup__RESETFXN__C                                    
c21be8ac  xdc_runtime_Startup_execImpl__C                                     
c21b4840  xdc_runtime_Startup_exec__E                                         
c21abd60  xdc_runtime_Startup_exec__F                                         
c21b3380  xdc_runtime_Startup_exec__I                                         
c21be5f0  xdc_runtime_Startup_firstFxns__A                                    
c21be5f8  xdc_runtime_Startup_firstFxns__C                                    
c21be8b0  xdc_runtime_Startup_lastFxns__A                                     
c21be600  xdc_runtime_Startup_lastFxns__C                                     
c21be8b4  xdc_runtime_Startup_maxPasses__C                                    
c21b4860  xdc_runtime_Startup_reset__I                                        
c21be3c8  xdc_runtime_Startup_sfxnRts__A                                      
c21be8b8  xdc_runtime_Startup_sfxnRts__C                                      
c21bd8f0  xdc_runtime_Startup_sfxnTab__A                                      
c21be8bc  xdc_runtime_Startup_sfxnTab__C                                      
c21be8c0  xdc_runtime_Startup_startModsFxn__C                                 
c21a4e40  xdc_runtime_Startup_startMods__I                                    
c20f6528  xdc_runtime_SysMin_Module_State_0_outbuf__A                         
c21c0364  xdc_runtime_SysMin_Module__state__V                                 
c21b4880  xdc_runtime_SysMin_Module_startup__E                                
c21b16e0  xdc_runtime_SysMin_Module_startup__F                                
c21b48a0  xdc_runtime_SysMin_abort__E                                         
c21af0c0  xdc_runtime_SysMin_abort__F                                         
c21be8c4  xdc_runtime_SysMin_bufSize__C                                       
c21b48c0  xdc_runtime_SysMin_exit__E                                          
c21b1740  xdc_runtime_SysMin_exit__F                                          
c21be914  xdc_runtime_SysMin_flushAtExit__C                                   
c21af160  xdc_runtime_SysMin_flush__F                                         
c21be8c8  xdc_runtime_SysMin_outputFunc__C                                    
c21b48e0  xdc_runtime_SysMin_output__I                                        
c21b4900  xdc_runtime_SysMin_putch__E                                         
c21af200  xdc_runtime_SysMin_putch__F                                         
c21b4920  xdc_runtime_SysMin_ready__E                                         
c21b4940  xdc_runtime_SysMin_ready__F                                         
c21b4960  xdc_runtime_System_Module_GateProxy_enter__E                        
c21b4980  xdc_runtime_System_Module_GateProxy_leave__E                        
c21c0268  xdc_runtime_System_Module_State_0_atexitHandlers__A                 
c21be8cc  xdc_runtime_System_Module__gateObj__C                               
c21c0370  xdc_runtime_System_Module__state__V                                 
c21b49a0  xdc_runtime_System_Module_startup__E                                
c21b49c0  xdc_runtime_System_Module_startup__F                                
c21b49e0  xdc_runtime_System_SupportProxy_abort__E                            
c21b4a00  xdc_runtime_System_SupportProxy_exit__E                             
c21b4a20  xdc_runtime_System_SupportProxy_putch__E                            
c21b4a40  xdc_runtime_System_SupportProxy_ready__E                            
c21b4a60  xdc_runtime_System_abort__E                                         
c21b33c0  xdc_runtime_System_abort__F                                         
c21b3400  xdc_runtime_System_aprintf__E                                       
c21b17a0  xdc_runtime_System_aprintf_va__F                                    
c21b4a80  xdc_runtime_System_atexit__E                                        
c21b01c0  xdc_runtime_System_atexit__F                                        
c21b17a0  xdc_runtime_System_avprintf__F                                      
c218f9c0  xdc_runtime_System_doPrint__I                                       
c21b4aa0  xdc_runtime_System_exit__E                                          
c21b4ac0  xdc_runtime_System_exit__F                                          
c21be8d0  xdc_runtime_System_extendFxn__C                                     
c21adfc0  xdc_runtime_System_formatNum__I                                     
c21b4ae0  xdc_runtime_System_lastFxn__I                                       
c21be8d4  xdc_runtime_System_maxAtexitHandlers__C                             
c21a0a00  xdc_runtime_System_printfExtend__I                                  
c21b3440  xdc_runtime_System_printf__E                                        
c21b1800  xdc_runtime_System_printf_va__F                                     
c21b4b00  xdc_runtime_System_putch__E                                         
c21b3480  xdc_runtime_System_putch__F                                         
c21b0240  xdc_runtime_System_putchar__I                                       
c21b02c0  xdc_runtime_System_rtsExit__I                                       
c21b4b40  xdc_runtime_System_snprintf_va__F                                   
c21b1800  xdc_runtime_System_vprintf__F                                       
c21b4b20  xdc_runtime_System_vsnprintf__E                                     
c21b4b40  xdc_runtime_System_vsnprintf__F                                     
c21be916  xdc_runtime_Text_charCnt__C                                         
c21b6ee0  xdc_runtime_Text_charTab__A                                         
c21be8d8  xdc_runtime_Text_charTab__C                                         
c21b4b60  xdc_runtime_Text_cordText__E                                        
c21b1860  xdc_runtime_Text_cordText__F                                        
c21be918  xdc_runtime_Text_isLoaded__C                                        
c21be8dc  xdc_runtime_Text_nameEmpty__C                                       
c21be8e0  xdc_runtime_Text_nameStatic__C                                      
c21be8e4  xdc_runtime_Text_nameUnknown__C                                     
c21bc5f0  xdc_runtime_Text_nodeTab__A                                         
c21be8e8  xdc_runtime_Text_nodeTab__C                                         
c21b0340  xdc_runtime_Text_printVisFxn__I                                     
c21b4b80  xdc_runtime_Text_putLab__E                                          
c21aa360  xdc_runtime_Text_putLab__F                                          
c21b34c0  xdc_runtime_Text_putMod__E                                          
c21aaa40  xdc_runtime_Text_putMod__F                                          
c21b4ba0  xdc_runtime_Text_putSite__E                                         
c21a7c00  xdc_runtime_Text_putSite__F                                         
c21be91a  xdc_runtime_Text_registryModsLastId__C                              
c21b4bc0  xdc_runtime_Text_ropeText__E                                        
c21b3500  xdc_runtime_Text_ropeText__F                                        
c21be91c  xdc_runtime_Text_unnamedModsLastId__C                               
c21abe60  xdc_runtime_Text_visitRope2__I                                      
c21be8ec  xdc_runtime_Text_visitRopeFxn__C                                    
c21b3540  xdc_runtime_Text_visitRope__I                                       
c21af2a0  xdc_runtime_Text_xprintf__I                                         
c21b4be0  xdc_runtime_Timestamp_SupportProxy_get32__E                         
c21b4c00  xdc_runtime_Timestamp_SupportProxy_getFreq__E                       
c21b4c20  xdc_runtime_Timestamp_get32__E                                      
c21b4be0  xdc_runtime_Timestamp_get32__F                                      
c21b4c40  xdc_runtime_Timestamp_getFreq__E                                    
c21b4c00  xdc_runtime_Timestamp_getFreq__F                                    


GLOBAL SYMBOLS: SORTED BY Symbol Address 

address   name                                                                
-------   ----                                                                
00000000  _argsize                                                            
00000001  xdc_runtime_Startup__EXECFXN__C                                     
00000001  xdc_runtime_Startup__RESETFXN__C                                    
00004000  __TI_STACK_SIZE                                                     
00800000  _stack                                                              
00804000  __TI_STACK_END                                                      
c0000000  __ASM__                                                             
c0000000  ti_sysbios_heaps_HeapMem_Instance_State_0_buf__A                    
c0000058  __ISA__                                                             
c0000070  __PLAT__                                                            
c00000a0  __TARG__                                                            
c00000c8  __TRDR__                                                            
c2000000  g_pucBuffer                                                         
c20bb824  swCtrlFeatures                                                      
c20db828  buff                                                                
c20f3528  ti_sysbios_knl_Task_Instance_State_0_stack__A                       
c20f5528  ti_sysbios_knl_Task_Instance_State_1_stack__A                       
c20f5d28  CmdHistory                                                          
c20f6528  xdc_runtime_SysMin_Module_State_0_outbuf__A                         
c20f6928  __TI_tmpnams                                                        
c20f6a68  rx_data                                                             
c20f6b70  tx_data                                                             
c20f6c78  vrf_data                                                            
c20f6e80  _lv_draw_mask_list                                                  
c20f6f00  RcvFis                                                              
c20f6fa0  lv_mem_buf                                                          
c20f70a0  _lv_circle_cache                                                    
c20f7160  g_cCmdBuf                                                           
c20f71a0  pllcfg                                                              
c20f71d0  _lv_img_cache_single                                                
c20f71fc  TouchInfo                                                           
c20f7228  RTCTime                                                             
c20f7314  _lv_anim_ll                                                         
c20f7320  _lv_disp_ll                                                         
c20f732c  _lv_fsdrv_ll                                                        
c20f7338  _lv_group_ll                                                        
c20f7344  _lv_img_decoder_ll                                                  
c20f7350  _lv_indev_ll                                                        
c20f735c  _lv_obj_style_trans_ll                                              
c20f7368  _lv_timer_ll                                                        
c20f7378  ti_sysbios_knl_Task_Instance_State_0_hookEnv__A                     
c20f7388  ti_sysbios_knl_Task_Instance_State_1_hookEnv__A                     
c20f7398  I2CData                                                             
c20f73a8  parmbuf                                                             
c20f73d0  ti_sysbios_family_c64p_Hwi_Instance_State_0_hookEnv__A              
c20f73d8  ti_sysbios_family_c64p_Hwi_Instance_State_1_hookEnv__A              
c20f73e0  ti_sysbios_family_c64p_Hwi_Instance_State_2_hookEnv__A              
c20f73e8  ti_sysbios_family_c64p_Hwi_Instance_State_3_hookEnv__A              
c20f73f0  ti_sysbios_family_c64p_Hwi_Instance_State_4_hookEnv__A              
c20f73f8  ti_sysbios_knl_Swi_Instance_State_0_hookEnv__A                      
c20f80c4  lodepng_load_file                                                   
c20f816c  lodepng_save_file                                                   
c20f9994  lodepng_huffman_code_lengths                                        
c20faccc  lodepng_inflate                                                     
c20fcd38  lodepng_deflate                                                     
c20fd140  lodepng_zlib_decompress                                             
c20fd2cc  lodepng_zlib_compress                                               
c20fd4f0  lodepng_compress_settings_init                                      
c20fd570  lodepng_decompress_settings_init                                    
c20fd5c4  lodepng_crc32                                                       
c20fd834  lodepng_chunk_length                                                
c20fd874  lodepng_chunk_type                                                  
c20fd8e4  lodepng_chunk_type_equals                                           
c20fd9ac  lodepng_chunk_ancillary                                             
c20fd9f0  lodepng_chunk_private                                               
c20fda34  lodepng_chunk_safetocopy                                            
c20fda78  lodepng_chunk_data                                                  
c20fdaa8  lodepng_chunk_data_const                                            
c20fdad4  lodepng_chunk_check_crc                                             
c20fdb54  lodepng_chunk_generate_crc                                          
c20fdbb0  lodepng_chunk_next                                                  
c20fdd20  lodepng_chunk_next_const                                            
c20fde84  lodepng_chunk_find                                                  
c20fdf10  lodepng_chunk_find_const                                            
c20fdfa0  lodepng_chunk_append                                                
c20fe248  lodepng_chunk_create                                                
c20fe598  lodepng_color_mode_init                                             
c20fe700  lodepng_color_mode_cleanup                                          
c20fe72c  lodepng_color_mode_copy                                             
c20fe7e0  lodepng_color_mode_make                                             
c20fea60  lodepng_palette_clear                                               
c20feaac  lodepng_palette_add                                                 
c20febc0  lodepng_get_bpp                                                     
c20fec08  lodepng_get_channels                                                
c20fec4c  lodepng_is_greyscale_type                                           
c20fec94  lodepng_is_alpha_type                                               
c20fecd4  lodepng_is_palette_type                                             
c20fed08  lodepng_has_palette_alpha                                           
c20feda4  lodepng_can_have_alpha                                              
c20feea0  lodepng_get_raw_size                                                
c20ff6c4  lodepng_add_text                                                    
c20ff710  lodepng_clear_text                                                  
c20ff9c0  lodepng_clear_itext                                                 
c20ffbe0  lodepng_add_itext                                                   
c20ffd14  lodepng_set_icc                                                     
c20ffd88  lodepng_clear_icc                                                   
c20ffdf0  lodepng_info_init                                                   
c20ffecc  lodepng_info_cleanup                                                
c20fff24  lodepng_info_copy                                                   
c210230c  lodepng_convert                                                     
c2102a98  lodepng_color_stats_init                                            
c2102bd4  lodepng_compute_color_stats                                         
c2103f64  lodepng_inspect                                                     
c2106964  lodepng_inspect_chunk                                               
c21076a0  lodepng_decode                                                      
c210788c  lodepng_decode_memory                                               
c2107944  lodepng_decode32                                                    
c21079b0  lodepng_decode24                                                    
c2107a24  lodepng_decode_file                                                 
c2107acc  lodepng_decode32_file                                               
c2107b20  lodepng_decode24_file                                               
c2107b70  lodepng_decoder_settings_init                                       
c2107bec  lodepng_state_init                                                  
c2107c50  lodepng_state_cleanup                                               
c2107c94  lodepng_state_copy                                                  
c210ac04  lodepng_encode                                                      
c210b994  lodepng_encode_memory                                               
c210ba54  lodepng_encode32                                                    
c210bac8  lodepng_encode24                                                    
c210bb38  lodepng_encode_file                                                 
c210bbd0  lodepng_encode32_file                                               
c210bc24  lodepng_encode24_file                                               
c210bc74  lodepng_encoder_settings_init                                       
c210bce4  lodepng_error_text                                                  
c210c84c  lv_chart_create                                                     
c210c898  lv_chart_set_type                                                   
c210ca38  lv_chart_set_point_count                                            
c210cb68  lv_chart_set_range                                                  
c210cca8  lv_chart_set_update_mode                                            
c210cd48  lv_chart_set_div_line_count                                         
c210cdf8  lv_chart_set_zoom_x                                                 
c210ce84  lv_chart_set_zoom_y                                                 
c210cf10  lv_chart_get_zoom_x                                                 
c210cf54  lv_chart_get_zoom_y                                                 
c210cf98  lv_chart_set_axis_tick                                              
c210d0b0  lv_chart_get_type                                                   
c210d100  lv_chart_get_point_count                                            
c210d140  lv_chart_get_x_start_point                                          
c210d180  lv_chart_get_point_pos_by_id                                        
c210d5a8  lv_chart_refresh                                                    
c210d5e0  lv_chart_add_series                                                 
c210d818  lv_chart_remove_series                                              
c210d8a0  lv_chart_hide_series                                                
c210d920  lv_chart_set_series_color                                           
c210d978  lv_chart_set_x_start_point                                          
c210d9f8  lv_chart_get_series_next                                            
c210da70  lv_chart_add_cursor                                                 
c210db38  lv_chart_set_cursor_pos                                             
c210dbb0  lv_chart_set_cursor_point                                           
c210dc38  lv_chart_get_cursor_point                                           
c210dc78  lv_chart_set_all_value                                              
c210dd2c  lv_chart_set_next_value                                             
c210ddc8  lv_chart_set_next_value2                                            
c210de94  lv_chart_set_value_by_id                                            
c210df2c  lv_chart_set_value_by_id2                                           
c210e00c  lv_chart_set_ext_y_array                                            
c210e090  lv_chart_set_ext_x_array                                            
c210e118  lv_chart_get_y_array                                                
c210e158  lv_chart_get_x_array                                                
c210e198  lv_chart_get_pressed_point                                          
c2111fa8  get_tick_gsc                                                        
c2115374  lv_theme_default_init                                               
c21154e8  lv_theme_default_get                                                
c2115538  lv_theme_default_is_inited                                          
c21174d8  lv_draw_mask_add                                                    
c21175c4  lv_draw_mask_apply                                                  
c21176b8  lv_draw_mask_apply_ids                                              
c21177f8  lv_draw_mask_remove_id                                              
c211788c  lv_draw_mask_remove_custom                                          
c2117944  lv_draw_mask_free_param                                             
c2117a00  _lv_draw_mask_cleanup                                               
c2117ab8  lv_draw_mask_get_cnt                                                
c2117b58  lv_draw_mask_is_any                                                 
c2117cd4  lv_draw_mask_line_points_init                                       
c211812c  lv_draw_mask_line_angle_init                                        
c21181e0  lv_draw_mask_angle_init                                             
c2118458  lv_draw_mask_radius_init                                            
c2118864  lv_draw_mask_fade_init                                              
c2118910  lv_draw_mask_map_init                                               
c2118984  lv_draw_mask_polygon_init                                           
c211c3c0  lv_draw_sw_rect                                                     
c211c438  lv_draw_sw_bg                                                       
c211fa2c  draw_border_generic                                                 
c2120a60  lv_obj_set_pos                                                      
c2120ab0  lv_obj_set_x                                                        
c2120b44  lv_obj_set_y                                                        
c2120bd0  lv_obj_refr_size                                                    
c21211f0  lv_obj_set_size                                                     
c2121240  lv_obj_set_width                                                    
c21212cc  lv_obj_set_height                                                   
c2121360  lv_obj_set_content_width                                            
c21213e4  lv_obj_set_content_height                                           
c2121468  lv_obj_set_layout                                                   
c21214b4  lv_obj_is_layout_positioned                                         
c212156c  lv_obj_mark_layout_as_dirty                                         
c21215f0  lv_obj_update_layout                                                
c21216a8  lv_layout_register                                                  
c2121738  lv_obj_set_align                                                    
c2121784  lv_obj_align                                                        
c21217e8  lv_obj_align_to                                                     
c2121e98  lv_obj_get_coords                                                   
c2121ed8  lv_obj_get_x                                                        
c2121f88  lv_obj_get_x2                                                       
c2121fe8  lv_obj_get_y                                                        
c212209c  lv_obj_get_y2                                                       
c21220f8  lv_obj_get_x_aligned                                                
c2122144  lv_obj_get_y_aligned                                                
c212218c  lv_obj_get_width                                                    
c21221d4  lv_obj_get_height                                                   
c2122224  lv_obj_get_content_width                                            
c21222a8  lv_obj_get_content_height                                           
c212232c  lv_obj_get_content_coords                                           
c2122424  lv_obj_get_self_width                                               
c2122474  lv_obj_get_self_height                                              
c21224c8  lv_obj_refresh_self_size                                            
c2122554  lv_obj_refr_pos                                                     
c2122b40  lv_obj_move_to                                                      
c2122e20  lv_obj_move_children_by                                             
c2122f38  lv_obj_invalidate_area                                              
c2122fa8  lv_obj_invalidate                                                   
c2123078  lv_obj_area_is_visible                                              
c2123298  lv_obj_is_visible                                                   
c212334c  lv_obj_set_ext_click_area                                           
c21233a4  lv_obj_get_click_area                                               
c2123450  lv_obj_hit_test                                                     
c2123564  lv_clamp_width                                                      
c2123714  lv_clamp_height                                                     
c21242c0  lv_btnmatrix_create                                                 
c212430c  lv_btnmatrix_set_map                                                
c2124760  lv_btnmatrix_set_ctrl_map                                           
c21247c4  lv_btnmatrix_set_selected_btn                                       
c212486c  lv_btnmatrix_set_btn_ctrl                                           
c212494c  lv_btnmatrix_clear_btn_ctrl                                         
c2124a00  lv_btnmatrix_set_btn_ctrl_all                                       
c2124a98  lv_btnmatrix_clear_btn_ctrl_all                                     
c2124b34  lv_btnmatrix_set_btn_width                                          
c2124c04  lv_btnmatrix_set_one_checked                                        
c2124c6c  lv_btnmatrix_get_map                                                
c2124cac  lv_btnmatrix_get_selected_btn                                       
c2124cec  lv_btnmatrix_get_btn_text                                           
c2124e44  lv_btnmatrix_has_btn_ctrl                                           
c2124ee8  lv_btnmatrix_get_one_checked                                        
c21277c0  lv_textarea_create                                                  
c212780c  lv_textarea_add_char                                                
c2127a24  lv_textarea_add_text                                                
c2127c60  lv_textarea_del_char                                                
c2127e14  lv_textarea_del_char_forward                                        
c2127e70  lv_textarea_set_text                                                
c2128040  lv_textarea_set_placeholder_text                                    
c2128124  lv_textarea_set_cursor_pos                                          
c2128324  lv_textarea_set_cursor_click_pos                                    
c2128394  lv_textarea_set_password_mode                                       
c21284f4  lv_textarea_set_one_line                                            
c2128650  lv_textarea_set_accepted_chars                                      
c2128698  lv_textarea_set_max_length                                          
c21286e0  lv_textarea_set_insert_replace                                      
c2128724  lv_textarea_set_text_selection                                      
c2128798  lv_textarea_set_password_show_time                                  
c21287e8  lv_textarea_set_align                                               
c2128890  lv_textarea_get_text                                                
c21288f8  lv_textarea_get_placeholder_text                                    
c2128958  lv_textarea_get_label                                               
c2128994  lv_textarea_get_cursor_pos                                          
c21289d4  lv_textarea_get_cursor_click_pos                                    
c2128a30  lv_textarea_get_password_mode                                       
c2128a8c  lv_textarea_get_one_line                                            
c2128ae4  lv_textarea_get_accepted_chars                                      
c2128b20  lv_textarea_get_max_length                                          
c2128b58  lv_textarea_text_is_selected                                        
c2128be4  lv_textarea_get_text_selection                                      
c2128c34  lv_textarea_get_password_show_time                                  
c2128c74  lv_textarea_clear_selection                                         
c2128d08  lv_textarea_cursor_right                                            
c2128d4c  lv_textarea_cursor_left                                             
c2128da0  lv_textarea_cursor_down                                             
c2128ea0  lv_textarea_cursor_up                                               
c212a9ac  lv_table_create                                                     
c212a9f4  lv_table_set_cell_value                                             
c212aba0  lv_table_set_cell_value_fmt                                         
c212ada0  lv_table_set_row_cnt                                                
c212afe8  lv_table_set_col_cnt                                                
c212b2d0  lv_table_set_col_width                                              
c212b350  lv_table_add_cell_ctrl                                              
c212b4b8  lv_table_clear_cell_ctrl                                            
c212b630  lv_table_get_cell_value                                             
c212b720  lv_table_get_row_cnt                                                
c212b760  lv_table_get_col_cnt                                                
c212b7a0  lv_table_get_col_width                                              
c212b810  lv_table_has_cell_ctrl                                              
c212b924  lv_table_get_selected_cell                                          
c212db0c  lv_obj_set_scrollbar_mode                                           
c212dbb4  lv_obj_set_scroll_dir                                               
c212dc44  lv_obj_set_scroll_snap_x                                            
c212dca8  lv_obj_set_scroll_snap_y                                            
c212dd14  lv_obj_get_scrollbar_mode                                           
c212dd74  lv_obj_get_scroll_dir                                               
c212ddd4  lv_obj_get_scroll_snap_x                                            
c212de34  lv_obj_get_scroll_snap_y                                            
c212de94  lv_obj_get_scroll_x                                                 
c212def0  lv_obj_get_scroll_y                                                 
c212df4c  lv_obj_get_scroll_top                                               
c212dfa8  lv_obj_get_scroll_bottom                                            
c212e144  lv_obj_get_scroll_left                                              
c212e36c  lv_obj_get_scroll_right                                             
c212e560  lv_obj_get_scroll_end                                               
c212e5f4  lv_obj_scroll_by_bounded                                            
c212e884  lv_obj_scroll_by                                                    
c212eba8  lv_obj_scroll_to                                                    
c212ec00  lv_obj_scroll_to_x                                                  
c212ec70  lv_obj_scroll_to_y                                                  
c212ece8  lv_obj_scroll_to_view                                               
c212ed4c  lv_obj_scroll_to_view_recursive                                     
c212edec  lv_obj_is_scrolling                                                 
c212ee68  lv_obj_update_snap                                                  
c212eecc  lv_obj_get_scrollbar_area                                           
c212fd0c  lv_obj_scrollbar_invalidate                                         
c212fdb8  lv_obj_readjust_scroll                                              
c21308c0  lv_indev_read_timer_cb                                              
c2130ac8  lv_indev_enable                                                     
c2130b90  lv_indev_get_act                                                    
c2130bc0  lv_indev_get_type                                                   
c2130c14  lv_indev_reset                                                      
c2130de0  lv_indev_reset_long_press                                           
c2130e34  lv_indev_set_cursor                                                 
c2130f04  lv_indev_set_group                                                  
c2130f6c  lv_indev_set_button_points                                          
c2130fc0  lv_indev_get_point                                                  
c2131074  lv_indev_get_gesture_dir                                            
c21310b0  lv_indev_get_key                                                    
c2131108  lv_indev_get_scroll_dir                                             
c2131198  lv_indev_get_scroll_obj                                             
c2131220  lv_indev_get_vect                                                   
c21312b8  lv_indev_wait_release                                               
c2131314  lv_indev_get_obj_act                                                
c2131344  lv_indev_get_read_timer                                             
c2131394  lv_indev_search_obj                                                 
c2133b04  lv_label_create                                                     
c2133b4c  lv_label_set_text                                                   
c2133cc4  lv_label_set_text_fmt                                               
c2133dac  lv_label_set_text_static                                            
c2133e48  lv_label_set_long_mode                                              
c2133f78  lv_label_set_recolor                                                
c213402c  lv_label_set_text_sel_start                                         
c2134078  lv_label_set_text_sel_end                                           
c21340cc  lv_label_get_text                                                   
c213410c  lv_label_get_long_mode                                              
c2134154  lv_label_get_recolor                                                
c21341b0  lv_label_get_letter_pos                                             
c21345ac  lv_label_get_letter_on                                              
c2134a00  lv_label_is_char_under_pos                                          
c2134e00  lv_label_get_text_selection_start                                   
c2134e38  lv_label_get_text_selection_end                                     
c2134e78  lv_label_ins_text                                                   
c2134fa0  lv_label_cut_text                                                   
c2136960  lv_img_buf_get_px_color                                             
c2136d18  lv_img_buf_get_px_alpha                                             
c21370a0  lv_img_buf_set_px_alpha                                             
c213746c  lv_img_buf_set_px_color                                             
c21378f0  lv_img_buf_set_palette                                              
c2137a04  lv_img_buf_alloc                                                    
c2137bac  lv_img_buf_free                                                     
c2137c04  lv_img_buf_get_img_size                                             
c2137eac  _lv_img_buf_transform_init                                          
c21381e8  _lv_img_buf_get_transformed_area                                    
c2138894  _lv_img_buf_transform                                               
c2138d6c  _lv_img_buf_transform_anti_alias                                    
c213984c  _lv_obj_style_init                                                  
c2139884  lv_obj_add_style                                                    
c2139a90  lv_obj_remove_style                                                 
c2139dd0  lv_obj_report_style_change                                          
c2139e8c  lv_obj_refresh_style                                                
c213a054  lv_obj_enable_style_refresh                                         
c213a08c  lv_obj_get_style_prop                                               
c213a1c4  lv_obj_set_local_style_prop                                         
c213a224  lv_obj_get_local_style_prop                                         
c213a32c  lv_obj_remove_local_style_prop                                      
c213a454  _lv_obj_style_create_transition                                     
c213a7b4  _lv_obj_style_apply_color_filter                                    
c213a874  _lv_obj_style_state_compare                                         
c213ad8c  lv_obj_fade_in                                                      
c213ae2c  lv_obj_fade_out                                                     
c213aec4  lv_obj_style_get_selector_state                                     
c213aeec  lv_obj_style_get_selector_part                                      
c213af28  lv_obj_calculate_style_text_align                                   
c213c354  lv_dropdown_create                                                  
c213c3a4  lv_dropdown_set_text                                                
c213c40c  lv_dropdown_set_options                                             
c213c598  lv_dropdown_set_options_static                                      
c213c6d8  lv_dropdown_add_option                                              
c213c9d0  lv_dropdown_clear_options                                           
c213ca80  lv_dropdown_set_selected                                            
c213cb28  lv_dropdown_set_dir                                                 
c213cbc8  lv_dropdown_set_symbol                                              
c213cc14  lv_dropdown_set_selected_highlight                                  
c213cc90  lv_dropdown_get_list                                                
c213cccc  lv_dropdown_get_text                                                
c213cd0c  lv_dropdown_get_options                                             
c213cd64  lv_dropdown_get_selected                                            
c213cda4  lv_dropdown_get_option_cnt                                          
c213cde4  lv_dropdown_get_selected_str                                        
c213cf4c  lv_dropdown_get_symbol                                              
c213cf8c  lv_dropdown_get_selected_highlight                                  
c213cfe0  lv_dropdown_get_dir                                                 
c213d028  lv_dropdown_open                                                    
c213d520  lv_dropdown_close                                                   
c213d58c  lv_dropdown_is_open                                                 
c213ef00  _lv_refr_init                                                       
c213ef48  lv_refr_now                                                         
c213efcc  lv_refr_obj                                                         
c213f214  _lv_inv_area                                                        
c213f4c4  _lv_refr_get_disp_refreshing                                        
c213f4f0  _lv_refr_set_disp_refreshing                                        
c213f528  _lv_disp_refr_timer                                                 
c213faac  lv_refr_reset_fps_counter                                           
c213faec  lv_refr_get_fps_avg                                                 
c2143238  jd_prepare                                                          
c2143be0  jd_decomp                                                           
c2145860  lv_tlsf_check                                                       
c2145b64  lv_tlsf_walk_pool                                                   
c2145c20  lv_tlsf_block_size                                                  
c2145c70  lv_tlsf_check_pool                                                  
c2145cc8  lv_tlsf_size                                                        
c2145cf4  lv_tlsf_align_size                                                  
c2145d24  lv_tlsf_block_size_min                                              
c2145d50  lv_tlsf_block_size_max                                              
c2145d80  lv_tlsf_pool_overhead                                               
c2145dac  lv_tlsf_alloc_overhead                                              
c2145dd8  lv_tlsf_add_pool                                                    
c2145ee4  lv_tlsf_remove_pool                                                 
c2145f8c  lv_tlsf_create                                                      
c2145ff4  lv_tlsf_create_with_pool                                            
c2146058  lv_tlsf_destroy                                                     
c2146084  lv_tlsf_get_pool                                                    
c21460c0  lv_tlsf_malloc                                                      
c2146124  lv_tlsf_memalign                                                    
c2146260  lv_tlsf_free                                                        
c21462e8  lv_tlsf_realloc                                                     
c21468e4  lv_is_initialized                                                   
c2146910  lv_init                                                             
c2146a28  lv_deinit                                                           
c2146a68  lv_obj_create                                                       
c2146ab4  lv_obj_add_flag                                                     
c2146ba0  lv_obj_clear_flag                                                   
c2146c98  lv_obj_add_state                                                    
c2146d14  lv_obj_clear_state                                                  
c2146d90  lv_obj_has_flag                                                     
c2146df0  lv_obj_has_flag_any                                                 
c2146e4c  lv_obj_get_state                                                    
c2146e80  lv_obj_has_state                                                    
c2146ee4  lv_obj_get_group                                                    
c2146f38  lv_obj_allocate_spec_attr                                           
c2146fec  lv_obj_check_type                                                   
c2147060  lv_obj_has_class                                                    
c21470d4  lv_obj_get_class                                                    
c2147104  lv_obj_is_valid                                                     
c2148b88  lv_arc_create                                                       
c2148bd4  lv_arc_set_start_angle                                              
c2148d58  lv_arc_set_end_angle                                                
c2148ee4  lv_arc_set_angles                                                   
c2148f34  lv_arc_set_bg_start_angle                                           
c21490b0  lv_arc_set_bg_end_angle                                             
c2149230  lv_arc_set_bg_angles                                                
c2149284  lv_arc_set_rotation                                                 
c21492d8  lv_arc_set_mode                                                     
c2149430  lv_arc_set_value                                                    
c214952c  lv_arc_set_range                                                    
c2149628  lv_arc_set_change_rate                                              
c2149678  lv_arc_get_angle_start                                              
c21496ac  lv_arc_get_angle_end                                                
c21496e0  lv_arc_get_bg_angle_start                                           
c2149710  lv_arc_get_bg_angle_end                                             
c2149744  lv_arc_get_value                                                    
c2149774  lv_arc_get_min_value                                                
c21497a8  lv_arc_get_max_value                                                
c21497d8  lv_arc_get_mode                                                     
c214b240  lv_img_create                                                       
c214b28c  lv_img_set_src                                                      
c214b670  lv_img_set_offset_x                                                 
c214b6d4  lv_img_set_offset_y                                                 
c214b740  lv_img_set_angle                                                    
c214b9a4  lv_img_set_pivot                                                    
c214bbf4  lv_img_set_zoom                                                     
c214be64  lv_img_set_antialias                                                
c214bf04  lv_img_set_size_mode                                                
c214bfa4  lv_img_get_src                                                      
c214bfe0  lv_img_get_offset_x                                                 
c214c020  lv_img_get_offset_y                                                 
c214c060  lv_img_get_angle                                                    
c214c0a0  lv_img_get_pivot                                                    
c214c0ec  lv_img_get_zoom                                                     
c214c12c  lv_img_get_antialias                                                
c214c188  lv_img_get_size_mode                                                
c214d814  lv_grid_init                                                        
c214d8e0  lv_obj_set_grid_dsc_array                                           
c214d938  lv_obj_set_grid_align                                               
c214d984  lv_obj_set_grid_cell                                                
c214da30  lv_style_set_grid_row_dsc_array                                     
c214da80  lv_style_set_grid_column_dsc_array                                  
c214dacc  lv_style_set_grid_row_align                                         
c214db18  lv_style_set_grid_column_align                                      
c214db64  lv_style_set_grid_cell_column_pos                                   
c214dbb4  lv_style_set_grid_cell_column_span                                  
c214dc08  lv_style_set_grid_cell_row_pos                                      
c214dc58  lv_style_set_grid_cell_row_span                                     
c214dcac  lv_style_set_grid_cell_x_align                                      
c214dd00  lv_style_set_grid_cell_y_align                                      
c214dd50  lv_obj_set_style_grid_row_dsc_array                                 
c214dda4  lv_obj_set_style_grid_column_dsc_array                              
c214ddf4  lv_obj_set_style_grid_row_align                                     
c214de48  lv_obj_set_style_grid_column_align                                  
c214de98  lv_obj_set_style_grid_cell_column_pos                               
c214def0  lv_obj_set_style_grid_cell_column_span                              
c214df48  lv_obj_set_style_grid_cell_row_pos                                  
c214dfa0  lv_obj_set_style_grid_cell_row_span                                 
c214dff4  lv_obj_set_style_grid_cell_x_align                                  
c214e04c  lv_obj_set_style_grid_cell_y_align                                  
c214fda4  lv_draw_sw_blend                                                    
c214fe58  lv_draw_sw_blend_basic                                              
c2151b38  lv_meter_create                                                     
c2151b88  lv_meter_add_scale                                                  
c2151c50  lv_meter_set_scale_ticks                                            
c2151cd4  lv_meter_set_scale_major_ticks                                      
c2151d6c  lv_meter_set_scale_range                                            
c2151de8  lv_meter_add_needle_line                                            
c2151ea0  lv_meter_add_needle_img                                             
c2151f48  lv_meter_add_arc                                                    
c2152000  lv_meter_add_scale_lines                                            
c21520e4  lv_meter_set_indicator_value                                        
c21521cc  lv_meter_set_indicator_start_value                                  
c2152280  lv_meter_set_indicator_end_value                                    
c2153b40  lv_split_jpeg_init                                                  
c2155ce0  __TI_printfi                                                        
c2157da0  __TI_scanfi                                                         
c215a138  lv_flex_init                                                        
c215a1b0  lv_obj_set_flex_flow                                                
c215a200  lv_obj_set_flex_align                                               
c215a26c  lv_obj_set_flex_grow                                                
c215a2c4  lv_style_set_flex_flow                                              
c215a310  lv_style_set_flex_main_place                                        
c215a360  lv_style_set_flex_cross_place                                       
c215a3ac  lv_style_set_flex_track_place                                       
c215a3f8  lv_style_set_flex_grow                                              
c215a44c  lv_obj_set_style_flex_flow                                          
c215a4a0  lv_obj_set_style_flex_main_place                                    
c215a4f0  lv_obj_set_style_flex_cross_place                                   
c215a544  lv_obj_set_style_flex_track_place                                   
c215a594  lv_obj_set_style_flex_grow                                          
c215bf00  lv_draw_sw_arc                                                      
c215df34  lv_colorwheel_create                                                
c215df94  lv_colorwheel_set_hsv                                               
c215e0a4  lv_colorwheel_set_rgb                                               
c215e10c  lv_colorwheel_set_mode                                              
c215e180  lv_colorwheel_set_mode_fixed                                        
c215e1d8  lv_colorwheel_get_hsv                                               
c215e214  lv_colorwheel_get_rgb                                               
c215e26c  lv_colorwheel_get_color_mode                                        
c215e2b4  lv_colorwheel_get_color_mode_fixed                                  
c215fbb0  _lv_indev_scroll_handler                                            
c215fe28  _lv_indev_scroll_throw_handler                                      
c21602ac  lv_indev_scroll_throw_predict                                       
c21603c0  lv_indev_scroll_get_snap_dist                                       
c2161a74  lv_roller_create                                                    
c2161ac4  lv_roller_set_options                                               
c2161d20  lv_roller_set_selected                                              
c2161eac  lv_roller_set_visible_row_count                                     
c2161f38  lv_roller_get_selected                                              
c2161fd4  lv_roller_get_selected_str                                          
c2162120  lv_roller_get_options                                               
c2162164  lv_roller_get_option_cnt                                            
c2163aec  lv_disp_drv_init                                                    
c2163bf4  lv_disp_draw_buf_init                                               
c2163c60  lv_disp_drv_register                                                
c2163f30  lv_disp_drv_update                                                  
c2164124  lv_disp_remove                                                      
c2164290  lv_disp_set_default                                                 
c21642c8  lv_disp_get_default                                                 
c21642f4  lv_disp_get_hor_res                                                 
c21643a4  lv_disp_get_ver_res                                                 
c2164450  lv_disp_get_physical_hor_res                                        
c2164544  lv_disp_get_physical_ver_res                                        
c2164638  lv_disp_get_offset_x                                                
c216476c  lv_disp_get_offset_y                                                
c21648a0  lv_disp_get_antialiasing                                            
c2164924  lv_disp_get_dpi                                                     
c2164988  lv_disp_flush_ready                                                 
c21649cc  lv_disp_flush_is_last                                               
c2164a20  lv_disp_get_next                                                    
c2164aa0  lv_disp_get_draw_buf                                                
c2164ad0  lv_disp_set_rotation                                                
c2164b68  lv_disp_get_rotation                                                
c2164bcc  lv_disp_drv_use_generic_set_px_cb                                   
c21653a4  _lv_img_decoder_init                                                
c2165444  lv_img_decoder_get_info                                             
c2165560  lv_img_decoder_open                                                 
c21657c4  lv_img_decoder_read_line                                            
c2165854  lv_img_decoder_close                                                
c21658e4  lv_img_decoder_create                                               
c2165950  lv_img_decoder_delete                                               
c21659a0  lv_img_decoder_set_info_cb                                          
c21659e0  lv_img_decoder_set_open_cb                                          
c2165a20  lv_img_decoder_set_read_line_cb                                     
c2165a60  lv_img_decoder_set_close_cb                                         
c2165aa0  lv_img_decoder_built_in_info                                        
c2165d64  lv_img_decoder_built_in_open                                        
c216622c  lv_img_decoder_built_in_read_line                                   
c2166414  lv_img_decoder_built_in_close                                       
c2167124  lv_bar_create                                                       
c216716c  lv_bar_set_value                                                    
c2167270  lv_bar_set_start_value                                              
c2167378  lv_bar_set_range                                                    
c2167470  lv_bar_set_mode                                                     
c2167500  lv_bar_get_value                                                    
c2167558  lv_bar_get_start_value                                              
c21675e8  lv_bar_get_min_value                                                
c2167628  lv_bar_get_max_value                                                
c2167668  lv_bar_get_mode                                                     
c21689a0  lv_obj_set_style_width                                              
c21689ec  lv_obj_set_style_min_width                                          
c2168a38  lv_obj_set_style_max_width                                          
c2168a88  lv_obj_set_style_height                                             
c2168ad4  lv_obj_set_style_min_height                                         
c2168b24  lv_obj_set_style_max_height                                         
c2168b70  lv_obj_set_style_x                                                  
c2168bc0  lv_obj_set_style_y                                                  
c2168c0c  lv_obj_set_style_align                                              
c2168c58  lv_obj_set_style_transform_width                                    
c2168ca8  lv_obj_set_style_transform_height                                   
c2168cf4  lv_obj_set_style_translate_x                                        
c2168d44  lv_obj_set_style_translate_y                                        
c2168d90  lv_obj_set_style_transform_zoom                                     
c2168de0  lv_obj_set_style_transform_angle                                    
c2168e2c  lv_obj_set_style_pad_top                                            
c2168e78  lv_obj_set_style_pad_bottom                                         
c2168ec8  lv_obj_set_style_pad_left                                           
c2168f14  lv_obj_set_style_pad_right                                          
c2168f64  lv_obj_set_style_pad_row                                            
c2168fb0  lv_obj_set_style_pad_column                                         
c2169000  lv_obj_set_style_bg_color                                           
c2169050  lv_obj_set_style_bg_opa                                             
c21690a0  lv_obj_set_style_bg_grad_color                                      
c21690f0  lv_obj_set_style_bg_grad_dir                                        
c2169140  lv_obj_set_style_bg_main_stop                                       
c216918c  lv_obj_set_style_bg_grad_stop                                       
c21691d8  lv_obj_set_style_bg_grad                                            
c2169224  lv_obj_set_style_bg_dither_mode                                     
c2169270  lv_obj_set_style_bg_img_src                                         
c21692b8  lv_obj_set_style_bg_img_opa                                         
c2169308  lv_obj_set_style_bg_img_recolor                                     
c2169358  lv_obj_set_style_bg_img_recolor_opa                                 
c21693a8  lv_obj_set_style_bg_img_tiled                                       
c21693f4  lv_obj_set_style_border_color                                       
c2169444  lv_obj_set_style_border_opa                                         
c2169490  lv_obj_set_style_border_width                                       
c21694e0  lv_obj_set_style_border_side                                        
c216952c  lv_obj_set_style_border_post                                        
c2169578  lv_obj_set_style_outline_width                                      
c21695c8  lv_obj_set_style_outline_color                                      
c2169618  lv_obj_set_style_outline_opa                                        
c2169668  lv_obj_set_style_outline_pad                                        
c21696b4  lv_obj_set_style_shadow_width                                       
c2169704  lv_obj_set_style_shadow_ofs_x                                       
c2169750  lv_obj_set_style_shadow_ofs_y                                       
c21697a0  lv_obj_set_style_shadow_spread                                      
c21697ec  lv_obj_set_style_shadow_color                                       
c2169840  lv_obj_set_style_shadow_opa                                         
c216988c  lv_obj_set_style_img_opa                                            
c21698d8  lv_obj_set_style_img_recolor                                        
c2169928  lv_obj_set_style_img_recolor_opa                                    
c2169974  lv_obj_set_style_line_width                                         
c21699c4  lv_obj_set_style_line_dash_width                                    
c2169a10  lv_obj_set_style_line_dash_gap                                      
c2169a60  lv_obj_set_style_line_rounded                                       
c2169aac  lv_obj_set_style_line_color                                         
c2169b00  lv_obj_set_style_line_opa                                           
c2169b4c  lv_obj_set_style_arc_width                                          
c2169b98  lv_obj_set_style_arc_rounded                                        
c2169be8  lv_obj_set_style_arc_color                                          
c2169c38  lv_obj_set_style_arc_opa                                            
c2169c88  lv_obj_set_style_arc_img_src                                        
c2169cd0  lv_obj_set_style_text_color                                         
c2169d24  lv_obj_set_style_text_opa                                           
c2169d70  lv_obj_set_style_text_font                                          
c2169db8  lv_obj_set_style_text_letter_space                                  
c2169e08  lv_obj_set_style_text_line_space                                    
c2169e54  lv_obj_set_style_text_decor                                         
c2169ea4  lv_obj_set_style_text_align                                         
c2169ef0  lv_obj_set_style_radius                                             
c2169f40  lv_obj_set_style_clip_corner                                        
c2169f8c  lv_obj_set_style_opa                                                
c2169fd8  lv_obj_set_style_color_filter_dsc                                   
c216a024  lv_obj_set_style_color_filter_opa                                   
c216a070  lv_obj_set_style_anim                                               
c216a0b8  lv_obj_set_style_anim_time                                          
c216a104  lv_obj_set_style_anim_speed                                         
c216a14c  lv_obj_set_style_transition                                         
c216a194  lv_obj_set_style_blend_mode                                         
c216a1e4  lv_obj_set_style_layout                                             
c216a230  lv_obj_set_style_base_dir                                           
c216a398  lv_txt_get_size                                                     
c216a8ec  _lv_txt_get_next_line                                               
c216abb0  lv_txt_get_width                                                    
c216ad2c  _lv_txt_is_cmd                                                      
c216ae08  _lv_txt_ins                                                         
c216af24  _lv_txt_cut                                                         
c216b00c  _lv_txt_set_text_vfmt                                               
c216b0b8  _lv_txt_encoded_letter_next_2                                       
c216bb60  lv_style_set_width                                                  
c216bbac  lv_style_set_min_width                                              
c216bbf8  lv_style_set_max_width                                              
c216bc44  lv_style_set_height                                                 
c216bc90  lv_style_set_min_height                                             
c216bce0  lv_style_set_max_height                                             
c216bd2c  lv_style_set_x                                                      
c216bd78  lv_style_set_y                                                      
c216bdc4  lv_style_set_align                                                  
c216be10  lv_style_set_transform_width                                        
c216be60  lv_style_set_transform_height                                       
c216beac  lv_style_set_translate_x                                            
c216bef8  lv_style_set_translate_y                                            
c216bf44  lv_style_set_transform_zoom                                         
c216bf90  lv_style_set_transform_angle                                        
c216bfe0  lv_style_set_pad_top                                                
c216c02c  lv_style_set_pad_bottom                                             
c216c078  lv_style_set_pad_left                                               
c216c0c4  lv_style_set_pad_right                                              
c216c110  lv_style_set_pad_row                                                
c216c160  lv_style_set_pad_column                                             
c216c1ac  lv_style_set_bg_color                                               
c216c200  lv_style_set_bg_opa                                                 
c216c24c  lv_style_set_bg_grad_color                                          
c216c2a0  lv_style_set_bg_grad_dir                                            
c216c2ec  lv_style_set_bg_main_stop                                           
c216c338  lv_style_set_bg_grad_stop                                           
c216c384  lv_style_set_bg_grad                                                
c216c3c8  lv_style_set_bg_dither_mode                                         
c216c414  lv_style_set_bg_img_src                                             
c216c458  lv_style_set_bg_img_opa                                             
c216c4a4  lv_style_set_bg_img_recolor                                         
c216c4f4  lv_style_set_bg_img_recolor_opa                                     
c216c544  lv_style_set_bg_img_tiled                                           
c216c590  lv_style_set_border_color                                           
c216c5e0  lv_style_set_border_opa                                             
c216c62c  lv_style_set_border_width                                           
c216c678  lv_style_set_border_side                                            
c216c6c4  lv_style_set_border_post                                            
c216c710  lv_style_set_outline_width                                          
c216c760  lv_style_set_outline_color                                          
c216c7b0  lv_style_set_outline_opa                                            
c216c800  lv_style_set_outline_pad                                            
c216c84c  lv_style_set_shadow_width                                           
c216c898  lv_style_set_shadow_ofs_x                                           
c216c8e4  lv_style_set_shadow_ofs_y                                           
c216c930  lv_style_set_shadow_spread                                          
c216c980  lv_style_set_shadow_color                                           
c216c9d0  lv_style_set_shadow_opa                                             
c216ca20  lv_style_set_img_opa                                                
c216ca6c  lv_style_set_img_recolor                                            
c216cac0  lv_style_set_img_recolor_opa                                        
c216cb0c  lv_style_set_line_width                                             
c216cb58  lv_style_set_line_dash_width                                        
c216cba4  lv_style_set_line_dash_gap                                          
c216cbf0  lv_style_set_line_rounded                                           
c216cc40  lv_style_set_line_color                                             
c216cc90  lv_style_set_line_opa                                               
c216cce0  lv_style_set_arc_width                                              
c216cd2c  lv_style_set_arc_rounded                                            
c216cd78  lv_style_set_arc_color                                              
c216cdc8  lv_style_set_arc_opa                                                
c216ce14  lv_style_set_arc_img_src                                            
c216ce58  lv_style_set_text_color                                             
c216cea8  lv_style_set_text_opa                                               
c216cef4  lv_style_set_text_font                                              
c216cf38  lv_style_set_text_letter_space                                      
c216cf84  lv_style_set_text_line_space                                        
c216cfd0  lv_style_set_text_decor                                             
c216d020  lv_style_set_text_align                                             
c216d06c  lv_style_set_radius                                                 
c216d0b8  lv_style_set_clip_corner                                            
c216d104  lv_style_set_opa                                                    
c216d150  lv_style_set_color_filter_dsc                                       
c216d194  lv_style_set_color_filter_opa                                       
c216d1e4  lv_style_set_anim                                                   
c216d228  lv_style_set_anim_time                                              
c216d26c  lv_style_set_anim_speed                                             
c216d2b0  lv_style_set_transition                                             
c216d2f4  lv_style_set_blend_mode                                             
c216d344  lv_style_set_layout                                                 
c216d390  lv_style_set_base_dir                                               
c216dbc4  lv_obj_init_draw_rect_dsc                                           
c216e150  lv_obj_init_draw_label_dsc                                          
c216e2d8  lv_obj_init_draw_img_dsc                                            
c216e460  lv_obj_init_draw_line_dsc                                           
c216e624  lv_obj_init_draw_arc_dsc                                            
c216e7a4  lv_obj_calculate_ext_draw_size                                      
c216ea24  lv_obj_draw_dsc_init                                                
c216ea6c  lv_obj_draw_part_check_type                                         
c216eae0  lv_obj_refresh_ext_draw_size                                        
c216ebac  _lv_obj_get_ext_draw_size                                           
c216ec20  RTCRun                                                              
c216ec64  RTCStop                                                             
c216ece0  RTCWriteProtectEnable                                               
c216ed08  RTCWriteProtectDisable                                              
c216ed3c  RTCIntAlarmEnable                                                   
c216ed84  RTCIntAlarmDisable                                                  
c216edcc  RTCIntTimerEnable                                                   
c216ee40  RTCIntTimerDisable                                                  
c216ee88  RTCBusyStatusGet                                                    
c216eea4  RTCRunStatusGet                                                     
c216eec0  RTCAlarmIntStatusGet                                                
c216eee0  RTCAlarmIntStatusClear                                              
c216ef00  RTCEventUpdateGet                                                   
c216ef20  RTCMinRoundingEnable                                                
c216ef64  RTCMinRoundingDisable                                               
c216efb8  RTCAutoCompEnable                                                   
c216f000  RTCAutoCompDisable                                                  
c216f058  RTCHourModeSet                                                      
c216f0cc  RTCHourModeGet                                                      
c216f0e8  RTCSet32CounterEnable                                               
c216f154  RTCSet32CounterDisable                                              
c216f1d4  RTCDisable                                                          
c216f214  RTCEnable                                                           
c216f278  RTCEnableStatus                                                     
c216f298  RTCSplitPwrEnable                                                   
c216f2b8  RTCSplitPwrDisable                                                  
c216f2d8  RTCSecondSet                                                        
c216f324  RTCSecondGet                                                        
c216f340  RTCMinuteSet                                                        
c216f38c  RTCMinuteGet                                                        
c216f3a8  RTCHourSet                                                          
c216f3f4  RTCHourGet                                                          
c216f410  RTCMeridiemSet                                                      
c216f464  RTCMeridiemGet                                                      
c216f484  RTCDayOfMonthSet                                                    
c216f4d0  RTCDayOfMonthGet                                                    
c216f4ec  RTCMonthSet                                                         
c216f534  RTCMonthGet                                                         
c216f550  RTCYearSet                                                          
c216f594  RTCYearGet                                                          
c216f5ac  RTCDayOfTheWeekSet                                                  
c216f5f4  RTCDayOfTheWeekGet                                                  
c216f610  RTCTimeSet                                                          
c216f6a0  RTCTimeGet                                                          
c216f724  RTCCalendarSet                                                      
c216f798  RTCCalendarGet                                                      
c216f810  RTCAlarmSecondSet                                                   
c216f858  RTCAlarmSecondGet                                                   
c216f874  RTCAlarmMinuteSet                                                   
c216f8c0  RTCAlarmMinuteGet                                                   
c216f8d8  RTCAlarmHourSet                                                     
c216f924  RTCAlarmHourGet                                                     
c216f940  RTCAlarmHourMeridiemSet                                             
c216f998  RTCAlarmHourMeridiemGet                                             
c216f9b8  RTCAlarmTimeSet                                                     
c216fa2c  RTCAlarmTimeGet                                                     
c216fad4  RTCAlarmDayOfMonthSet                                               
c216fb20  RTCAlarmDayOfMonthGet                                               
c216fb38  RTCAlarmMonthSet                                                    
c216fb84  RTCAlarmMonthGet                                                    
c216fba0  RTCAlarmYearSet                                                     
c216fbe8  RTCAlarmYearGet                                                     
c216fc00  RTCAlarmCalendarSet                                                 
c216fc68  RTCAlarmCalendarGet                                                 
c216fcc0  RTCCompensationSet                                                  
c216fd24  RTCCompensationGet                                                  
c216fd60  RTCScratchPadSet                                                    
c216fd88  RTCScratchPadGet                                                    
c216fdac  RTCSoftwareReset                                                    
c216fdcc  RTCRevisionIDGet                                                    
c216fde4  RTCIdleModeConfigure                                                
c216fe30  RTCWakeUpAlarmEventControl                                          
c216fe80  RTCWakeUpTimerEventControl                                          
c216fecc  RTCTestModeControl                                                  
c216ff18  RTC32KClkSourceSelect                                               
c216ff8c  RTC32KClkClockControl                                               
c216ffd8  RTCOscillatorStateControl                                           
c2170020  RTCFeedbackResistanceSelect                                         
c217006c  RTCConfigPmicPowerEnable                                            
c21700ac  RTCConfigPmicExtWakePolarity                                        
c217011c  RTCConfigPmicExtWake                                                
c2170178  RTCConfigPmicExtWakeDebounce                                        
c21701e8  RTCPmicExtWakeStatusClear                                           
c217021c  RTCIntAlarm2Enable                                                  
c2170260  RTCAlarm2IntStatusGet                                               
c2170280  RTCAlarm2IntStatusClear                                             
c21702a0  RTCAlarm2TimeSet                                                    
c2170328  RTCAlarm2CalendarSet                                                
c21705a4  lv_slider_create                                                    
c21705ec  lv_slider_is_dragged                                                
c2171b20  lv_event_send                                                       
c2171be8  lv_obj_event_base                                                   
c2171cf0  lv_event_get_target                                                 
c2171d20  lv_event_get_current_target                                         
c2171d4c  lv_event_get_code                                                   
c2171d8c  lv_event_get_param                                                  
c2171db8  lv_event_get_user_data                                              
c2171de8  lv_event_stop_bubbling                                              
c2171e28  lv_event_stop_processing                                            
c2171e68  lv_event_register_id                                                
c2171ea8  _lv_event_mark_deleted                                              
c2171f28  lv_obj_add_event_cb                                                 
c2172070  lv_obj_remove_event_cb                                              
c217224c  lv_obj_remove_event_cb_with_user_data                               
c2172454  lv_obj_remove_event_dsc                                             
c217262c  lv_obj_get_event_user_data                                          
c2172738  lv_event_get_indev                                                  
c2172878  lv_event_get_draw_part_dsc                                          
c21728ec  lv_event_get_draw_ctx                                               
c21729a8  lv_event_get_old_size                                               
c2172a0c  lv_event_get_key                                                    
c2172a98  lv_event_get_scroll_anim                                            
c2172af8  lv_event_set_ext_draw_size                                          
c2172b70  lv_event_get_self_size_info                                         
c2172bd4  lv_event_get_hit_test_info                                          
c2172c38  lv_event_get_cover_area                                             
c2172ca8  lv_event_set_cover_res                                              
c2173240  lv_menu_create                                                      
c217328c  lv_menu_page_create                                                 
c2173348  lv_menu_cont_create                                                 
c2173394  lv_menu_section_create                                              
c21733e4  lv_menu_separator_create                                            
c21734b8  lv_menu_set_page                                                    
c2173720  lv_menu_set_sidebar_page                                            
c2173980  lv_menu_set_mode_header                                             
c2173a28  lv_menu_set_mode_root_back_btn                                      
c2173ab4  lv_menu_set_load_page_event                                         
c2173b90  lv_menu_get_cur_main_page                                           
c2173bcc  lv_menu_get_cur_sidebar_page                                        
c2173c0c  lv_menu_get_main_header                                             
c2173c4c  lv_menu_get_main_header_back_btn                                    
c2173c8c  lv_menu_get_sidebar_header                                          
c2173ccc  lv_menu_get_sidebar_header_back_btn                                 
c2173d0c  lv_menu_back_btn_is_root                                            
c2173da4  lv_menu_clear_history                                               
c2175ca0  lv_snprintf                                                         
c2175d14  lv_vsnprintf                                                        
c2175dd0  lv_area_set                                                         
c2175e48  lv_area_set_width                                                   
c2175e94  lv_area_set_height                                                  
c2175ee0  _lv_area_set_pos                                                    
c2175f68  lv_area_get_size                                                    
c2175fc8  lv_area_increase                                                    
c217604c  lv_area_move                                                        
c21760d0  _lv_area_intersect                                                  
c21761e8  _lv_area_join                                                       
c21762c0  _lv_area_is_point_on                                                
c2176670  _lv_area_is_on                                                      
c2176710  _lv_area_is_in                                                      
c2176904  _lv_area_is_out                                                     
c2176ae4  _lv_area_is_equal                                                   
c2176b80  lv_area_align                                                       
c2177220  _lv_fs_init                                                         
c2177254  lv_fs_is_ready                                                      
c21772ec  lv_fs_open                                                          
c2177494  lv_fs_close                                                         
c21778b8  lv_fs_read                                                          
c21779b4  lv_fs_write                                                         
c2177a8c  lv_fs_seek                                                          
c2177cec  lv_fs_tell                                                          
c2177dd8  lv_fs_dir_open                                                      
c2177f14  lv_fs_dir_read                                                      
c2177fd8  lv_fs_dir_close                                                     
c2178094  lv_fs_drv_init                                                      
c21780c4  lv_fs_drv_register                                                  
c2178138  lv_fs_get_drv                                                       
c21781e4  lv_fs_get_letters                                                   
c21782a4  lv_fs_get_ext                                                       
c217838c  lv_fs_up                                                            
c21784cc  lv_fs_get_last                                                      
c2178680  lv_mem_init                                                         
c21786c0  lv_mem_deinit                                                       
c21786f8  lv_mem_alloc                                                        
c2178774  lv_mem_free                                                         
c21787f0  lv_mem_realloc                                                      
c21788b0  lv_mem_test                                                         
c2178960  lv_mem_monitor                                                      
c2178a4c  lv_mem_buf_get                                                      
c2178d44  lv_mem_buf_release                                                  
c2178e04  lv_mem_buf_free_all                                                 
c2178eec  lv_memcpy                                                           
c217950c  lv_memset                                                           
c21796f8  lv_memset_00                                                        
c2179888  lv_memset_ff                                                        
c2179ac0  _lv_group_init                                                      
c2179af4  lv_group_create                                                     
c2179bcc  lv_group_del                                                        
c2179ce8  lv_group_set_default                                                
c2179d24  lv_group_get_default                                                
c2179d50  lv_group_add_obj                                                    
c2179ea0  lv_group_swap_obj                                                   
c2179fc8  lv_group_remove_obj                                                 
c217a150  lv_group_remove_all_objs                                            
c217a210  lv_group_focus_obj                                                  
c217a3f8  lv_group_focus_next                                                 
c217a438  lv_group_focus_prev                                                 
c217a478  lv_group_focus_freeze                                               
c217a4e4  lv_group_send_data                                                  
c217a564  lv_group_set_focus_cb                                               
c217a5a4  lv_group_set_editing                                                
c217a6d0  lv_group_set_refocus_policy                                         
c217a724  lv_group_set_wrap                                                   
c217a788  lv_group_get_focused                                                
c217a800  lv_group_get_focus_cb                                               
c217a850  lv_group_get_editing                                                
c217a8c4  lv_group_get_wrap                                                   
c217a934  lv_group_get_obj_count                                              
c217ae48  lv_draw_sw_line                                                     
c217c140  lv_spinbox_create                                                   
c217c18c  lv_spinbox_set_value                                                
c217c220  lv_spinbox_set_rollover                                             
c217c274  lv_spinbox_set_digit_format                                         
c217c3f8  lv_spinbox_set_step                                                 
c217c44c  lv_spinbox_set_range                                                
c217c4f4  lv_spinbox_set_pos                                                  
c217c5e4  lv_spinbox_set_digit_step_direction                                 
c217c648  lv_spinbox_get_value                                                
c217c68c  lv_spinbox_get_step                                                 
c217c6cc  lv_spinbox_step_next                                                
c217c744  lv_spinbox_step_prev                                                
c217c800  lv_spinbox_get_rollover                                             
c217c850  lv_spinbox_increment                                                
c217c960  lv_spinbox_decrement                                                
c217d394  lv_disp_get_scr_act                                                 
c217d3f4  lv_disp_get_scr_prev                                                
c217d454  lv_disp_load_scr                                                    
c217d52c  lv_disp_get_layer_top                                               
c217d58c  lv_disp_get_layer_sys                                               
c217d5ec  lv_disp_set_theme                                                   
c217d6ac  lv_disp_get_theme                                                   
c217d6ec  lv_disp_set_bg_color                                                
c217d7ac  lv_disp_set_bg_image                                                
c217d854  lv_disp_set_bg_opa                                                  
c217d910  lv_scr_load_anim                                                    
c217df84  lv_disp_get_inactive_time                                           
c217e034  lv_disp_trig_activity                                               
c217e0a0  lv_disp_clean_dcache                                                
c217e120  _lv_disp_get_refr_timer                                             
c217e3e0  _lv_anim_core_init                                                  
c217e438  lv_anim_init                                                        
c217e4c0  lv_anim_start                                                       
c217e644  lv_anim_get_playtime                                                
c217e760  lv_anim_del                                                         
c217e840  lv_anim_del_all                                                     
c217e878  lv_anim_get                                                         
c217e934  lv_anim_count_running                                               
c217e9c8  lv_anim_speed_to_time                                               
c217ea44  lv_anim_refr_now                                                    
c217ea70  lv_anim_path_linear                                                 
c217eaf4  lv_anim_path_ease_in                                                
c217eb8c  lv_anim_path_ease_out                                               
c217ec2c  lv_anim_path_ease_in_out                                            
c217ecc4  lv_anim_path_overshoot                                              
c217ed60  lv_anim_path_bounce                                                 
c217ef44  lv_anim_path_step                                                   
c217f4f8  lv_obj_del                                                          
c217f5f8  lv_obj_clean                                                        
c217f694  lv_obj_del_delayed                                                  
c217f714  lv_obj_del_anim_ready_cb                                            
c217f748  lv_obj_del_async                                                    
c217f784  lv_obj_set_parent                                                   
c217f9c0  lv_obj_move_to_index                                                
c217fb64  lv_obj_swap                                                         
c217fc68  lv_obj_get_screen                                                   
c217fcb0  lv_obj_get_disp                                                     
c217fd94  lv_obj_get_parent                                                   
c217fde8  lv_obj_get_child                                                    
c217fed0  lv_obj_get_child_cnt                                                
c217ff28  lv_obj_get_index                                                    
c217ffd0  lv_obj_tree_walk                                                    
c21805f8  lv_draw_label_dsc_init                                              
c2180690  lv_draw_label                                                       
c2181338  lv_draw_letter                                                      
c21814e4  lv_calendar_create                                                  
c218152c  lv_calendar_set_day_names                                           
c21815a4  lv_calendar_set_today_date                                          
c2181610  lv_calendar_set_highlighted_dates                                   
c2181678  lv_calendar_set_showed_date                                         
c21819ec  lv_calendar_get_btnmatrix                                           
c2181a2c  lv_calendar_get_today_date                                          
c2181a6c  lv_calendar_get_showed_date                                         
c2181aac  lv_calendar_get_highlighted_dates                                   
c2181aec  lv_calendar_get_highlighted_dates_num                               
c2181b2c  lv_calendar_get_pressed_date                                        
c2182420  RasterClkConfig                                                     
c2182460  RasterIdGet                                                         
c2182474  RasterAutoUnderFlowEnable                                           
c2182494  RasterAutoUnderFlowDisable                                          
c21824b4  RasterEnable                                                        
c21824d8  RasterDisable                                                       
c2182500  RasterModeConfig                                                    
c21825a0  RasterLSBDataOrderSelect                                            
c21825c0  RasterMSBDataOrderSelect                                            
c21825e0  RasterIntEnable                                                     
c2182648  RasterIntDisable                                                    
c21826a0  RasterNibbleModeEnable                                              
c21826c0  RasterNibbleModeDisable                                             
c21826e0  RasterFIFODMADelayConfig                                            
c2182728  RasterHparamConfig                                                  
c2182804  RasterVparamConfig                                                  
c21828f4  RasterTiming2Configure                                              
c2182968  RasterDMAConfig                                                     
c21829a4  RasterByteSwapEnable                                                
c21829c8  RasterByteSwapDisable                                               
c21829ec  RasterEndOfFrameIntEnable                                           
c2182a10  RasterEndOfFrameIntDisable                                          
c2182a34  RasterIntStatus                                                     
c2182a94  RasterIntRawStatus                                                  
c2182ae0  RasterIntRawStatusSet                                               
c2182b0c  RasterDMAFBConfig                                                   
c2182b54  RasterClearGetIntStatus                                             
c2182bcc  RasterSubPanelEnable                                                
c2182bec  RasterSubPanelDisable                                               
c2182c10  RasterSubPanelConfig                                                
c2182db4  RasterClocksEnable                                                  
c2182dd0  RasterSoftWareClkEnable                                             
c2182df4  RasterSoftWareClkDisable                                            
c2182e18  RasterDMASoftWareClkEnable                                          
c2182e40  RasterDMASoftWareClkDisable                                         
c2182e64  RasterSoftWareResetControlEnable                                    
c2182ed4  RasterSoftWareResetControlDisable                                   
c2182f48  RasterDmaMasterPrioritySet                                          
c2182f90  RasterStandbyModeConfig                                             
c2182fd8  RasterIdleModeConfig                                                
c2183024  RasterContextSave                                                   
c218310c  RasterContextRestore                                                
c2183220  EHRPWMTimebaseClkConfig                                             
c21832e0  EHRPWMPWMOpFreqSet                                                  
c2183384  EHRPWMTBEmulationModeSet                                            
c21833b8  EHRPWMTimebaseSyncEnable                                            
c2183410  EHRPWMTimebaseSyncDisable                                           
c2183430  EHRPWMTriggerSWSync                                                 
c218344c  EHRPWMSyncOutModeSet                                                
c2183478  EHRPWMWriteTBCount                                                  
c2183490  EHRPWMReadTBCount                                                   
c21834a8  EHRPWMTBStatusGet                                                   
c21834c8  EHRPWMTBClearStatus                                                 
c21834f4  EHRPWMLoadCMPA                                                      
c2183594  EHRPWMLoadCMPB                                                      
c2183640  EHRPWMConfigureAQActionOnA                                          
c21836f4  EHRPWMConfigureAQActionOnB                                          
c21837a8  EHRPWMSWForceA                                                      
c21837cc  EHRPWMSWForceB                                                      
c21837ec  EHRPWMAQContSWForceOnA                                              
c2183848  EHRPWMAQContSWForceOnB                                              
c21838a4  EHRPWMDBSourceSelect                                                
c21838d8  EHRPWMDBPolaritySelect                                              
c218390c  EHRPWMDBOutput                                                      
c218393c  EHRPWMDBConfigureRED                                                
c218396c  EHRPWMDBConfigureFED                                                
c21839a0  EHRPWMConfigureChopperDuty                                          
c21839d8  EHRPWMConfigureChopperFreq                                          
c2183a20  EHRPWMConfigureChopperOSPW                                          
c2183a54  EHRPWMChopperEnable                                                 
c2183a78  EHRPWMChopperDisable                                                
c2183aa0  EHRPWMTZTripEventEnable                                             
c2183af8  EHRPWMTZTripEventDisable                                            
c2183b54  EHRPWMTZForceAOnTrip                                                
c2183b88  EHRPWMTZForceBOnTrip                                                
c2183bbc  EHRPWMTZIntEnable                                                   
c2183c18  EHRPWMTZIntDisable                                                  
c2183c78  EHRPWMTZFlagGet                                                     
c2183ca0  EHRPWMTZFlagClear                                                   
c2183cc0  EHRPWMTZSWFrcEvent                                                  
c2183d08  EHRPWMETIntDisable                                                  
c2183d2c  EHRPWMETIntEnable                                                   
c2183d50  EHRPWMETIntSourceSelect                                             
c2183d84  EHRPWMETIntPrescale                                                 
c2183db4  EHRPWMETEventCount                                                  
c2183dd4  EHRPWMETIntStatus                                                   
c2183df4  EHRPWMETIntClear                                                    
c2183e18  EHRPWMETIntSWForce                                                  
c2183e40  EHRPWMLoadTBPHSHR                                                   
c2183e74  EHRPWMLoadCMPAHR                                                    
c2183ed8  EHRPWMConfigHR                                                      
c2183f44  EHRPWMHRDisable                                                     
c2183f68  EHRPWMClockEnable                                                   
c2183f84  EHRPWMClockDisable                                                  
c2183fa0  EHRPWMClockEnableStatusGet                                          
c2183fc0  EHRPWMClockDisableStatusGet                                         
c21841d8  lv_style_init                                                       
c218420c  lv_style_reset                                                      
c2184284  lv_style_register_prop                                              
c218436c  lv_style_get_num_custom_props                                       
c21843a4  lv_style_remove_prop                                                
c21846a0  lv_style_set_prop                                                   
c21849d8  lv_style_get_prop                                                   
c2184a28  lv_style_transition_dsc_init                                        
c2184ac0  lv_style_prop_get_default                                           
c2184bd4  lv_style_is_empty                                                   
c2184c18  _lv_style_get_prop_group                                            
c2184c70  _lv_style_prop_lookup_flags                                         
c2185460  lv_gradient_free_cache                                              
c21854a8  lv_gradient_set_cache_size                                          
c2185514  lv_gradient_get                                                     
c21856c4  lv_gradient_calculate                                               
c21859f4  lv_gradient_cleanup                                                 
c2185af8  lv_tabview_create                                                   
c2185b6c  lv_tabview_add_tab                                                  
c2185dc4  lv_tabview_set_act                                                  
c2185f44  lv_tabview_get_tab_act                                              
c2185f84  lv_tabview_get_content                                              
c2185fcc  lv_tabview_get_tab_btns                                             
c2186960  lv_draw_sw_img_decoded                                              
c2187540  lv_color_fill                                                       
c21876a4  lv_color_lighten                                                    
c21876f8  lv_color_darken                                                     
c2187750  lv_color_change_lightness                                           
c2187818  lv_color_hsv_to_rgb                                                 
c2187aa4  lv_color_rgb_to_hsv                                                 
c2187d64  lv_color_to_hsv                                                     
c2187dc0  lv_palette_main                                                     
c2187e2c  lv_palette_lighten                                                  
c2187ef0  lv_palette_darken                                                   
c2188054  lv_draw_arc_dsc_init                                                
c21880ac  lv_draw_arc                                                         
c2188184  lv_draw_arc_get_area                                                
c2188b80  lv_font_get_bitmap_fmt_txt                                          
c2188c54  lv_font_get_glyph_dsc_fmt_txt                                       
c2188e24  _lv_font_clean_up_fmt_txt                                           
c2189660  lv_keyboard_create                                                  
c21896ac  lv_keyboard_set_textarea                                            
c2189720  lv_keyboard_set_mode                                                
c2189794  lv_keyboard_set_popovers                                            
c218982c  lv_keyboard_set_map                                                 
c2189894  lv_keyboard_get_textarea                                            
c21898d0  lv_keyboard_get_mode                                                
c2189914  lv_btnmatrix_get_popovers                                           
c218996c  lv_keyboard_def_event_cb                                            
c218a30c  lv_checkbox_create                                                  
c218a358  lv_checkbox_set_text                                                
c218a410  lv_checkbox_set_text_static                                         
c218a490  lv_checkbox_get_text                                                
c218acc8  lv_draw_img_dsc_init                                                
c218ad34  lv_draw_img                                                         
c218ae30  lv_img_cf_get_px_size                                               
c218aed0  lv_img_cf_is_chroma_keyed                                           
c218af34  lv_img_cf_has_alpha                                                 
c218afb0  lv_img_src_get_type                                                 
c218b070  lv_draw_img_decoded                                                 
c218b654  lv_draw_sw_letter                                                   
c218c0b8  SPI1CSPinMuxSet                                                     
c218c860  SPIHwi                                                              
c218c9c0  SPIFlashTest                                                        
c218ca08  SPIFlashInit                                                        
c218cc34  lv_switch_create                                                    
c218d644  UARTConsoleHwi                                                      
c218d7ac  UARTprintf                                                          
c218d844  ReadLine                                                            
c218dc44  UARTConsoleTask                                                     
c218ddc4  UARTConsoleInit                                                     
c218de20  Cmd_Help                                                            
c218dec0  Cmd_LED                                                             
c218dfb8  Cmd_SPIFlash                                                        
c218e014  Cmd_EEPROM                                                          
c218e06c  Cmd_TL2640                                                          
c218e100  Cmd_PRULoad                                                         
c218e154  Cmd_DDR2                                                            
c218e1c4  Cmd_EHRPWM                                                          
c218e290  Cmd_SATA                                                            
c218e2e8  Cmd_Buzzer                                                          
c218e3a8  Cmd_Date                                                            
c218e454  Cmd_RTC                                                             
c218e6e0  Cmd_WIFI                                                            
c218e7a0  strtod                                                              
c218e7a0  strtold                                                             
c218f0c0  _lv_ll_init                                                         
c218f114  _lv_ll_ins_head                                                     
c218f1b0  _lv_ll_ins_prev                                                     
c218f2b8  _lv_ll_ins_tail                                                     
c218f354  _lv_ll_remove                                                       
c218f444  _lv_ll_clear                                                        
c218f4b0  _lv_ll_chg_list                                                     
c218f5a8  _lv_ll_get_head                                                     
c218f5f8  _lv_ll_get_tail                                                     
c218f64c  _lv_ll_get_next                                                     
c218f698  _lv_ll_get_prev                                                     
c218f6ec  _lv_ll_get_len                                                      
c218f750  _lv_ll_move_before                                                  
c218f838  _lv_ll_is_empty                                                     
c218f9c0  xdc_runtime_System_doPrint__I                                       
c2190260  lv_draw_sw_polygon                                                  
c2190ce0  lv_led_create                                                       
c2190d2c  lv_led_set_color                                                    
c2190d84  lv_led_set_brightness                                               
c2190e38  lv_led_on                                                           
c2190e6c  lv_led_off                                                          
c2190ea0  lv_led_toggle                                                       
c2190f00  lv_led_get_brightness                                               
c21912e0  lv_trigo_sin                                                        
c2191444  lv_bezier3                                                          
c2191550  lv_sqrt                                                             
c21915ec  lv_atan2                                                            
c2191860  lv_pow                                                              
c2191924  lv_map                                                              
c2191a40  lv_rand                                                             
c2191ae0  _lv_timer_core_init                                                 
c2191b18  lv_timer_handler                                                    
c2191d64  lv_timer_create_basic                                               
c2191d98  lv_timer_create                                                     
c2191e64  lv_timer_set_cb                                                     
c2191ea4  lv_timer_del                                                        
c2191ef0  lv_timer_pause                                                      
c2191f34  lv_timer_resume                                                     
c2191f74  lv_timer_set_period                                                 
c2191fb4  lv_timer_ready                                                      
c2191ff8  lv_timer_set_repeat_count                                           
c2192038  lv_timer_reset                                                      
c2192070  lv_timer_enable                                                     
c21920a8  lv_timer_get_idle                                                   
c21920d4  lv_timer_get_next                                                   
c21922c0  ti_sysbios_family_c64p_Exception_handler__I                         
c2192ac4  lv_png_init                                                         
c2193160  ti_sysbios_heaps_HeapMem_free__E                                    
c21938a0  lv_line_create                                                      
c21938ec  lv_line_set_points                                                  
c2193954  lv_line_set_y_invert                                                
c2193a00  lv_line_get_y_invert                                                
c2193fc8  placeHbaInIdle                                                      
c2194114  waitForXms                                                          
c2194188  enableRcvFis                                                        
c21941e4  spinUpDeviceAndWaitForInitToComplete                                
c2194380  setSataSpeed                                                        
c21943ec  invokeHBAReset                                                      
c2194454  cfgDmaSetting                                                       
c2194494  initBaseAddresses                                                   
c21944e4  performFirmwareInit                                                 
c21945e0  initPhyAndDmaPars                                                   
c2194620  ti_sysbios_knl_Semaphore_pend__E                                    
c2194cc0  ti_sysbios_knl_Task_Instance_finalize__F                            
c21953c4  I2CSendBlocking                                                     
c21954d0  I2CRcvBlocking                                                      
c21955e0  I2CRegWrite                                                         
c2195648  I2CHWRegWrite                                                       
c21956c0  I2CRegRead                                                          
c2195768  I2CHWRegRead                                                        
c2195828  I2CRegBitSet                                                        
c21958c8  I2CRegBitClr                                                        
c2195960  I2CInit                                                             
c2195b38  TouchXYGet                                                          
c2195d0c  TouchHwi                                                            
c2195dc0  TouchInit                                                           
c21966a0  lv_bmp_init                                                         
c2196ce0  lv_obj_class_create_obj                                             
c2196f04  lv_obj_class_init_obj                                               
c2196fe0  _lv_obj_destruct                                                    
c2197064  lv_obj_is_editable                                                  
c2197118  lv_obj_is_group_def                                                 
c2197300  ti_sysbios_heaps_HeapMem_alloc__E                                   
c2197920  __c6xabi_divd                                                       
c2197f20  lv_tileview_create                                                  
c2197f6c  lv_tileview_add_tile                                                
c2197fec  lv_obj_set_tile                                                     
c2198078  lv_obj_set_tile_id                                                  
c21981a0  lv_tileview_get_tile_act                                            
c2198520  ti_sysbios_knl_Task_Instance_init__F                                
c2198b20  MEM_FillTest                                                        
c2198c74  MEM_AddrTest                                                        
c2198dcc  MEM_Bit_Walking                                                     
c2198f18  DSP_core_MEM_Test                                                   
c21990e0  SPIClkConfigure                                                     
c2199128  SPIEnable                                                           
c2199144  SPIReset                                                            
c2199160  SPIOutOfReset                                                       
c2199174  SPIModeConfigure                                                    
c2199198  SPIPinControl                                                       
c21991e4  SPIDelayConfigure                                                   
c21992a4  SPIDefaultCSSet                                                     
c21992c8  SPIDat1Config                                                       
c219932c  SPITransmitData1                                                    
c2199358  SPICSTimerDisable                                                   
c2199380  SPICSTimerEnable                                                    
c21993a8  SPICharLengthSet                                                    
c21993f8  SPIConfigClkFormat                                                  
c219942c  SPIShiftMsbFirst                                                    
c2199454  SPIShiftLsbFirst                                                    
c2199480  SPIParityEnable                                                     
c21994d4  SPIParityDisable                                                    
c2199500  SPIWdelaySet                                                        
c2199530  SPIWaitEnable                                                       
c2199558  SPIWaitDisable                                                      
c2199584  SPIIntLevelSet                                                      
c21995ac  SPIIntEnable                                                        
c21995d0  SPIIntDisable                                                       
c21995f4  SPIIntStatusClear                                                   
c219960c  SPIIntStatus                                                        
c2199630  SPIDataReceive                                                      
c219964c  SPIInterruptVectorGet                                               
c2199680  GPIODirModeSet                                                      
c2199718  GPIODirModeGet                                                      
c2199778  GPIOPinWrite                                                        
c21997f8  GPIOPinRead                                                         
c2199858  GPIOIntTypeSet                                                      
c21999c4  GPIOIntTypeGet                                                      
c2199a4c  GPIOPinIntStatus                                                    
c2199aac  GPIOPinIntClear                                                     
c2199af4  GPIOBankIntEnable                                                   
c2199b24  GPIOBankIntDisable                                                  
c2199b50  GPIOBankPinsWrite                                                   
c2199c00  UARTConfigSetExpClk                                                 
c2199c94  UARTConfigGetExpClk                                                 
c2199d28  UARTFIFOLevelSet                                                    
c2199d4c  UARTDMAEnable                                                       
c2199d6c  UARTDMADisable                                                      
c2199d8c  UARTParityModeSet                                                   
c2199dd4  UARTParityModeGet                                                   
c2199df8  UARTEnable                                                          
c2199e14  UARTDisable                                                         
c2199e40  UARTFIFOEnable                                                      
c2199e54  UARTFIFODisable                                                     
c2199e6c  UARTSpaceAvail                                                      
c2199e98  UARTCharsAvail                                                      
c2199ec8  UARTRxErrorGet                                                      
c2199ee8  UARTCharPutNonBlocking                                              
c2199f28  UARTCharGetNonBlocking                                              
c2199f54  UARTCharGet                                                         
c2199f90  UARTCharPut                                                         
c2199fe8  UARTIntEnable                                                       
c219a010  UARTIntDisable                                                      
c219a038  UARTIntStatus                                                       
c219a064  UARTBreakCtl                                                        
c219a098  UARTModemControlSet                                                 
c219a0f0  UARTModemControlClear                                               
c219a124  UARTModemControlGet                                                 
c219a144  UARTModemStatusGet                                                  
c219a288  LCDBacklightEnable                                                  
c219a2d4  LCDBacklightDisable                                                 
c219a324  LCDHwi                                                              
c219a3e4  LCDTask                                                             
c219a414  LCDVersionGet                                                       
c219a444  LCDInit                                                             
c219a864  LEDNixieDisplay                                                     
c219aa0c  LEDNixieTask                                                        
c219aaec  LEDNixieInit                                                        
c219ab40  ti_sysbios_timers_timer64_Timer_Module_startup__F                   
c219b078  bcd2dec                                                             
c219b0b4  dec2bcd                                                             
c219b100  RTCSet                                                              
c219b204  RTCHwi                                                              
c219b3ec  Delay                                                               
c219b430  RtcVersionGet                                                       
c219b460  RTCInit                                                             
c219b4e0  I2CMasterInitExpClk                                                 
c219b580  I2CMasterEnable                                                     
c219b5b8  I2CMasterDisable                                                    
c219b5d8  I2CMasterIntEnableEx                                                
c219b600  I2CSlaveIntEnableEx                                                 
c219b624  I2CMasterIntDisableEx                                               
c219b648  I2CSlaveIntDisableEx                                                
c219b66c  I2CMasterIntStatus                                                  
c219b688  I2CSlaveIntStatus                                                   
c219b6a4  I2CSlaveIntStatusEx                                                 
c219b6c4  I2CMasterIntClearEx                                                 
c219b6d8  I2CSlaveIntClearEx                                                  
c219b6f0  I2CMasterSlaveAddrSet                                               
c219b708  I2CMasterBusBusy                                                    
c219b72c  I2CMasterIsBusy                                                     
c219b750  I2CMasterControl                                                    
c219b778  I2CMasterStart                                                      
c219b798  I2CMasterStop                                                       
c219b7b8  I2CStatusClear                                                      
c219b7d0  I2CMasterErr                                                        
c219b7f8  I2CMasterDataPut                                                    
c219b820  I2CMasterDataGet                                                    
c219b838  I2CSlaveDataPut                                                     
c219b860  I2CSlaveDataGet                                                     
c219b878  I2CSetDataCount                                                     
c219b890  I2COwnAddressSet                                                    
c219b8a8  I2CInterruptVectorGet                                               
c219b8c4  I2CSlaveAddressGet                                                  
c219b8e0  I2CDMATxRxEventDisable                                              
c219b8f4  I2CDMATxEventEnable                                                 
c219b918  I2CDMARxEventEnable                                                 
c219b940  I2CDMATxEventDisable                                                
c219b964  I2CDMARxEventDisable                                                
c219b9a0  strtoll                                                             
c219be60  lv_indev_drv_init                                                   
c219bee4  lv_indev_drv_register                                               
c219bfd0  lv_indev_drv_update                                                 
c219c0d4  lv_indev_delete                                                     
c219c160  lv_indev_get_next                                                   
c219c1e0  _lv_indev_read                                                      
c219c2e0  strtoull                                                            
c219c720  TaskSleep                                                           
c219c720  ti_sysbios_knl_Task_sleep__E                                        
c219cb40  EEPROMTest                                                          
c219cd70  EEPROMByteWrite                                                     
c219cdc8  EEPROMPageWrite                                                     
c219ce54  EEPROMPageRead                                                      
c219cee4  EEPROMRandomRead                                                    
c219d0d4  LEDControl                                                          
c219d1d8  LEDTask                                                             
c219d2f0  LEDInit                                                             
c219d8a8  KEY4Swi                                                             
c219d900  KEY6Swi                                                             
c219d9cc  KEY4Hwi                                                             
c219da28  KEY6Hwi                                                             
c219dad8  KEYInit                                                             
c219db20  PLLClockGet                                                         
c219de98  PLLClockOut                                                         
c219df44  lv_calendar_header_arrow_create                                     
c219e2e0  ti_sysbios_family_c64p_Hwi_dispatchCore__I                          
c219e6a0  ti_sysbios_heaps_HeapMem_Instance_init__F                           
c219ea60  ti_sysbios_timers_timer64_Timer_Instance_init__F                    
c219ee20  strtol                                                              
c219f1c0  ti_sysbios_knl_Swi_run__I                                           
c219f6d4  UART1Hwi                                                            
c219f7d8  UART1Puts                                                           
c219f890  UART1Init                                                           
c219f98c  LVGLTick                                                            
c219f9c0  LVGLTask                                                            
c219f9ec  lv_port_disp_init                                                   
c219fc74  lv_theme_get_from_obj                                               
c219fcd0  lv_theme_apply                                                      
c219fd34  lv_theme_set_parent                                                 
c219fd74  lv_theme_set_apply_cb                                               
c219fdb4  lv_theme_get_font_small                                             
c219fe08  lv_theme_get_font_normal                                            
c219fe58  lv_theme_get_font_large                                             
c219feac  lv_theme_get_color_primary                                          
c219ff08  lv_theme_get_color_secondary                                        
c219ffe0  ti_sysbios_knl_Clock_Instance_init__F                               
c21a0340  ti_sysbios_knl_Swi_Instance_init__F                                 
c21a06a0  ti_sysbios_timers_timer64_Timer_deviceConfig__I                     
c21a0a00  xdc_runtime_System_printfExtend__I                                  
c21a0d40  ti_sysbios_timers_timer64_Timer_initObj__I                          
c21a1060  GPIOBankPinMuxSet                                                   
c21a10f4  PWM1ABasic                                                          
c21a1294  ChopperWaveform                                                     
c21a1300  PWMInit                                                             
c21a1360  lv_calendar_header_dropdown_create                                  
c21a1688  lv_draw_sw_init_ctx                                                 
c21a1784  lv_draw_sw_deinit_ctx                                               
c21a17c8  lv_draw_sw_wait_for_finish                                          
c21a17f0  lv_draw_sw_buffer_copy                                              
c21a1960  strtoul                                                             
c21a1c60  ti_sysbios_knl_Semaphore_post__E                                    
c21a1f60  ti_sysbios_utils_Load_logLoads__I                                   
c21a2260  fputs                                                               
c21a2610  lv_spinner_create                                                   
c21a2820  CRC8                                                                
c21a28f0  TempSensorGet                                                       
c21a2a70  TempSensorInit                                                      
c21a2ae0  lv_win_create                                                       
c21a2b44  lv_win_add_title                                                    
c21a2bac  lv_win_add_btn                                                      
c21a2c30  lv_win_get_header                                                   
c21a2c70  lv_win_get_content                                                  
c21a2f48  SATATest                                                            
c21a3580  lv_font_get_glyph_bitmap                                            
c21a35d4  lv_font_get_glyph_dsc                                               
c21a37b8  lv_font_get_glyph_width                                             
c21a3820  ti_sysbios_knl_Clock_workFunc__E                                    
c21a3ac0  ti_sysbios_knl_Task_schedule__I                                     
c21a3d40  ti_sysbios_knl_Task_startCore__E                                    
c21a3fc0  ti_sysbios_utils_Load_updateThreadContexts__E                       
c21a4240  xdc_runtime_Error_raiseX__F                                         
c21a44c0  PRUEnable                                                           
c21a4514  PRUDisable                                                          
c21a4558  PRULoad                                                             
c21a464c  PRURun                                                              
c21a4690  PRUWaitForHalt                                                      
c21a4720  __c6xabi_divull                                                     
c21a4a80  lv_draw_rect_dsc_init                                               
c21a4b60  lv_draw_rect                                                        
c21a4be0  ti_sysbios_timers_timer64_Timer_start__E                            
c21a4e40  xdc_runtime_Startup_startMods__I                                    
c21a50a0  ExceptionHook                                                       
c21a5238  InternalExceptionHook                                               
c21a5270  ExternalExceptionHook                                               
c21a52a8  ExceptionReturnHook                                                 
c21a52e0  ti_sysbios_timers_timer64_Timer_setPeriodMicroSecs__E               
c21a5500  ti_sysbios_utils_Load_updateLoads__E                                
c21a5720  xdc_runtime_Core_createObject__I                                    
c21a5b40  ti_sysbios_family_c64p_Hwi_dispatchAlways                           
c21a5d40  ti_sysbios_knl_Swi_post__E                                          
c21a5f40  TaskExit                                                            
c21a5f40  ti_sysbios_knl_Task_exit__E                                         
c21a6140  xdc_runtime_Log_doPrint__F                                          
c21a6340  ti_sysbios_knl_Task_postInit__I                                     
c21a6520  ti_sysbios_knl_Task_unblockI__E                                     
c21a6700  __c6xabi_divul                                                      
c21a68c0  fputc                                                               
c21a68c0  putc                                                                
c21a6a80  frexp                                                               
c21a6a80  frexpl                                                              
c21a6c40  ldexp                                                               
c21a6c40  ldexpl                                                              
c21a6c40  scalbn                                                              
c21a6c40  scalbnl                                                             
c21a6e00  CacheInit                                                           
c21a6e6c  HardwareInit                                                        
c21a6ed0  main                                                                
c21a6fc0  setvbuf                                                             
c21a7180  ti_sysbios_family_c64p_Hwi_Instance_finalize__F                     
c21a7340  ti_sysbios_family_c64p_Hwi_Module_startup__F                        
c21a7500  ti_sysbios_family_c64p_Hwi_reconfig__E                              
c21a76c0  ti_sysbios_knl_Semaphore_Instance_init__F                           
c21a7880  ti_sysbios_knl_Swi_Instance_finalize__F                             
c21a7a40  ti_sysbios_utils_Load_idleFxn__E                                    
c21a7c00  xdc_runtime_Text_putSite__F                                         
c21a7dc0  HOSTrename                                                          
c21a7f60  ti_sysbios_gates_GateMutex_enter__E                                 
c21a8100  ti_sysbios_timers_timer64_Timer_getFreq__E                          
c21a82a0  ti_sysbios_utils_Load_updateCurrentThreadTime__E                    
c21a8440  Timer_getNextAvailableTimerId                                       
c21a8654  lv_draw_line_dsc_init                                               
c21a86ac  lv_draw_line                                                        
c21a8740  ti_sysbios_family_c64p_Exception_dispatch__E                        
c21a88c0  ti_sysbios_family_c64p_Exception_internalHandler__I                 
c21a8a40  ti_sysbios_knl_Task_blockI__E                                       
c21a8bc0  ti_sysbios_knl_Task_checkStacks__E                                  
c21a8ea0  CmdLineProcess                                                      
c21a9000  _lv_gc_clear_roots                                                  
c21a9160  NMIHook                                                             
c21a92c0  ti_sysbios_knl_Swi_Module_startup__F                                
c21a9420  ti_sysbios_knl_Task_Module_startup__F                               
c21a9580  ti_sysbios_timers_timer64_Timer_initDevice__I                       
c21a976c  BUZZERBeep                                                          
c21a97c8  BUZZERInit                                                          
c21a9820  _auto_init_elf                                                      
c21a9be0  PSCModuleControl                                                    
c21a9dcc  lv_example_get_started_1                                            
c21a9e60  _lv_img_cache_open                                                  
c21a9f48  lv_img_cache_set_size                                               
c21a9f74  lv_img_cache_invalidate_src                                         
c21a9fa0  ti_sysbios_family_c64p_Exception_externalHandler__I                 
c21aa0e0  ti_sysbios_family_c64p_Hwi_Instance_init__F                         
c21aa220  ti_sysbios_utils_Load_hwiBeginHook__E                               
c21aa360  xdc_runtime_Text_putLab__F                                          
c21aa5c0  getdevice                                                           
c21aa6e0  lv_async_call                                                       
c21aa800  ti_sysbios_family_c64p_Cache_block__I                               
c21aa920  ti_sysbios_family_c64p_Exception_decodeMpfsr__I                     
c21aaa40  xdc_runtime_Text_putMod__F                                          
c21aabb8  TimerHwi                                                            
c21aac00  TimerInit                                                           
c21aac60  __TI_closefile                                                      
c21aaf60  atoi                                                                
c21ab060  fseek                                                               
c21ab160  lv_tick_inc                                                         
c21ab1a4  lv_tick_get                                                         
c21ab1e8  lv_tick_elaps                                                       
c21ab260  _lv_utils_bsearch                                                   
c21ab360  ti_sysbios_BIOS_rtsUnlock__I                                        
c21ab460  ti_sysbios_family_c64p_EventCombiner_dispatch__F                    
c21ab560  ti_sysbios_family_c64p_Exception_Module_startup__F                  
c21ab660  ti_sysbios_knl_Clock_start__E                                       
c21ab760  ti_sysbios_knl_Swi_restoreHwi__E                                    
c21ab860  ti_sysbios_timers_timer64_Timer_Object__create__S                   
c21ab960  ti_sysbios_utils_Load_swiBeginHook__E                               
c21aba60  ti_sysbios_utils_Load_taskCreateHook__E                             
c21abb60  ti_sysbios_utils_Load_taskSwitchHook__E                             
c21abc60  xdc_runtime_Core_deleteObject__I                                    
c21abd60  xdc_runtime_Startup_exec__F                                         
c21abe60  xdc_runtime_Text_visitRope2__I                                      
c21abf60  HOSTlseek                                                           
c21ac040  HOSTopen                                                            
c21ac120  HOSTwrite                                                           
c21ac200  __TI_ltoa                                                           
c21ac2e0  __TI_wrt_ok                                                         
c21ac3c0  __c6xabi_divi                                                       
c21ac3c0  __divi                                                              
c21ac4a0  close                                                               
c21ac580  exit                                                                
c21ac660  memset                                                              
c21ac740  printf                                                              
c21ac820  ti_sysbios_family_c64p_Cache_Module_startup__F                      
c21ac900  ti_sysbios_family_c64p_Hwi_Object__create__S                        
c21ac9e0  ti_sysbios_family_c64p_Hwi_postInit__I                              
c21acac0  ti_sysbios_hal_Hwi_Object__create__S                                
c21acba0  ti_sysbios_heaps_HeapMem_getStats__E                                
c21acc80  ti_sysbios_knl_Clock_logTick__E                                     
c21acd60  ti_sysbios_knl_Swi_Object__create__S                                
c21ace40  ti_sysbios_knl_Swi_postInit__I                                      
c21acf20  ti_sysbios_knl_Swi_runLoop__I                                       
c21ad000  ti_sysbios_knl_Swi_schedule__I                                      
c21ad0e0  ti_sysbios_knl_Task_Object__create__S                               
c21ad1c0  ti_sysbios_timers_timer64_Timer_stop__E                             
c21ad2a0  xdc_runtime_Error_print__F                                          
c21ad380  xdc_runtime_LoggerSys_write8__F                                     
c21ad460  xdc_runtime_Memory_alloc__F                                         
c21ad540  HOSTread                                                            
c21ad600  HOSTunlink                                                          
c21ad6c0  _Z23__finalize_destructionsPP20a_needed_destructionPv               
c21ad780  __cxa_atexit                                                        
c21ad840  __c6xabi_divu                                                       
c21ad840  __divu                                                              
c21ad900  __c6xabi_remi                                                       
c21ad900  __remi                                                              
c21ada80  ti_sysbios_family_c64p_Hwi_eventMap__E                              
c21adb40  ti_sysbios_family_c64p_Hwi_getStackInfo__E                          
c21adc00  ti_sysbios_knl_Task_allBlockedFunction__I                           
c21adcc0  ti_sysbios_timers_timer64_Timer_Instance_finalize__F                
c21add80  ti_sysbios_utils_Load_addTask__E                                    
c21ade40  ti_sysbios_utils_Load_hwiEndHook__E                                 
c21adf00  ti_sysbios_utils_Load_logCPULoad__I                                 
c21adfc0  xdc_runtime_System_formatNum__I                                     
c21ae080  HOSTclose                                                           
c21ae120  __TI_cleanup                                                        
c21ae1c0  __TI_doflush                                                        
c21ae260  __c6xabi_remu                                                       
c21ae260  __remu                                                              
c21ae300  _c_int00                                                            
c21ae440  ti_sysbios_family_c64p_Hwi_plug__E                                  
c21ae4e0  asctime                                                             
c21ae580  finddevice                                                          
c21ae620  llTimerTick                                                         
c21ae6c0  lv_btn_create                                                       
c21ae760  memcpy                                                              
c21ae800  ti_sysbios_family_c62_TaskSupport_start__E                          
c21ae8a0  ti_sysbios_family_c64p_Cache_all__I                                 
c21ae940  ti_sysbios_family_c64p_Cache_marInit__I                             
c21ae9e0  ti_sysbios_family_c64p_Cache_setMar__E                              
c21aea80  ti_sysbios_family_c64p_primus_TimerSupport_enable__E                
c21aeb20  ti_sysbios_heaps_HeapMem_init__I                                    
c21aebc0  ti_sysbios_knl_Clock_Object__create__S                              
c21aec60  ti_sysbios_knl_Idle_run__E                                          
c21aed00  ti_sysbios_knl_Semaphore_Object__create__S                          
c21aeda0  ti_sysbios_timers_timer64_Timer_getPeriod__E                        
c21aee40  ti_sysbios_timers_timer64_Timer_startup__E                          
c21aeee0  ti_sysbios_utils_Load_swiEndHook__E                                 
c21aef80  ti_sysbios_utils_Load_taskDeleteHook__E                             
c21af020  xdc_runtime_Assert_raise__I                                         
c21af0c0  xdc_runtime_SysMin_abort__F                                         
c21af160  xdc_runtime_SysMin_flush__F                                         
c21af200  xdc_runtime_SysMin_putch__F                                         
c21af2a0  xdc_runtime_Text_xprintf__I                                         
c21af340  ConsoleLogger                                                       
c21af3c0  __TI_readmsg                                                        
c21af440  __c6xabi_llshl                                                      
c21af540  ti_sysbios_family_c62_TaskSupport_swap__E                           
c21af5c0  snprintf                                                            
c21af640  strcat                                                              
c21af6c0  ti_sysbios_family_c64p_Cache_setSize__E                             
c21af740  ti_sysbios_family_c64p_Cache_wait__E                                
c21af7c0  ti_sysbios_family_c64p_EventCombiner_Module_startup__F              
c21af840  ti_sysbios_family_c64p_EventCombiner_disableEvent__F                
c21af8c0  ti_sysbios_family_c64p_EventCombiner_enableEvent__F                 
c21af940  ti_sysbios_family_c64p_Exception_getLastStatus__E                   
c21af9c0  ti_sysbios_family_c64p_Hwi_getEventId__E                            
c21afa40  ti_sysbios_gates_GateHwi_Object__create__S                          
c21afac0  ti_sysbios_gates_GateMutex_Object__create__S                        
c21afb40  ti_sysbios_heaps_HeapMem_Object__create__S                          
c21afbc0  ti_sysbios_knl_Queue_Object__create__S                              
c21afc40  ti_sysbios_knl_Semaphore_pendTimeout__I                             
c21afcc0  ti_sysbios_knl_Swi_restore__E                                       
c21afd40  ti_sysbios_knl_Task_deleteTerminatedTasksFunc__I                    
c21afdc0  ti_sysbios_utils_Load_getGlobalHwiLoad__E                           
c21afe40  ti_sysbios_utils_Load_getTaskLoad__E                                
c21afec0  ti_sysbios_utils_Load_removeTask__E                                 
c21aff40  remove                                                              
c21aff40  unlink                                                              
c21affc0  xdc_runtime_Core_assignLabel__I                                     
c21b0040  xdc_runtime_Core_assignParams__I                                    
c21b00c0  xdc_runtime_LoggerSys_Object__create__S                             
c21b0140  xdc_runtime_LoggerSys_write8__E                                     
c21b01c0  xdc_runtime_System_atexit__F                                        
c21b0240  xdc_runtime_System_putchar__I                                       
c21b02c0  xdc_runtime_System_rtsExit__I                                       
c21b0340  xdc_runtime_Text_printVisFxn__I                                     
c21b03c0  LEDMatrixInit                                                       
c21b0420  NDK_hookCreate                                                      
c21b0480  __TI_writemsg                                                       
c21b04d8  C$$IO$$                                                             
c21b04e0  __c6xabi_llshru                                                     
c21b0540  __c6xabi_remull                                                     
c21b05a0  _subcull                                                            
c21b0600  ti_sysbios_family_c64p_Hwi_switchAndDispatch__I                     
c21b0660  ti_sysbios_family_xxx_Hwi_switchAndRunFunc                          
c21b06c0  lseek                                                               
c21b0720  malloc                                                              
c21b0780  memccpy                                                             
c21b07e0  memcmp                                                              
c21b0840  sprintf                                                             
c21b08a0  sscanf                                                              
c21b0900  strcmp                                                              
c21b0960  strcpy                                                              
c21b09c0  strncmp                                                             
c21b0a80  ti_ndk_config_Global_stackThread                                    
c21b0ae0  ti_sysbios_BIOS_errorRaiseHook__I                                   
c21b0b40  ti_sysbios_BIOS_exitFunc__I                                         
c21b0ba0  ti_sysbios_BIOS_rtsLock__I                                          
c21b0c00  ti_sysbios_family_c64p_EventCombiner_dispatchPlug__F                
c21b0c60  ti_sysbios_family_c64p_EventCombiner_unused__F                      
c21b0cc0  ti_sysbios_family_c64p_Exception_evtExpMaskEnable__E                
c21b0d20  ti_sysbios_family_c64p_Exception_nmiHandler__I                      
c21b0d80  ti_sysbios_family_c64p_Hwi_disableIER__E                            
c21b0de0  ti_sysbios_family_c64p_Hwi_enableIER__E                             
c21b0e40  ti_sysbios_gates_GateHwi_Handle__label__S                           
c21b0ea0  ti_sysbios_gates_GateMutex_Handle__label__S                         
c21b0f00  ti_sysbios_hal_Hwi_Instance_init__F                                 
c21b0f60  ti_sysbios_hal_Hwi_checkStack                                       
c21b0fc0  ti_sysbios_hal_Hwi_initStack                                        
c21b1020  ti_sysbios_heaps_HeapMem_Handle__label__S                           
c21b1080  ti_sysbios_heaps_HeapMem_Object__get__S                             
c21b10e0  ti_sysbios_knl_Clock_addI__E                                        
c21b1140  ti_sysbios_knl_Clock_doTick__I                                      
c21b11a0  ti_sysbios_knl_Queue_put__E                                         
c21b1200  ti_sysbios_knl_Swi_Object__get__S                                   
c21b1260  ti_sysbios_knl_Task_getMode__E                                      
c21b12c0  ti_sysbios_knl_Task_processVitalTaskFlag__I                         
c21b1320  ti_sysbios_knl_Task_restore__E                                      
c21b1380  ti_sysbios_knl_Task_sleepTimeout__I                                 
c21b13e0  ti_sysbios_utils_Load_getGlobalSwiLoad__E                           
c21b1440  write                                                               
c21b14a0  xdc_runtime_Error_raiseX__E                                         
c21b1500  xdc_runtime_LoggerSys_Handle__label__S                              
c21b1560  xdc_runtime_LoggerSys_write0__F                                     
c21b15c0  xdc_runtime_LoggerSys_write1__F                                     
c21b1620  xdc_runtime_LoggerSys_write4__E                                     
c21b1680  xdc_runtime_Memory_calloc__F                                        
c21b16e0  xdc_runtime_SysMin_Module_startup__F                                
c21b1740  xdc_runtime_SysMin_exit__F                                          
c21b17a0  xdc_runtime_System_aprintf_va__F                                    
c21b17a0  xdc_runtime_System_avprintf__F                                      
c21b1800  xdc_runtime_System_printf_va__F                                     
c21b1800  xdc_runtime_System_vprintf__F                                       
c21b1860  xdc_runtime_Text_cordText__F                                        
c21b18c0  FunEntryHook                                                        
c21b18d0  FunExitHook                                                         
c21b1900  NDK_hookExit                                                        
c21b1940  __TI_frcmpyd_div                                                    
c21b1980  __c6xabi_isinf                                                      
c21b1a00  __c6xabi_strasgi_64plus                                             
c21b1a00  __strasgi_64plus                                                    
c21b1a40  _args_main                                                          
c21b1b40  ti_sysbios_family_c62_TaskSupport_buildTaskStack                    
c21b1b80  ti_sysbios_family_xxx_Hwi_switchToIsrStack                          
c21b1c00  free                                                                
c21b1c40  lv_draw_init                                                        
c21b1c80  lv_extra_init                                                       
c21b1cc0  strlen                                                              
c21b1d00  ti_sysbios_BIOS_exit__E                                             
c21b1d40  ti_sysbios_BIOS_getCpuFreq__E                                       
c21b1d80  ti_sysbios_BIOS_registerRTSLock__I                                  
c21b1dc0  ti_sysbios_BIOS_removeRTSLock__I                                    
c21b1e00  ti_sysbios_BIOS_setThreadType__E                                    
c21b1e40  ti_sysbios_BIOS_startFunc__I                                        
c21b1e80  ti_sysbios_family_c62_TaskSupport_checkStack__E                     
c21b1ec0  ti_sysbios_family_c64p_Cache_wbInv__E                               
c21b1f00  ti_sysbios_family_c64p_EventCombiner_dispatchPlug__E                
c21b1f40  ti_sysbios_family_c64p_Exception_evtEvtClear__E                     
c21b1f80  ti_sysbios_family_c64p_Hwi_Module__startupDone__F                   
c21b1fc0  ti_sysbios_family_c64p_Hwi_Object__delete__S                        
c21b2000  ti_sysbios_family_c64p_Hwi_Params__init__S                          
c21b2040  ti_sysbios_family_c64p_Hwi_clearInterrupt__E                        
c21b2080  ti_sysbios_family_c64p_Hwi_disableInterrupt__E                      
c21b20c0  ti_sysbios_family_c64p_Hwi_dispatchC__I                             
c21b2100  ti_sysbios_family_c64p_Hwi_enableInterrupt__E                       
c21b2140  ti_sysbios_family_c64p_Hwi_getIsrStackAddress__I                    
c21b2180  ti_sysbios_family_c64p_TimestampProvider_get64__E                   
c21b21c0  ti_sysbios_gates_GateHwi_Object__delete__S                          
c21b2200  ti_sysbios_gates_GateHwi_enter__E                                   
c21b2280  ti_sysbios_gates_GateMutex_Instance_finalize__F                     
c21b22c0  ti_sysbios_gates_GateMutex_Instance_init__F                         
c21b2300  ti_sysbios_gates_GateMutex_Object__delete__S                        
c21b2340  ti_sysbios_gates_GateMutex_leave__E                                 
c21b2380  ti_sysbios_hal_Hwi_HwiProxy_Object__create__S                       
c21b2400  ti_sysbios_hal_Hwi_HwiProxy_getStackInfo__E                         
c21b2440  ti_sysbios_hal_Hwi_Instance_finalize__F                             
c21b2480  ti_sysbios_hal_Hwi_Object__delete__S                                
c21b24c0  ti_sysbios_hal_Hwi_Params__init__S                                  
c21b2580  ti_sysbios_hal_Hwi_getStackInfo__E                                  
c21b25c0  ti_sysbios_hal_Timer_Module__startupDone__F                         
c21b2600  ti_sysbios_heaps_HeapMem_Object__delete__S                          
c21b2640  ti_sysbios_heaps_HeapMem_restore__E                                 
c21b2700  ti_sysbios_knl_Clock_Module_startup__F                              
c21b2740  ti_sysbios_knl_Clock_Params__init__S                                
c21b27c0  ti_sysbios_knl_Clock_startI__E                                      
c21b2800  ti_sysbios_knl_Queue_Object__destruct__S                            
c21b2840  ti_sysbios_knl_Queue_Object__get__S                                 
c21b28c0  ti_sysbios_knl_Queue_dequeue__E                                     
c21b2900  ti_sysbios_knl_Queue_empty__E                                       
c21b2940  ti_sysbios_knl_Queue_enqueue__E                                     
c21b2980  ti_sysbios_knl_Queue_remove__E                                      
c21b2a00  ti_sysbios_knl_Semaphore_Instance_finalize__F                       
c21b2a40  ti_sysbios_knl_Semaphore_Object__destruct__S                        
c21b2a80  ti_sysbios_knl_Semaphore_Params__init__S                            
c21b2b00  ti_sysbios_knl_Swi_Params__init__S                                  
c21b2b40  ti_sysbios_knl_Swi_disable__E                                       
c21b2c00  ti_sysbios_knl_Task_Object__delete__S                               
c21b2c40  ti_sysbios_knl_Task_Object__first__S                                
c21b2c80  ti_sysbios_knl_Task_Object__get__S                                  
c21b2cc0  ti_sysbios_knl_Task_Object__next__S                                 
c21b2d00  ti_sysbios_knl_Task_Params__init__S                                 
c21b2d40  ti_sysbios_knl_Task_disable__E                                      
c21b2d80  ti_sysbios_knl_Task_enabled__E                                      
c21b2dc0  ti_sysbios_knl_Task_enter__I                                        
c21b2e00  ti_sysbios_knl_Task_restoreHwi__E                                   
c21b2e40  ti_sysbios_knl_Task_setHookContext__E                               
c21b2e80  ti_sysbios_knl_Task_unblock__E                                      
c21b2ec0  ti_sysbios_timers_timer64_Timer_Module__startupDone__F              
c21b2f00  ti_sysbios_timers_timer64_Timer_Params__init__S                     
c21b2f40  ti_sysbios_timers_timer64_Timer_checkOverflow__I                    
c21b2f80  ti_sysbios_timers_timer64_Timer_postInit__I                         
c21b3000  vsprintf                                                            
c21b3040  wcslen                                                              
c21b3080  xdc_runtime_Error_check__F                                          
c21b30c0  xdc_runtime_Error_init__F                                           
c21b3180  xdc_runtime_LoggerSys_Object__delete__S                             
c21b31c0  xdc_runtime_LoggerSys_write0__E                                     
c21b3200  xdc_runtime_LoggerSys_write1__E                                     
c21b3240  xdc_runtime_LoggerSys_write2__E                                     
c21b3280  xdc_runtime_LoggerSys_write2__F                                     
c21b32c0  xdc_runtime_LoggerSys_write4__F                                     
c21b3300  xdc_runtime_Memory_free__F                                          
c21b3340  xdc_runtime_Registry_findById__F                                    
c21b3380  xdc_runtime_Startup_exec__I                                         
c21b33c0  xdc_runtime_System_abort__F                                         
c21b3400  xdc_runtime_System_aprintf__E                                       
c21b3440  xdc_runtime_System_printf__E                                        
c21b3480  xdc_runtime_System_putch__F                                         
c21b34c0  xdc_runtime_Text_putMod__E                                          
c21b3500  xdc_runtime_Text_ropeText__F                                        
c21b3540  xdc_runtime_Text_visitRope__I                                       
c21b3580  LED_TOGGLE                                                          
c21b35a0  NDK_hookInit                                                        
c21b35c0  SemPost                                                             
c21b35e0  __c6xabi_errno_addr                                                 
c21b3600  __cxa_ia64_exit                                                     
c21b3620  __c6xabi_pop_rts                                                    
c21b3620  __pop_rts                                                           
c21b3640  __c6xabi_push_rts                                                   
c21b3640  __push_rts                                                          
c21b3680  _nop                                                                
c21b3720  _register_lock                                                      
c21b3740  _register_unlock                                                    
c21b3760  _signbit                                                            
c21b3780  ti_sysbios_family_c62_TaskSupport_glue                              
c21b37a0  ti_sysbios_family_xxx_Hwi_switchToTaskStack                         
c21b37e0  C$$EXIT                                                             
c21b37e0  abort                                                               
c21b3800  atexit                                                              
c21b3820  __TI_decompress_none                                                
c21b3840  __TI_decompress_rle24                                               
c21b3860  ti_ndk_config_global_taskCreateHook                                 
c21b3880  ti_ndk_config_global_taskExitHook                                   
c21b38a0  ti_sysbios_BIOS_RtsGateProxy_enter__E                               
c21b38c0  ti_sysbios_BIOS_RtsGateProxy_leave__E                               
c21b38e0  ti_sysbios_BIOS_getThreadType__E                                    
c21b3900  ti_sysbios_BIOS_nullFunc__I                                         
c21b3920  ti_sysbios_BIOS_start__E                                            
c21b3940  ti_sysbios_family_c62_TaskSupport_Module__startupDone__S            
c21b3960  ti_sysbios_family_c62_TaskSupport_getStackAlignment__E              
c21b3980  ti_sysbios_family_c64p_Cache_Module_startup__E                      
c21b39a0  ti_sysbios_family_c64p_Cache_invL1pAll__E                           
c21b39c0  ti_sysbios_family_c64p_Cache_wbInvAll__E                            
c21b39e0  ti_sysbios_family_c64p_EventCombiner_Module_startup__E              
c21b3a00  ti_sysbios_family_c64p_EventCombiner_disableEvent__E                
c21b3a20  ti_sysbios_family_c64p_EventCombiner_dispatch__E                    
c21b3a40  ti_sysbios_family_c64p_EventCombiner_unused__E                      
c21b3a60  ti_sysbios_family_c64p_Exception_Module_startup__E                  
c21b3a80  ti_sysbios_family_c64p_Hwi_Module__startupDone__S                   
c21b3aa0  ti_sysbios_family_c64p_Hwi_Module_startup__E                        
c21b3ac0  ti_sysbios_family_c64p_Hwi_startup__E                               
c21b3ae0  ti_sysbios_family_c64p_Hwi_switchFromBootStack__E                   
c21b3b00  ti_sysbios_family_c64p_Hwi_unPluggedInterrupt__I                    
c21b3b20  ti_sysbios_family_c64p_TimestampProvider_Module_startup__E          
c21b3b40  ti_sysbios_family_c64p_TimestampProvider_Module_startup__F          
c21b3b60  ti_sysbios_family_c64p_TimestampProvider_get32__E                   
c21b3b80  ti_sysbios_family_c64p_TimestampProvider_getFreq__E                 
c21b3ba0  ti_sysbios_gates_GateHwi_Instance_init__F                           
c21b3bc0  ti_sysbios_gates_GateHwi_leave__E                                   
c21b3be0  ti_sysbios_gates_GateHwi_query__E                                   
c21b3c00  ti_sysbios_gates_GateHwi_query__F                                   
c21b3c20  ti_sysbios_gates_GateMutex_query__E                                 
c21b3c40  ti_sysbios_gates_GateMutex_query__F                                 
c21b3c60  ti_sysbios_hal_Hwi_HwiProxy_Module__startupDone__S                  
c21b3c80  ti_sysbios_hal_Hwi_HwiProxy_Object__delete__S                       
c21b3ca0  ti_sysbios_hal_Hwi_HwiProxy_clearInterrupt__E                       
c21b3ce0  ti_sysbios_hal_Hwi_HwiProxy_disableInterrupt__E                     
c21b3d00  ti_sysbios_hal_Hwi_HwiProxy_enableInterrupt__E                      
c21b3d20  ti_sysbios_hal_Hwi_HwiProxy_startup__E                              
c21b3d40  ti_sysbios_hal_Hwi_HwiProxy_switchFromBootStack__E                  
c21b3d60  ti_sysbios_hal_Hwi_Module_startup__E                                
c21b3d80  ti_sysbios_hal_Hwi_Module_startup__F                                
c21b3dc0  ti_sysbios_hal_Hwi_clearInterrupt__E                                
c21b3e00  ti_sysbios_hal_Hwi_disableInterrupt__E                              
c21b3e20  ti_sysbios_hal_Hwi_enableInterrupt__E                               
c21b3e40  ti_sysbios_hal_Hwi_startup__E                                       
c21b3e60  ti_sysbios_hal_Hwi_switchFromBootStack__E                           
c21b3e80  ti_sysbios_hal_Timer_Module__startupDone__S                         
c21b3ea0  ti_sysbios_hal_Timer_Module_startup__E                              
c21b3ec0  ti_sysbios_hal_Timer_Module_startup__F                              
c21b3ee0  ti_sysbios_hal_Timer_TimerProxy_Module__startupDone__S              
c21b3f00  ti_sysbios_hal_Timer_TimerProxy_getPeriod__E                        
c21b3f20  ti_sysbios_hal_Timer_TimerProxy_startup__E                          
c21b3f40  ti_sysbios_hal_Timer_getPeriod__E                                   
c21b3f60  ti_sysbios_hal_Timer_startup__E                                     
c21b3f80  ti_sysbios_heaps_HeapMem_Module_GateProxy_enter__E                  
c21b3fa0  ti_sysbios_heaps_HeapMem_Module_GateProxy_leave__E                  
c21b3fc0  ti_sysbios_heaps_HeapMem_Module_GateProxy_query__E                  
c21b4000  ti_sysbios_heaps_HeapMem_isBlocking__E                              
c21b4020  ti_sysbios_knl_Clock_Module_startup__E                              
c21b4060  ti_sysbios_knl_Clock_getTicks__E                                    
c21b40c0  ti_sysbios_knl_Clock_removeI__E                                     
c21b40e0  ti_sysbios_knl_Idle_loop__E                                         
c21b4100  ti_sysbios_knl_Queue_Instance_init__F                               
c21b4180  ti_sysbios_knl_Queue_elemClear__E                                   
c21b41a0  ti_sysbios_knl_Queue_head__E                                        
c21b41c0  ti_sysbios_knl_Queue_insert__E                                      
c21b41e0  ti_sysbios_knl_Queue_next__E                                        
c21b4260  ti_sysbios_knl_Swi_Module_startup__E                                
c21b42a0  ti_sysbios_knl_Swi_enabled__E                                       
c21b42c0  ti_sysbios_knl_Swi_startup__E                                       
c21b42e0  ti_sysbios_knl_Task_Module_startup__E                               
c21b4360  ti_sysbios_knl_Task_SupportProxy_Module__startupDone__S             
c21b4380  ti_sysbios_knl_Task_SupportProxy_checkStack__E                      
c21b43a0  ti_sysbios_knl_Task_SupportProxy_getStackAlignment__E               
c21b43c0  ti_sysbios_knl_Task_SupportProxy_start__E                           
c21b43e0  ti_sysbios_knl_Task_SupportProxy_swap__E                            
c21b4420  ti_sysbios_knl_Task_getHookContext__E                               
c21b4440  ti_sysbios_knl_Task_getIdleTask__E                                  
c21b4460  ti_sysbios_knl_Task_getPri__E                                       
c21b44a0  ti_sysbios_knl_Task_self__E                                         
c21b44c0  ti_sysbios_knl_Task_startup__E                                      
c21b44e0  ti_sysbios_timers_timer64_Timer_Module__startupDone__S              
c21b4500  ti_sysbios_timers_timer64_Timer_Module_startup__E                   
c21b4520  ti_sysbios_timers_timer64_Timer_TimerSupportProxy_enable__E         
c21b4540  ti_sysbios_utils_Load_getCPULoad__E                                 
c21b4560  ti_sysbios_utils_Load_taskRegHook__E                                
c21b4580  ti_sysbios_utils_Load_update__E                                     
c21b45c0  xdc_runtime_Error_check__E                                          
c21b45e0  xdc_runtime_Error_init__E                                           
c21b4600  xdc_runtime_Error_print__E                                          
c21b4620  xdc_runtime_Gate_enterSystem__E                                     
c21b4640  xdc_runtime_Gate_enterSystem__F                                     
c21b4660  xdc_runtime_Gate_leaveSystem__E                                     
c21b4680  xdc_runtime_Gate_leaveSystem__F                                     
c21b46a0  xdc_runtime_Log_doPrint__E                                          
c21b46c0  xdc_runtime_LoggerSys_Instance_init__F                              
c21b46e0  xdc_runtime_LoggerSys_TimestampProxy_get64__E                       
c21b4700  xdc_runtime_LoggerSys_disable__E                                    
c21b4720  xdc_runtime_LoggerSys_disable__F                                    
c21b4740  xdc_runtime_LoggerSys_enable__E                                     
c21b4760  xdc_runtime_LoggerSys_enable__F                                     
c21b4780  xdc_runtime_Memory_HeapProxy_alloc__E                               
c21b47a0  xdc_runtime_Memory_HeapProxy_free__E                                
c21b47c0  xdc_runtime_Memory_alloc__E                                         
c21b47e0  xdc_runtime_Memory_calloc__E                                        
c21b4800  xdc_runtime_Memory_free__E                                          
c21b4820  xdc_runtime_Registry_findById__E                                    
c21b4840  xdc_runtime_Startup_exec__E                                         
c21b4860  xdc_runtime_Startup_reset__I                                        
c21b4880  xdc_runtime_SysMin_Module_startup__E                                
c21b48a0  xdc_runtime_SysMin_abort__E                                         
c21b48c0  xdc_runtime_SysMin_exit__E                                          
c21b48e0  xdc_runtime_SysMin_output__I                                        
c21b4900  xdc_runtime_SysMin_putch__E                                         
c21b4920  xdc_runtime_SysMin_ready__E                                         
c21b4940  xdc_runtime_SysMin_ready__F                                         
c21b4960  xdc_runtime_System_Module_GateProxy_enter__E                        
c21b4980  xdc_runtime_System_Module_GateProxy_leave__E                        
c21b49a0  xdc_runtime_System_Module_startup__E                                
c21b49c0  xdc_runtime_System_Module_startup__F                                
c21b49e0  xdc_runtime_System_SupportProxy_abort__E                            
c21b4a00  xdc_runtime_System_SupportProxy_exit__E                             
c21b4a20  xdc_runtime_System_SupportProxy_putch__E                            
c21b4a40  xdc_runtime_System_SupportProxy_ready__E                            
c21b4a60  xdc_runtime_System_abort__E                                         
c21b4a80  xdc_runtime_System_atexit__E                                        
c21b4aa0  xdc_runtime_System_exit__E                                          
c21b4ac0  xdc_runtime_System_exit__F                                          
c21b4ae0  xdc_runtime_System_lastFxn__I                                       
c21b4b00  xdc_runtime_System_putch__E                                         
c21b4b20  xdc_runtime_System_vsnprintf__E                                     
c21b4b40  xdc_runtime_System_snprintf_va__F                                   
c21b4b40  xdc_runtime_System_vsnprintf__F                                     
c21b4b60  xdc_runtime_Text_cordText__E                                        
c21b4b80  xdc_runtime_Text_putLab__E                                          
c21b4ba0  xdc_runtime_Text_putSite__E                                         
c21b4bc0  xdc_runtime_Text_ropeText__E                                        
c21b4be0  xdc_runtime_Timestamp_SupportProxy_get32__E                         
c21b4be0  xdc_runtime_Timestamp_get32__F                                      
c21b4c00  xdc_runtime_Timestamp_SupportProxy_getFreq__E                       
c21b4c00  xdc_runtime_Timestamp_getFreq__F                                    
c21b4c20  xdc_runtime_Timestamp_get32__E                                      
c21b4c40  xdc_runtime_Timestamp_getFreq__E                                    
c21b6ee0  xdc_runtime_Text_charTab__A                                         
c21b85ea  ti_sysbios_BIOS_Module__id__C                                       
c21ba4ae  ti_sysbios_family_c64p_EventCombiner_Module__id__C                  
c21bc2f8  _ctypes_                                                            
c21bc3fe  ti_sysbios_family_c64p_Exception_Module__id__C                      
c21bc400  _lv_bpp8_opa_table                                                  
c21bc5f0  xdc_runtime_Text_nodeTab__A                                         
c21bc946  ti_sysbios_family_c64p_Exception_useInternalBuffer__C               
c21bc9fe  ti_sysbios_family_c64p_Hwi_Module__id__C                            
c21bccae  ti_sysbios_family_c64p_Hwi_Module__loggerDefined__C                 
c21bcd4e  ti_sysbios_gates_GateMutex_Module__id__C                            
c21bd2d8  _lv_style_builtin_prop_flag_lookup_table                            
c21bd418  ti_sysbios_timers_timer64_Timer_Object__PARAMS__C                   
c21bd748  ti_sysbios_knl_Task_hooks__A                                        
c21bd810  ti_sysbios_knl_Task_Object__PARAMS__C                               
c21bd8b8  xdc_runtime_LoggerSys_Module__FXNS__C                               
c21bd8f0  xdc_runtime_Startup_sfxnTab__A                                      
c21bd988  ti_sysbios_family_c64p_Hwi_Object__PARAMS__C                        
c21bd9e4  ti_sysbios_hal_Hwi_Object__PARAMS__C                                
c21bda68  ti_sysbios_heaps_HeapMem_Module__FXNS__C                            
c21bda90  ti_sysbios_knl_Swi_Object__PARAMS__C                                
c21bdade  ti_sysbios_hal_Hwi_Module__id__C                                    
c21bdb28  ti_sysbios_gates_GateHwi_Module__FXNS__C                            
c21bdb4c  ti_sysbios_gates_GateMutex_Module__FXNS__C                          
c21bdb70  ti_sysbios_heaps_HeapMem_Object__PARAMS__C                          
c21bdb94  ti_sysbios_knl_Clock_Object__PARAMS__C                              
c21bdbb8  ti_sysbios_knl_Semaphore_Object__PARAMS__C                          
c21bdc02  ti_sysbios_heaps_HeapMem_Module__id__C                              
c21bdc2a  ti_sysbios_knl_Clock_Module__id__C                                  
c21bdc2c  ti_sysbios_family_c64p_Hwi_Object__DESC__C                          
c21bdc4c  ti_sysbios_gates_GateHwi_Object__DESC__C                            
c21bdc6c  ti_sysbios_gates_GateMutex_Object__DESC__C                          
c21bdc8c  ti_sysbios_hal_Hwi_Object__DESC__C                                  
c21bdcac  ti_sysbios_heaps_HeapMem_Object__DESC__C                            
c21bdccc  ti_sysbios_knl_Clock_Object__DESC__C                                
c21bdcec  ti_sysbios_knl_Queue_Object__DESC__C                                
c21bdd0c  ti_sysbios_knl_Semaphore_Object__DESC__C                            
c21bdd2c  ti_sysbios_knl_Swi_Object__DESC__C                                  
c21bdd4c  ti_sysbios_knl_Task_Object__DESC__C                                 
c21bdd6c  ti_sysbios_timers_timer64_Timer_Object__DESC__C                     
c21bdd8c  xdc_runtime_LoggerSys_Object__DESC__C                               
c21bde7c  ti_sysbios_BIOS_Module__diagsEnabled__C                             
c21bde9c  ti_sysbios_BIOS_Module__diagsIncluded__C                            
c21bdebc  lv_arc_class                                                        
c21bded8  lv_bar_class                                                        
c21bdef4  lv_btn_class                                                        
c21bdf10  lv_btnmatrix_class                                                  
c21bdf2c  lv_calendar_class                                                   
c21bdf48  lv_calendar_header_arrow_class                                      
c21bdf64  lv_calendar_header_dropdown_class                                   
c21bdf80  lv_chart_class                                                      
c21bdf9c  lv_checkbox_class                                                   
c21bdfb8  lv_colorwheel_class                                                 
c21bdfd4  lv_dropdown_class                                                   
c21bdff0  lv_dropdownlist_class                                               
c21be00c  lv_font_montserrat_14                                               
c21be028  lv_img_class                                                        
c21be044  lv_keyboard_class                                                   
c21be060  lv_label_class                                                      
c21be07c  lv_led_class                                                        
c21be098  lv_line_class                                                       
c21be0b4  lv_list_btn_class                                                   
c21be0d0  lv_list_class                                                       
c21be0ec  lv_list_text_class                                                  
c21be108  lv_menu_class                                                       
c21be124  lv_menu_cont_class                                                  
c21be140  lv_menu_main_cont_class                                             
c21be15c  lv_menu_main_header_cont_class                                      
c21be178  lv_menu_page_class                                                  
c21be194  lv_menu_section_class                                               
c21be1b0  lv_menu_separator_class                                             
c21be1cc  lv_menu_sidebar_cont_class                                          
c21be1e8  lv_menu_sidebar_header_cont_class                                   
c21be204  lv_meter_class                                                      
c21be220  lv_msgbox_backdrop_class                                            
c21be23c  lv_msgbox_class                                                     
c21be258  lv_obj_class                                                        
c21be274  lv_roller_class                                                     
c21be290  lv_roller_label_class                                               
c21be2ac  lv_slider_class                                                     
c21be2c8  lv_spinbox_class                                                    
c21be2e4  lv_spinner_class                                                    
c21be300  lv_switch_class                                                     
c21be31c  lv_table_class                                                      
c21be338  lv_tabview_class                                                    
c21be354  lv_textarea_class                                                   
c21be370  lv_tileview_class                                                   
c21be38c  lv_tileview_tile_class                                              
c21be3a8  lv_win_class                                                        
c21be3c4  ti_sysbios_BIOS_Module__diagsMask__C                                
c21be3c8  xdc_runtime_Startup_sfxnRts__A                                      
c21be3e2  ti_sysbios_knl_Clock_Module__loggerDefined__C                       
c21be3fc  ti_sysbios_gates_GateHwi_Object__PARAMS__C                          
c21be414  ti_sysbios_gates_GateMutex_Object__PARAMS__C                        
c21be42c  ti_sysbios_knl_Queue_Object__PARAMS__C                              
c21be444  ti_sysbios_BIOS_installedErrorHook__C                               
c21be448  ti_sysbios_knl_Swi_hooks__A                                         
c21be460  xdc_runtime_LoggerSys_Object__PARAMS__C                             
c21be4a0  ti_sysbios_family_c64p_Hwi_hooks__A                                 
c21be4b4  ti_sysbios_family_c62_TaskSupport_stackAlignment__C                 
c21be4ca  ti_sysbios_knl_Semaphore_Module__id__C                              
c21be4cc  ti_sysbios_family_c64p_Cache_EMIFA_BASE__C                          
c21be4f0  _lv_bpp4_opa_table                                                  
c21be520  ti_sysbios_family_c64p_EventCombiner_EVTMASK__C                     
c21be548  ti_sysbios_family_c64p_Cache_initSize__C                            
c21be554  ti_sysbios_family_c64p_Cache_EMIFA_CFG__C                           
c21be558  ti_sysbios_knl_Idle_coreList__A                                     
c21be564  ti_sysbios_family_c64p_Cache_EMIFA_LENGTH__C                        
c21be568  ti_sysbios_knl_Idle_funcList__A                                     
c21be574  ti_sysbios_family_c64p_Cache_EMIFB_BASE__C                          
c21be58a  ti_sysbios_knl_Semaphore_Module__loggerDefined__C                   
c21be594  ti_sysbios_family_c64p_Cache_EMIFB_CFG__C                           
c21be5c8  ti_sysbios_family_c64p_Hwi_hooks__C                                 
c21be5d0  ti_sysbios_knl_Idle_coreList__C                                     
c21be5d8  ti_sysbios_knl_Idle_funcList__C                                     
c21be5e0  ti_sysbios_knl_Swi_hooks__C                                         
c21be5e8  ti_sysbios_knl_Task_hooks__C                                        
c21be5f0  xdc_runtime_Startup_firstFxns__A                                    
c21be5f8  xdc_runtime_Startup_firstFxns__C                                    
c21be600  xdc_runtime_Startup_lastFxns__C                                     
c21be616  ti_sysbios_knl_Swi_Module__id__C                                    
c21be61c  ti_sysbios_family_c64p_Cache_EMIFB_LENGTH__C                        
c21be624  ti_sysbios_family_c64p_Cache_EMIFC_BASE__C                          
c21be628  _lv_bpp2_opa_table                                                  
c21be62c  ti_sysbios_family_c64p_Cache_EMIFC_CFG__C                           
c21be630  ti_sysbios_family_c64p_Cache_EMIFC_LENGTH__C                        
c21be634  ti_sysbios_family_c64p_Cache_MAR0_31__C                             
c21be638  ti_sysbios_family_c64p_Cache_MAR128_159__C                          
c21be63c  ti_sysbios_family_c64p_Cache_MAR160_191__C                          
c21be640  ti_sysbios_family_c64p_Cache_MAR192_223__C                          
c21be644  ti_sysbios_family_c64p_Cache_MAR224_255__C                          
c21be648  ti_sysbios_family_c64p_Cache_MAR32_63__C                            
c21be64c  ti_sysbios_family_c64p_Cache_MAR64_95__C                            
c21be650  ti_sysbios_family_c64p_Cache_MAR96_127__C                           
c21be654  ti_sysbios_family_c64p_EventCombiner_E_unpluggedEvent__C            
c21be658  ti_sysbios_family_c64p_Exception_E_exceptionMax__C                  
c21be65c  ti_sysbios_family_c64p_Exception_exceptionHook__C                   
c21be660  ti_sysbios_family_c64p_Exception_externalHook__C                    
c21be664  ti_sysbios_family_c64p_Exception_internalHook__C                    
c21be668  ti_sysbios_family_c64p_Exception_nmiHook__C                         
c21be66c  ti_sysbios_family_c64p_Hwi_E_alreadyDefined__C                      
c21be670  ti_sysbios_family_c64p_Hwi_E_handleNotFound__C                      
c21be674  ti_sysbios_family_c64p_Hwi_LD_end__C                                
c21be678  ti_sysbios_family_c64p_Hwi_LM_begin__C                              
c21be67c  ti_sysbios_family_c64p_Hwi_Module__diagsEnabled__C                  
c21be680  ti_sysbios_family_c64p_Hwi_Module__diagsIncluded__C                 
c21be684  ti_sysbios_family_c64p_Hwi_Module__diagsMask__C                     
c21be688  ti_sysbios_family_c64p_Hwi_Module__loggerFxn1__C                    
c21be68c  ti_sysbios_family_c64p_Hwi_Module__loggerFxn8__C                    
c21be690  ti_sysbios_family_c64p_Hwi_Module__loggerObj__C                     
c21be694  ti_sysbios_family_c64p_Hwi_Object__heap__C                          
c21be698  ti_sysbios_gates_GateMutex_A_badContext__C                          
c21be69c  ti_sysbios_gates_GateMutex_Instance_State_sem__O                    
c21be6a0  ti_sysbios_gates_GateMutex_Module__diagsEnabled__C                  
c21be6a4  ti_sysbios_gates_GateMutex_Module__diagsIncluded__C                 
c21be6a8  ti_sysbios_gates_GateMutex_Module__diagsMask__C                     
c21be6ac  ti_sysbios_hal_Hwi_E_stackOverflow__C                               
c21be6b0  ti_sysbios_heaps_HeapMem_A_align__C                                 
c21be6b4  ti_sysbios_heaps_HeapMem_A_heapSize__C                              
c21be6b8  ti_sysbios_heaps_HeapMem_A_invalidFree__C                           
c21be6bc  ti_sysbios_heaps_HeapMem_A_zeroBlock__C                             
c21be6c0  ti_sysbios_heaps_HeapMem_E_memory__C                                
c21be6c4  ti_sysbios_heaps_HeapMem_Module__diagsEnabled__C                    
c21be6c8  ti_sysbios_heaps_HeapMem_Module__diagsIncluded__C                   
c21be6cc  ti_sysbios_heaps_HeapMem_Module__diagsMask__C                       
c21be6d0  ti_sysbios_heaps_HeapMem_Module__gateObj__C                         
c21be6d4  ti_sysbios_heaps_HeapMem_Object__count__C                           
c21be6d8  ti_sysbios_heaps_HeapMem_Object__table__C                           
c21be6dc  ti_sysbios_heaps_HeapMem_reqAlign__C                                
c21be6e0  ti_sysbios_knl_Clock_A_badThreadType__C                             
c21be6e4  ti_sysbios_knl_Clock_A_clockDisabled__C                             
c21be6e8  ti_sysbios_knl_Clock_LM_begin__C                                    
c21be6ec  ti_sysbios_knl_Clock_LM_tick__C                                     
c21be6f0  ti_sysbios_knl_Clock_LW_delayed__C                                  
c21be6f4  ti_sysbios_knl_Clock_Module_State_clockQ__O                         
c21be6f8  ti_sysbios_knl_Clock_Module__diagsEnabled__C                        
c21be6fc  ti_sysbios_knl_Clock_Module__diagsIncluded__C                       
c21be700  ti_sysbios_knl_Clock_Module__diagsMask__C                           
c21be704  ti_sysbios_knl_Clock_Module__loggerFxn1__C                          
c21be708  ti_sysbios_knl_Clock_Module__loggerFxn2__C                          
c21be70c  ti_sysbios_knl_Clock_Module__loggerObj__C                           
c21be710  ti_sysbios_knl_Semaphore_A_badContext__C                            
c21be714  ti_sysbios_knl_Semaphore_A_noEvents__C                              
c21be718  ti_sysbios_knl_Semaphore_A_overflow__C                              
c21be71c  ti_sysbios_knl_Semaphore_A_pendTaskDisabled__C                      
c21be720  ti_sysbios_knl_Semaphore_Instance_State_pendQ__O                    
c21be724  ti_sysbios_knl_Semaphore_LM_pend__C                                 
c21be728  ti_sysbios_knl_Semaphore_LM_post__C                                 
c21be72c  ti_sysbios_knl_Semaphore_Module__diagsEnabled__C                    
c21be730  ti_sysbios_knl_Semaphore_Module__diagsIncluded__C                   
c21be734  ti_sysbios_knl_Semaphore_Module__diagsMask__C                       
c21be738  ti_sysbios_knl_Semaphore_Module__loggerFxn2__C                      
c21be73c  ti_sysbios_knl_Semaphore_Module__loggerFxn4__C                      
c21be740  ti_sysbios_knl_Semaphore_Module__loggerObj__C                       
c21be744  ti_sysbios_knl_Swi_A_badPriority__C                                 
c21be748  ti_sysbios_knl_Swi_A_swiDisabled__C                                 
c21be74c  ti_sysbios_knl_Swi_LD_end__C                                        
c21be750  ti_sysbios_knl_Swi_LM_begin__C                                      
c21be754  ti_sysbios_knl_Swi_LM_post__C                                       
c21be758  ti_sysbios_knl_Swi_Module__diagsEnabled__C                          
c21be75c  ti_sysbios_knl_Swi_Module__diagsIncluded__C                         
c21be760  ti_sysbios_knl_Swi_Module__diagsMask__C                             
c21be764  ti_sysbios_knl_Swi_Module__loggerFxn1__C                            
c21be768  ti_sysbios_knl_Swi_Module__loggerFxn4__C                            
c21be76c  ti_sysbios_knl_Swi_Module__loggerObj__C                             
c21be770  ti_sysbios_knl_Swi_Object__count__C                                 
c21be774  ti_sysbios_knl_Swi_Object__heap__C                                  
c21be778  ti_sysbios_knl_Swi_Object__table__C                                 
c21be77c  ti_sysbios_knl_Swi_numConstructedSwis__C                            
c21be780  ti_sysbios_knl_Task_A_badPriority__C                                
c21be784  ti_sysbios_knl_Task_A_badTaskState__C                               
c21be788  ti_sysbios_knl_Task_A_badThreadType__C                              
c21be78c  ti_sysbios_knl_Task_A_badTimeout__C                                 
c21be790  ti_sysbios_knl_Task_A_noPendElem__C                                 
c21be794  ti_sysbios_knl_Task_A_sleepTaskDisabled__C                          
c21be798  ti_sysbios_knl_Task_A_taskDisabled__C                               
c21be79c  ti_sysbios_knl_Task_E_deleteNotAllowed__C                           
c21be7a0  ti_sysbios_knl_Task_E_spOutOfBounds__C                              
c21be7a4  ti_sysbios_knl_Task_E_stackOverflow__C                              
c21be7a8  ti_sysbios_knl_Task_LD_block__C                                     
c21be7ac  ti_sysbios_knl_Task_LD_exit__C                                      
c21be7b0  ti_sysbios_knl_Task_LD_ready__C                                     
c21be7b4  ti_sysbios_knl_Task_LM_sleep__C                                     
c21be7b8  ti_sysbios_knl_Task_LM_switch__C                                    
c21be7bc  ti_sysbios_knl_Task_Module_State_inactiveQ__O                       
c21be7c0  ti_sysbios_knl_Task_Module_State_terminatedQ__O                     
c21be7c4  ti_sysbios_knl_Task_Module__diagsEnabled__C                         
c21be7c8  ti_sysbios_knl_Task_Module__diagsIncluded__C                        
c21be7cc  ti_sysbios_knl_Task_Module__diagsMask__C                            
c21be7d0  ti_sysbios_knl_Task_Module__loggerFxn2__C                           
c21be7d4  ti_sysbios_knl_Task_Module__loggerFxn4__C                           
c21be7d8  ti_sysbios_knl_Task_Module__loggerObj__C                            
c21be7dc  ti_sysbios_knl_Task_Object__count__C                                
c21be7e0  ti_sysbios_knl_Task_Object__heap__C                                 
c21be7e4  ti_sysbios_knl_Task_Object__table__C                                
c21be7e8  ti_sysbios_knl_Task_allBlockedFunc__C                               
c21be7ec  ti_sysbios_knl_Task_defaultStackHeap__C                             
c21be7f0  ti_sysbios_knl_Task_defaultStackSize__C                             
c21be7f4  ti_sysbios_knl_Task_numConstructedTasks__C                          
c21be7f8  ti_sysbios_timers_timer64_Timer_A_notAvailable__C                   
c21be7fc  ti_sysbios_timers_timer64_Timer_E_cannotSupport__C                  
c21be800  ti_sysbios_timers_timer64_Timer_E_invalidTimer__C                   
c21be804  ti_sysbios_timers_timer64_Timer_E_notAvailable__C                   
c21be808  ti_sysbios_timers_timer64_Timer_Module__diagsEnabled__C             
c21be80c  ti_sysbios_timers_timer64_Timer_Module__diagsIncluded__C            
c21be810  ti_sysbios_timers_timer64_Timer_Module__diagsMask__C                
c21be814  ti_sysbios_timers_timer64_Timer_anyMask__C                          
c21be818  ti_sysbios_timers_timer64_Timer_defaultHalf__C                      
c21be81c  ti_sysbios_timers_timer64_Timer_freqDivisor__C                      
c21be820  ti_sysbios_timers_timer64_Timer_numLocalTimers__C                   
c21be824  ti_sysbios_timers_timer64_Timer_numTimerDevices__C                  
c21be828  ti_sysbios_utils_Load_LS_cpuLoad__C                                 
c21be82c  ti_sysbios_utils_Load_LS_hwiLoad__C                                 
c21be830  ti_sysbios_utils_Load_LS_swiLoad__C                                 
c21be834  ti_sysbios_utils_Load_LS_taskLoad__C                                
c21be838  ti_sysbios_utils_Load_Module_State_taskList__O                      
c21be83c  ti_sysbios_utils_Load_Module__diagsEnabled__C                       
c21be840  ti_sysbios_utils_Load_Module__diagsIncluded__C                      
c21be844  ti_sysbios_utils_Load_Module__diagsMask__C                          
c21be848  ti_sysbios_utils_Load_Module__loggerFxn1__C                         
c21be84c  ti_sysbios_utils_Load_Module__loggerFxn2__C                         
c21be850  ti_sysbios_utils_Load_Module__loggerFxn4__C                         
c21be854  ti_sysbios_utils_Load_Module__loggerObj__C                          
c21be858  ti_sysbios_utils_Load_postUpdate__C                                 
c21be85c  ti_sysbios_utils_Load_windowInMs__C                                 
c21be860  xdc_runtime_Assert_E_assertFailed__C                                
c21be864  xdc_runtime_Core_A_initializedParams__C                             
c21be868  xdc_runtime_Core_Module__diagsEnabled__C                            
c21be86c  xdc_runtime_Core_Module__diagsIncluded__C                           
c21be870  xdc_runtime_Core_Module__diagsMask__C                               
c21be874  xdc_runtime_Error_E_memory__C                                       
c21be878  xdc_runtime_Error_Module__diagsEnabled__C                           
c21be87c  xdc_runtime_Error_Module__diagsIncluded__C                          
c21be880  xdc_runtime_Error_Module__diagsMask__C                              
c21be884  xdc_runtime_Error_Module__loggerFxn8__C                             
c21be888  xdc_runtime_Error_Module__loggerObj__C                              
c21be88c  xdc_runtime_Error_policy__C                                         
c21be890  xdc_runtime_Error_raiseHook__C                                      
c21be894  xdc_runtime_IGateProvider_Interface__BASE__C                        
c21be898  xdc_runtime_IHeap_Interface__BASE__C                                
c21be89c  xdc_runtime_ILogger_Interface__BASE__C                              
c21be8a0  xdc_runtime_IModule_Interface__BASE__C                              
c21be8a4  xdc_runtime_Log_L_error__C                                          
c21be8a8  xdc_runtime_Memory_defaultHeapInstance__C                           
c21be8ac  xdc_runtime_Startup_execImpl__C                                     
c21be8b0  xdc_runtime_Startup_lastFxns__A                                     
c21be8b4  xdc_runtime_Startup_maxPasses__C                                    
c21be8b8  xdc_runtime_Startup_sfxnRts__C                                      
c21be8bc  xdc_runtime_Startup_sfxnTab__C                                      
c21be8c0  xdc_runtime_Startup_startModsFxn__C                                 
c21be8c4  xdc_runtime_SysMin_bufSize__C                                       
c21be8c8  xdc_runtime_SysMin_outputFunc__C                                    
c21be8cc  xdc_runtime_System_Module__gateObj__C                               
c21be8d0  xdc_runtime_System_extendFxn__C                                     
c21be8d4  xdc_runtime_System_maxAtexitHandlers__C                             
c21be8d8  xdc_runtime_Text_charTab__C                                         
c21be8dc  xdc_runtime_Text_nameEmpty__C                                       
c21be8e0  xdc_runtime_Text_nameStatic__C                                      
c21be8e4  xdc_runtime_Text_nameUnknown__C                                     
c21be8e8  xdc_runtime_Text_nodeTab__C                                         
c21be8ec  xdc_runtime_Text_visitRopeFxn__C                                    
c21be8f2  ti_sysbios_knl_Swi_Module__loggerDefined__C                         
c21be8f4  ti_sysbios_knl_Task_Module__id__C                                   
c21be8f6  ti_sysbios_knl_Task_Module__loggerDefined__C                        
c21be8fa  ti_sysbios_knl_Task_initStackFlag__C                                
c21be8fc  ti_sysbios_timers_timer64_Timer_Module__id__C                       
c21be8fe  ti_sysbios_timers_timer64_Timer_startupNeeded__C                    
c21be900  _lv_bpp1_opa_table                                                  
c21be902  ti_sysbios_utils_Load_Module__id__C                                 
c21be904  ti_sysbios_utils_Load_Module__loggerDefined__C                      
c21be906  ti_sysbios_utils_Load_autoAddTasks__C                               
c21be908  ti_sysbios_utils_Load_hwiEnabled__C                                 
c21be90a  ti_sysbios_utils_Load_updateInIdle__C                               
c21be90c  xdc_runtime_Core_Module__id__C                                      
c21be90e  xdc_runtime_Error_Module__loggerDefined__C                          
c21be910  xdc_runtime_Error_maxDepth__C                                       
c21be912  xdc_runtime_Memory_Module__id__C                                    
c21be914  xdc_runtime_SysMin_flushAtExit__C                                   
c21be916  xdc_runtime_Text_charCnt__C                                         
c21be918  xdc_runtime_Text_isLoaded__C                                        
c21be91a  xdc_runtime_Text_registryModsLastId__C                              
c21be91c  xdc_runtime_Text_unnamedModsLastId__C                               
c21bec00  CmdLists                                                            
c21bf400  ti_sysbios_family_c64p_EventCombiner_Module__state__V               
c21bf800  _ftable                                                             
c21bf9e0  g_sCmdTable                                                         
c21bfaa0  _stream                                                             
c21bfb40  ti_sysbios_knl_Task_Object__table__V                                
c21bfb90  TSK_idle                                                            
c21bfbe0  ti_sysbios_utils_Load_Module__state__V                              
c21bfc78  ti_sysbios_family_c64p_Hwi_Object__table__V                         
c21bfd04  _lock                                                               
c21bfd08  ti_sysbios_knl_Swi_Module_State_0_readyQ__A                         
c21bfd88  ti_sysbios_knl_Task_Module_State_0_readyQ__A                        
c21bfe08  _device                                                             
c21bfe80  ti_sysbios_family_c64p_Hwi_Module__state__V                         
c21bfee8  ti_sysbios_timers_timer64_Timer_Module_State_0_device__A            
c21bff48  ti_sysbios_gates_GateMutex_Object__table__V                         
c21bff98  ti_sysbios_timers_timer64_Timer_Object__table__V                    
c21bffe8  ulDataPatternTable                                                  
c21c0038  ti_sysbios_knl_Task_Module__state__V                                
c21c007c  _unlock                                                             
c21c0080  ti_sysbios_utils_Load_Module_State_0_taskEnv__A                     
c21c00b8  ti_sysbios_knl_Swi_Object__table__V                                 
c21c00ec  __TI_ft_end                                                         
c21c0120  ti_sysbios_family_c64p_Exception_Module__state__V                   
c21c0150  ti_sysbios_knl_Clock_Module__state__V                               
c21c01c4  __errno                                                             
c21c01c4  errno                                                               
c21c01c8  palette_32b                                                         
c21c01e8  ti_sysbios_BIOS_Module__state__V                                    
c21c0208  ti_sysbios_timers_timer64_Timer_Module_State_0_gctrl__A             
c21c0228  ti_sysbios_timers_timer64_Timer_Module_State_0_handles__A           
c21c0248  ti_sysbios_timers_timer64_Timer_Module_State_0_intFreqs__A          
c21c0268  xdc_runtime_System_Module_State_0_atexitHandlers__A                 
c21c02a4  ti_sysbios_family_c64p_Cache_Module__state__V                       
c21c02c4  ti_sysbios_family_c64p_primus_TimerSupport_Module__state__V         
c21c02c8  ti_sysbios_heaps_HeapMem_Object__table__V                           
c21c02e4  ti_sysbios_knl_Swi_Module__state__V                                 
c21c0300  ti_sysbios_timers_timer64_Timer_Module__state__V                    
c21c0314  xdc_runtime_Memory_Module__state__V                                 
c21c0318  SEGVal                                                              
c21c0328  __TI_cleanup_ptr                                                    
c21c032c  __TI_dtors_ptr                                                      
c21c0330  __TI_enable_exit_profile_output                                     
c21c0338  ti_sysbios_hal_Hwi_Object__table__V                                 
c21c0346  xdc_runtime_Error_Module__state__V                                  
c21c0348  ti_sysbios_hal_Timer_Object__table__V                               
c21c0358  xdc_runtime_LoggerSys_Object__table__V                              
c21c0364  xdc_runtime_SysMin_Module__state__V                                 
c21c0370  xdc_runtime_System_Module__state__V                                 
c21c037c  ti_sysbios_family_c64p_Hwi_Module__root__V                          
c21c0388  ti_sysbios_family_c64p_primus_TimerSupport_Module_State_0_suspSrc__A
c21c0390  ti_sysbios_gates_GateHwi_Module__root__V                            
c21c0398  ti_sysbios_gates_GateHwi_Object__table__V                           
c21c03a0  ti_sysbios_gates_GateMutex_Module__root__V                          
c21c03a8  ti_sysbios_hal_Hwi_Module__root__V                                  
c21c03b0  ti_sysbios_heaps_HeapMem_Module__root__V                            
c21c03b8  ti_sysbios_knl_Clock_Module__root__V                                
c21c03c0  ti_sysbios_knl_Queue_Module__root__V                                
c21c03c8  ti_sysbios_knl_Semaphore_Module__root__V                            
c21c03d0  ti_sysbios_knl_Swi_Module__root__V                                  
c21c03d8  ti_sysbios_knl_Task_Module__root__V                                 
c21c03e0  ti_sysbios_timers_timer64_Timer_Module__root__V                     
c21c03e8  xdc_runtime_LoggerSys_Module__root__V                               
c21c03f0  xdc_runtime_Registry_Module__state__V                               
c21c03f8  xdc_runtime_Startup_Module__state__V                                
c21c0400  LEDNixieVal                                                         
c21c0408  ti_sysbios_knl_Task_Module_State_0_idleTask__A                      
c21c0410  ti_sysbios_utils_Load_Module_State_0_runningTask__A                 
c21c0418  ti_sysbios_utils_Load_Module_State_0_taskStartTime__A               
c21c09e8  __TI_STATIC_BASE                                                    
c21c0a50  KEY4SwiHandle                                                       
c21c0a54  KEY6SwiHandle                                                       
c21c0a58  LV_LAYOUT_FLEX                                                      
c21c0a5c  LV_LAYOUT_GRID                                                      
c21c0a60  LV_STYLE_FLEX_CROSS_PLACE                                           
c21c0a64  LV_STYLE_FLEX_FLOW                                                  
c21c0a68  LV_STYLE_FLEX_GROW                                                  
c21c0a6c  LV_STYLE_FLEX_MAIN_PLACE                                            
c21c0a70  LV_STYLE_FLEX_TRACK_PLACE                                           
c21c0a74  LV_STYLE_GRID_CELL_COLUMN_POS                                       
c21c0a78  LV_STYLE_GRID_CELL_COLUMN_SPAN                                      
c21c0a7c  LV_STYLE_GRID_CELL_ROW_POS                                          
c21c0a80  LV_STYLE_GRID_CELL_ROW_SPAN                                         
c21c0a84  LV_STYLE_GRID_CELL_X_ALIGN                                          
c21c0a88  LV_STYLE_GRID_CELL_Y_ALIGN                                          
c21c0a8c  LV_STYLE_GRID_COLUMN_ALIGN                                          
c21c0a90  LV_STYLE_GRID_COLUMN_DSC_ARRAY                                      
c21c0a94  LV_STYLE_GRID_ROW_ALIGN                                             
c21c0a98  LV_STYLE_GRID_ROW_DSC_ARRAY                                         
c21c0a9c  UARTConsoleSemHandle                                                
c21c0aa0  UARTConsoleTaskHandle                                               
c21c0aa4  _lv_grad_cache_mem                                                  
c21c0aa8  _lv_layout_list                                                     
c21c0aac  _lv_style_custom_prop_flag_lookup_table                             
c21c0ab0  _lv_theme_basic_styles                                              
c21c0ab4  _lv_theme_default_styles                                            
c21c0ab8  _lv_timer_act                                                       
c21c0abc  p_rx                                                                
c21c0ac0  p_tx                                                                
c21c0ac4  rx_len                                                              
c21c0ac8  tx_len                                                              
c21c0ad4  _lv_txt_encoded_size                                                
c21c0ad8  _lv_txt_unicode_to_encoded                                          
c21c0adc  _lv_txt_encoded_conv_wc                                             
c21c0ae0  _lv_txt_encoded_next                                                
c21c0ae4  _lv_txt_encoded_prev                                                
c21c0ae8  _lv_txt_encoded_get_byte_id                                         
c21c0aec  _lv_txt_encoded_get_char_id                                         
c21c0af0  _lv_txt_get_encoded_length                                          
c21c0b25  CmdHistorySaveNo                                                    
c21c0b26  CmdHistorySaveIndex                                                 
c21c0b27  CmdHistoryDisplayIndex                                              
c21c0b28  sataRegs                                                            
c21c0b2c  temp                                                                
c21c0b50  _lv_style_custom_prop_flag_lookup_table_size                        
c21c0b5b  LED_OP                                                              
c21c0b5c  spi_flag                                                            
c21c0b60  SoftPWM                                                             
c21c0b64  OSCINFreq                                                           
c21c0b6c  LODEPNG_VERSION_STRING                                              
c21c0c00  ti_sysbios_family_c64p_Hwi0                                         
c21c0c00  ti_sysbios_family_c64p_Hwi_int0                                     
c21c0c20  ti_sysbios_family_c64p_Hwi_int1                                     
c21c0c40  ti_sysbios_family_c64p_Hwi_int2                                     
c21c0c60  ti_sysbios_family_c64p_Hwi_int3                                     
c21c0c80  ti_sysbios_family_c64p_Hwi_int4                                     
c21c0ca0  ti_sysbios_family_c64p_Hwi_int5                                     
c21c0cc0  ti_sysbios_family_c64p_Hwi_int6                                     
c21c0ce0  ti_sysbios_family_c64p_Hwi_int7                                     
c21c0d00  ti_sysbios_family_c64p_Hwi_int8                                     
c21c0d20  ti_sysbios_family_c64p_Hwi_int9                                     
c21c0d40  ti_sysbios_family_c64p_Hwi_int10                                    
c21c0d60  ti_sysbios_family_c64p_Hwi_int11                                    
c21c0d80  ti_sysbios_family_c64p_Hwi_int12                                    
c21c0da0  ti_sysbios_family_c64p_Hwi_int13                                    
c21c0dc0  ti_sysbios_family_c64p_Hwi_int14                                    
c21c0de0  ti_sysbios_family_c64p_Hwi_int15                                    
c21c0e00  __CIOBUF_                                                           
c21c1e60  __TI_Handler_Table_Base                                             
c21c1e68  __TI_CINIT_Base                                                     
c21c1e68  __TI_Handler_Table_Limit                                            
c21c1e90  __TI_CINIT_Limit                                                    
ffffffff  __TI_pprof_out_hndl                                                 
ffffffff  __TI_prof_data_size                                                 
ffffffff  __TI_prof_data_start                                                
ffffffff  __binit__                                                           
ffffffff  __c_args__                                                          
ffffffff  binit                                                               
UNDEFED   __TI_INITARRAY_Base                                                 
UNDEFED   __TI_INITARRAY_Limit                                                

[2549 symbols]
